
tester407.elf:     file format elf32-littlearm

Sections:
Idx Name          Size      VMA       LMA       File off  Algn
  0 .isr_vector   00000188  08000000  08000000  00010000  2**0
                  CONTENTS, ALLOC, LOAD, READONLY, DATA
  1 .text         00007ebc  08000190  08000190  00010190  2**4
                  CONTENTS, ALLOC, LOAD, READONLY, CODE
  2 .rodata       00000958  0800804c  0800804c  0001804c  2**2
                  CONTENTS, ALLOC, LOAD, READONLY, DATA
  3 .ARM.extab    00000000  080089a4  080089a4  00020090  2**0
                  CONTENTS
  4 .ARM          00000008  080089a4  080089a4  000189a4  2**2
                  CONTENTS, ALLOC, LOAD, READONLY, DATA
  5 .preinit_array 00000000  080089ac  080089ac  00020090  2**0
                  CONTENTS, ALLOC, LOAD, DATA
  6 .init_array   00000004  080089ac  080089ac  000189ac  2**2
                  CONTENTS, ALLOC, LOAD, DATA
  7 .fini_array   00000004  080089b0  080089b0  000189b0  2**2
                  CONTENTS, ALLOC, LOAD, DATA
  8 .data         00000090  20000000  080089b4  00020000  2**2
                  CONTENTS, ALLOC, LOAD, DATA
  9 .ccmram       00000000  10000000  10000000  00020090  2**0
                  CONTENTS
 10 .bss          000043f4  20000090  20000090  00020090  2**2
                  ALLOC
 11 ._user_heap_stack 00000604  20004484  20004484  00020090  2**0
                  ALLOC
 12 .ARM.attributes 00000030  00000000  00000000  00020090  2**0
                  CONTENTS, READONLY
 13 .debug_info   0001beb6  00000000  00000000  000200c0  2**0
                  CONTENTS, READONLY, DEBUGGING, OCTETS
 14 .debug_abbrev 00003702  00000000  00000000  0003bf76  2**0
                  CONTENTS, READONLY, DEBUGGING, OCTETS
 15 .debug_aranges 00001498  00000000  00000000  0003f678  2**3
                  CONTENTS, READONLY, DEBUGGING, OCTETS
 16 .debug_ranges 00001368  00000000  00000000  00040b10  2**3
                  CONTENTS, READONLY, DEBUGGING, OCTETS
 17 .debug_macro  0002363f  00000000  00000000  00041e78  2**0
                  CONTENTS, READONLY, DEBUGGING, OCTETS
 18 .debug_line   00018c87  00000000  00000000  000654b7  2**0
                  CONTENTS, READONLY, DEBUGGING, OCTETS
 19 .debug_str    000d5439  00000000  00000000  0007e13e  2**0
                  CONTENTS, READONLY, DEBUGGING, OCTETS
 20 .comment      00000053  00000000  00000000  00153577  2**0
                  CONTENTS, READONLY
 21 .debug_frame  000058b8  00000000  00000000  001535cc  2**2
                  CONTENTS, READONLY, DEBUGGING, OCTETS

Disassembly of section .text:

08000190 <__do_global_dtors_aux>:
 8000190:	b510      	push	{r4, lr}
 8000192:	4c05      	ldr	r4, [pc, #20]	; (80001a8 <__do_global_dtors_aux+0x18>)
 8000194:	7823      	ldrb	r3, [r4, #0]
 8000196:	b933      	cbnz	r3, 80001a6 <__do_global_dtors_aux+0x16>
 8000198:	4b04      	ldr	r3, [pc, #16]	; (80001ac <__do_global_dtors_aux+0x1c>)
 800019a:	b113      	cbz	r3, 80001a2 <__do_global_dtors_aux+0x12>
 800019c:	4804      	ldr	r0, [pc, #16]	; (80001b0 <__do_global_dtors_aux+0x20>)
 800019e:	f3af 8000 	nop.w
 80001a2:	2301      	movs	r3, #1
 80001a4:	7023      	strb	r3, [r4, #0]
 80001a6:	bd10      	pop	{r4, pc}
 80001a8:	20000090 	.word	0x20000090
 80001ac:	00000000 	.word	0x00000000
 80001b0:	08008034 	.word	0x08008034

080001b4 <frame_dummy>:
 80001b4:	b508      	push	{r3, lr}
 80001b6:	4b03      	ldr	r3, [pc, #12]	; (80001c4 <frame_dummy+0x10>)
 80001b8:	b11b      	cbz	r3, 80001c2 <frame_dummy+0xe>
 80001ba:	4903      	ldr	r1, [pc, #12]	; (80001c8 <frame_dummy+0x14>)
 80001bc:	4803      	ldr	r0, [pc, #12]	; (80001cc <frame_dummy+0x18>)
 80001be:	f3af 8000 	nop.w
 80001c2:	bd08      	pop	{r3, pc}
 80001c4:	00000000 	.word	0x00000000
 80001c8:	20000094 	.word	0x20000094
 80001cc:	08008034 	.word	0x08008034

080001d0 <__aeabi_uldivmod>:
 80001d0:	b953      	cbnz	r3, 80001e8 <__aeabi_uldivmod+0x18>
 80001d2:	b94a      	cbnz	r2, 80001e8 <__aeabi_uldivmod+0x18>
 80001d4:	2900      	cmp	r1, #0
 80001d6:	bf08      	it	eq
 80001d8:	2800      	cmpeq	r0, #0
 80001da:	bf1c      	itt	ne
 80001dc:	f04f 31ff 	movne.w	r1, #4294967295
 80001e0:	f04f 30ff 	movne.w	r0, #4294967295
 80001e4:	f000 b96e 	b.w	80004c4 <__aeabi_idiv0>
 80001e8:	f1ad 0c08 	sub.w	ip, sp, #8
 80001ec:	e96d ce04 	strd	ip, lr, [sp, #-16]!
 80001f0:	f000 f806 	bl	8000200 <__udivmoddi4>
 80001f4:	f8dd e004 	ldr.w	lr, [sp, #4]
 80001f8:	e9dd 2302 	ldrd	r2, r3, [sp, #8]
 80001fc:	b004      	add	sp, #16
 80001fe:	4770      	bx	lr

08000200 <__udivmoddi4>:
 8000200:	e92d 47f0 	stmdb	sp!, {r4, r5, r6, r7, r8, r9, sl, lr}
 8000204:	9d08      	ldr	r5, [sp, #32]
 8000206:	4604      	mov	r4, r0
 8000208:	468c      	mov	ip, r1
 800020a:	2b00      	cmp	r3, #0
 800020c:	f040 8083 	bne.w	8000316 <__udivmoddi4+0x116>
 8000210:	428a      	cmp	r2, r1
 8000212:	4617      	mov	r7, r2
 8000214:	d947      	bls.n	80002a6 <__udivmoddi4+0xa6>
 8000216:	fab2 f282 	clz	r2, r2
 800021a:	b142      	cbz	r2, 800022e <__udivmoddi4+0x2e>
 800021c:	f1c2 0020 	rsb	r0, r2, #32
 8000220:	fa24 f000 	lsr.w	r0, r4, r0
 8000224:	4091      	lsls	r1, r2
 8000226:	4097      	lsls	r7, r2
 8000228:	ea40 0c01 	orr.w	ip, r0, r1
 800022c:	4094      	lsls	r4, r2
 800022e:	ea4f 4817 	mov.w	r8, r7, lsr #16
 8000232:	0c23      	lsrs	r3, r4, #16
 8000234:	fbbc f6f8 	udiv	r6, ip, r8
 8000238:	fa1f fe87 	uxth.w	lr, r7
 800023c:	fb08 c116 	mls	r1, r8, r6, ip
 8000240:	ea43 4301 	orr.w	r3, r3, r1, lsl #16
 8000244:	fb06 f10e 	mul.w	r1, r6, lr
 8000248:	4299      	cmp	r1, r3
 800024a:	d909      	bls.n	8000260 <__udivmoddi4+0x60>
 800024c:	18fb      	adds	r3, r7, r3
 800024e:	f106 30ff 	add.w	r0, r6, #4294967295
 8000252:	f080 8119 	bcs.w	8000488 <__udivmoddi4+0x288>
 8000256:	4299      	cmp	r1, r3
 8000258:	f240 8116 	bls.w	8000488 <__udivmoddi4+0x288>
 800025c:	3e02      	subs	r6, #2
 800025e:	443b      	add	r3, r7
 8000260:	1a5b      	subs	r3, r3, r1
 8000262:	b2a4      	uxth	r4, r4
 8000264:	fbb3 f0f8 	udiv	r0, r3, r8
 8000268:	fb08 3310 	mls	r3, r8, r0, r3
 800026c:	ea44 4403 	orr.w	r4, r4, r3, lsl #16
 8000270:	fb00 fe0e 	mul.w	lr, r0, lr
 8000274:	45a6      	cmp	lr, r4
 8000276:	d909      	bls.n	800028c <__udivmoddi4+0x8c>
 8000278:	193c      	adds	r4, r7, r4
 800027a:	f100 33ff 	add.w	r3, r0, #4294967295
 800027e:	f080 8105 	bcs.w	800048c <__udivmoddi4+0x28c>
 8000282:	45a6      	cmp	lr, r4
 8000284:	f240 8102 	bls.w	800048c <__udivmoddi4+0x28c>
 8000288:	3802      	subs	r0, #2
 800028a:	443c      	add	r4, r7
 800028c:	ea40 4006 	orr.w	r0, r0, r6, lsl #16
 8000290:	eba4 040e 	sub.w	r4, r4, lr
 8000294:	2600      	movs	r6, #0
 8000296:	b11d      	cbz	r5, 80002a0 <__udivmoddi4+0xa0>
 8000298:	40d4      	lsrs	r4, r2
 800029a:	2300      	movs	r3, #0
 800029c:	e9c5 4300 	strd	r4, r3, [r5]
 80002a0:	4631      	mov	r1, r6
 80002a2:	e8bd 87f0 	ldmia.w	sp!, {r4, r5, r6, r7, r8, r9, sl, pc}
 80002a6:	b902      	cbnz	r2, 80002aa <__udivmoddi4+0xaa>
 80002a8:	deff      	udf	#255	; 0xff
 80002aa:	fab2 f282 	clz	r2, r2
 80002ae:	2a00      	cmp	r2, #0
 80002b0:	d150      	bne.n	8000354 <__udivmoddi4+0x154>
 80002b2:	1bcb      	subs	r3, r1, r7
 80002b4:	ea4f 4e17 	mov.w	lr, r7, lsr #16
 80002b8:	fa1f f887 	uxth.w	r8, r7
 80002bc:	2601      	movs	r6, #1
 80002be:	fbb3 fcfe 	udiv	ip, r3, lr
 80002c2:	0c21      	lsrs	r1, r4, #16
 80002c4:	fb0e 331c 	mls	r3, lr, ip, r3
 80002c8:	ea41 4103 	orr.w	r1, r1, r3, lsl #16
 80002cc:	fb08 f30c 	mul.w	r3, r8, ip
 80002d0:	428b      	cmp	r3, r1
 80002d2:	d907      	bls.n	80002e4 <__udivmoddi4+0xe4>
 80002d4:	1879      	adds	r1, r7, r1
 80002d6:	f10c 30ff 	add.w	r0, ip, #4294967295
 80002da:	d202      	bcs.n	80002e2 <__udivmoddi4+0xe2>
 80002dc:	428b      	cmp	r3, r1
 80002de:	f200 80e9 	bhi.w	80004b4 <__udivmoddi4+0x2b4>
 80002e2:	4684      	mov	ip, r0
 80002e4:	1ac9      	subs	r1, r1, r3
 80002e6:	b2a3      	uxth	r3, r4
 80002e8:	fbb1 f0fe 	udiv	r0, r1, lr
 80002ec:	fb0e 1110 	mls	r1, lr, r0, r1
 80002f0:	ea43 4401 	orr.w	r4, r3, r1, lsl #16
 80002f4:	fb08 f800 	mul.w	r8, r8, r0
 80002f8:	45a0      	cmp	r8, r4
 80002fa:	d907      	bls.n	800030c <__udivmoddi4+0x10c>
 80002fc:	193c      	adds	r4, r7, r4
 80002fe:	f100 33ff 	add.w	r3, r0, #4294967295
 8000302:	d202      	bcs.n	800030a <__udivmoddi4+0x10a>
 8000304:	45a0      	cmp	r8, r4
 8000306:	f200 80d9 	bhi.w	80004bc <__udivmoddi4+0x2bc>
 800030a:	4618      	mov	r0, r3
 800030c:	eba4 0408 	sub.w	r4, r4, r8
 8000310:	ea40 400c 	orr.w	r0, r0, ip, lsl #16
 8000314:	e7bf      	b.n	8000296 <__udivmoddi4+0x96>
 8000316:	428b      	cmp	r3, r1
 8000318:	d909      	bls.n	800032e <__udivmoddi4+0x12e>
 800031a:	2d00      	cmp	r5, #0
 800031c:	f000 80b1 	beq.w	8000482 <__udivmoddi4+0x282>
 8000320:	2600      	movs	r6, #0
 8000322:	e9c5 0100 	strd	r0, r1, [r5]
 8000326:	4630      	mov	r0, r6
 8000328:	4631      	mov	r1, r6
 800032a:	e8bd 87f0 	ldmia.w	sp!, {r4, r5, r6, r7, r8, r9, sl, pc}
 800032e:	fab3 f683 	clz	r6, r3
 8000332:	2e00      	cmp	r6, #0
 8000334:	d14a      	bne.n	80003cc <__udivmoddi4+0x1cc>
 8000336:	428b      	cmp	r3, r1
 8000338:	d302      	bcc.n	8000340 <__udivmoddi4+0x140>
 800033a:	4282      	cmp	r2, r0
 800033c:	f200 80b8 	bhi.w	80004b0 <__udivmoddi4+0x2b0>
 8000340:	1a84      	subs	r4, r0, r2
 8000342:	eb61 0103 	sbc.w	r1, r1, r3
 8000346:	2001      	movs	r0, #1
 8000348:	468c      	mov	ip, r1
 800034a:	2d00      	cmp	r5, #0
 800034c:	d0a8      	beq.n	80002a0 <__udivmoddi4+0xa0>
 800034e:	e9c5 4c00 	strd	r4, ip, [r5]
 8000352:	e7a5      	b.n	80002a0 <__udivmoddi4+0xa0>
 8000354:	f1c2 0320 	rsb	r3, r2, #32
 8000358:	fa20 f603 	lsr.w	r6, r0, r3
 800035c:	4097      	lsls	r7, r2
 800035e:	fa01 f002 	lsl.w	r0, r1, r2
 8000362:	ea4f 4e17 	mov.w	lr, r7, lsr #16
 8000366:	40d9      	lsrs	r1, r3
 8000368:	4330      	orrs	r0, r6
 800036a:	0c03      	lsrs	r3, r0, #16
 800036c:	fbb1 f6fe 	udiv	r6, r1, lr
 8000370:	fa1f f887 	uxth.w	r8, r7
 8000374:	fb0e 1116 	mls	r1, lr, r6, r1
 8000378:	ea43 4301 	orr.w	r3, r3, r1, lsl #16
 800037c:	fb06 f108 	mul.w	r1, r6, r8
 8000380:	4299      	cmp	r1, r3
 8000382:	fa04 f402 	lsl.w	r4, r4, r2
 8000386:	d909      	bls.n	800039c <__udivmoddi4+0x19c>
 8000388:	18fb      	adds	r3, r7, r3
 800038a:	f106 3cff 	add.w	ip, r6, #4294967295
 800038e:	f080 808d 	bcs.w	80004ac <__udivmoddi4+0x2ac>
 8000392:	4299      	cmp	r1, r3
 8000394:	f240 808a 	bls.w	80004ac <__udivmoddi4+0x2ac>
 8000398:	3e02      	subs	r6, #2
 800039a:	443b      	add	r3, r7
 800039c:	1a5b      	subs	r3, r3, r1
 800039e:	b281      	uxth	r1, r0
 80003a0:	fbb3 f0fe 	udiv	r0, r3, lr
 80003a4:	fb0e 3310 	mls	r3, lr, r0, r3
 80003a8:	ea41 4103 	orr.w	r1, r1, r3, lsl #16
 80003ac:	fb00 f308 	mul.w	r3, r0, r8
 80003b0:	428b      	cmp	r3, r1
 80003b2:	d907      	bls.n	80003c4 <__udivmoddi4+0x1c4>
 80003b4:	1879      	adds	r1, r7, r1
 80003b6:	f100 3cff 	add.w	ip, r0, #4294967295
 80003ba:	d273      	bcs.n	80004a4 <__udivmoddi4+0x2a4>
 80003bc:	428b      	cmp	r3, r1
 80003be:	d971      	bls.n	80004a4 <__udivmoddi4+0x2a4>
 80003c0:	3802      	subs	r0, #2
 80003c2:	4439      	add	r1, r7
 80003c4:	1acb      	subs	r3, r1, r3
 80003c6:	ea40 4606 	orr.w	r6, r0, r6, lsl #16
 80003ca:	e778      	b.n	80002be <__udivmoddi4+0xbe>
 80003cc:	f1c6 0c20 	rsb	ip, r6, #32
 80003d0:	fa03 f406 	lsl.w	r4, r3, r6
 80003d4:	fa22 f30c 	lsr.w	r3, r2, ip
 80003d8:	431c      	orrs	r4, r3
 80003da:	fa20 f70c 	lsr.w	r7, r0, ip
 80003de:	fa01 f306 	lsl.w	r3, r1, r6
 80003e2:	ea4f 4e14 	mov.w	lr, r4, lsr #16
 80003e6:	fa21 f10c 	lsr.w	r1, r1, ip
 80003ea:	431f      	orrs	r7, r3
 80003ec:	0c3b      	lsrs	r3, r7, #16
 80003ee:	fbb1 f9fe 	udiv	r9, r1, lr
 80003f2:	fa1f f884 	uxth.w	r8, r4
 80003f6:	fb0e 1119 	mls	r1, lr, r9, r1
 80003fa:	ea43 4101 	orr.w	r1, r3, r1, lsl #16
 80003fe:	fb09 fa08 	mul.w	sl, r9, r8
 8000402:	458a      	cmp	sl, r1
 8000404:	fa02 f206 	lsl.w	r2, r2, r6
 8000408:	fa00 f306 	lsl.w	r3, r0, r6
 800040c:	d908      	bls.n	8000420 <__udivmoddi4+0x220>
 800040e:	1861      	adds	r1, r4, r1
 8000410:	f109 30ff 	add.w	r0, r9, #4294967295
 8000414:	d248      	bcs.n	80004a8 <__udivmoddi4+0x2a8>
 8000416:	458a      	cmp	sl, r1
 8000418:	d946      	bls.n	80004a8 <__udivmoddi4+0x2a8>
 800041a:	f1a9 0902 	sub.w	r9, r9, #2
 800041e:	4421      	add	r1, r4
 8000420:	eba1 010a 	sub.w	r1, r1, sl
 8000424:	b2bf      	uxth	r7, r7
 8000426:	fbb1 f0fe 	udiv	r0, r1, lr
 800042a:	fb0e 1110 	mls	r1, lr, r0, r1
 800042e:	ea47 4701 	orr.w	r7, r7, r1, lsl #16
 8000432:	fb00 f808 	mul.w	r8, r0, r8
 8000436:	45b8      	cmp	r8, r7
 8000438:	d907      	bls.n	800044a <__udivmoddi4+0x24a>
 800043a:	19e7      	adds	r7, r4, r7
 800043c:	f100 31ff 	add.w	r1, r0, #4294967295
 8000440:	d22e      	bcs.n	80004a0 <__udivmoddi4+0x2a0>
 8000442:	45b8      	cmp	r8, r7
 8000444:	d92c      	bls.n	80004a0 <__udivmoddi4+0x2a0>
 8000446:	3802      	subs	r0, #2
 8000448:	4427      	add	r7, r4
 800044a:	ea40 4009 	orr.w	r0, r0, r9, lsl #16
 800044e:	eba7 0708 	sub.w	r7, r7, r8
 8000452:	fba0 8902 	umull	r8, r9, r0, r2
 8000456:	454f      	cmp	r7, r9
 8000458:	46c6      	mov	lr, r8
 800045a:	4649      	mov	r1, r9
 800045c:	d31a      	bcc.n	8000494 <__udivmoddi4+0x294>
 800045e:	d017      	beq.n	8000490 <__udivmoddi4+0x290>
 8000460:	b15d      	cbz	r5, 800047a <__udivmoddi4+0x27a>
 8000462:	ebb3 020e 	subs.w	r2, r3, lr
 8000466:	eb67 0701 	sbc.w	r7, r7, r1
 800046a:	fa07 fc0c 	lsl.w	ip, r7, ip
 800046e:	40f2      	lsrs	r2, r6
 8000470:	ea4c 0202 	orr.w	r2, ip, r2
 8000474:	40f7      	lsrs	r7, r6
 8000476:	e9c5 2700 	strd	r2, r7, [r5]
 800047a:	2600      	movs	r6, #0
 800047c:	4631      	mov	r1, r6
 800047e:	e8bd 87f0 	ldmia.w	sp!, {r4, r5, r6, r7, r8, r9, sl, pc}
 8000482:	462e      	mov	r6, r5
 8000484:	4628      	mov	r0, r5
 8000486:	e70b      	b.n	80002a0 <__udivmoddi4+0xa0>
 8000488:	4606      	mov	r6, r0
 800048a:	e6e9      	b.n	8000260 <__udivmoddi4+0x60>
 800048c:	4618      	mov	r0, r3
 800048e:	e6fd      	b.n	800028c <__udivmoddi4+0x8c>
 8000490:	4543      	cmp	r3, r8
 8000492:	d2e5      	bcs.n	8000460 <__udivmoddi4+0x260>
 8000494:	ebb8 0e02 	subs.w	lr, r8, r2
 8000498:	eb69 0104 	sbc.w	r1, r9, r4
 800049c:	3801      	subs	r0, #1
 800049e:	e7df      	b.n	8000460 <__udivmoddi4+0x260>
 80004a0:	4608      	mov	r0, r1
 80004a2:	e7d2      	b.n	800044a <__udivmoddi4+0x24a>
 80004a4:	4660      	mov	r0, ip
 80004a6:	e78d      	b.n	80003c4 <__udivmoddi4+0x1c4>
 80004a8:	4681      	mov	r9, r0
 80004aa:	e7b9      	b.n	8000420 <__udivmoddi4+0x220>
 80004ac:	4666      	mov	r6, ip
 80004ae:	e775      	b.n	800039c <__udivmoddi4+0x19c>
 80004b0:	4630      	mov	r0, r6
 80004b2:	e74a      	b.n	800034a <__udivmoddi4+0x14a>
 80004b4:	f1ac 0c02 	sub.w	ip, ip, #2
 80004b8:	4439      	add	r1, r7
 80004ba:	e713      	b.n	80002e4 <__udivmoddi4+0xe4>
 80004bc:	3802      	subs	r0, #2
 80004be:	443c      	add	r4, r7
 80004c0:	e724      	b.n	800030c <__udivmoddi4+0x10c>
 80004c2:	bf00      	nop

080004c4 <__aeabi_idiv0>:
 80004c4:	4770      	bx	lr
 80004c6:	bf00      	nop

080004c8 <vApplicationGetIdleTaskMemory>:
/* USER CODE BEGIN GET_IDLE_TASK_MEMORY */
static StaticTask_t xIdleTaskTCBBuffer;
static StackType_t xIdleStack[configMINIMAL_STACK_SIZE];

void vApplicationGetIdleTaskMemory(StaticTask_t **ppxIdleTaskTCBBuffer,
		StackType_t **ppxIdleTaskStackBuffer, uint32_t *pulIdleTaskStackSize) {
 80004c8:	b480      	push	{r7}
 80004ca:	b085      	sub	sp, #20
 80004cc:	af00      	add	r7, sp, #0
 80004ce:	60f8      	str	r0, [r7, #12]
 80004d0:	60b9      	str	r1, [r7, #8]
 80004d2:	607a      	str	r2, [r7, #4]
	*ppxIdleTaskTCBBuffer = &xIdleTaskTCBBuffer;
 80004d4:	68fb      	ldr	r3, [r7, #12]
 80004d6:	4a07      	ldr	r2, [pc, #28]	; (80004f4 <vApplicationGetIdleTaskMemory+0x2c>)
 80004d8:	601a      	str	r2, [r3, #0]
	*ppxIdleTaskStackBuffer = &xIdleStack[0];
 80004da:	68bb      	ldr	r3, [r7, #8]
 80004dc:	4a06      	ldr	r2, [pc, #24]	; (80004f8 <vApplicationGetIdleTaskMemory+0x30>)
 80004de:	601a      	str	r2, [r3, #0]
	*pulIdleTaskStackSize = configMINIMAL_STACK_SIZE;
 80004e0:	687b      	ldr	r3, [r7, #4]
 80004e2:	2280      	movs	r2, #128	; 0x80
 80004e4:	601a      	str	r2, [r3, #0]
	/* place for user code */
}
 80004e6:	bf00      	nop
 80004e8:	3714      	adds	r7, #20
 80004ea:	46bd      	mov	sp, r7
 80004ec:	f85d 7b04 	ldr.w	r7, [sp], #4
 80004f0:	4770      	bx	lr
 80004f2:	bf00      	nop
 80004f4:	200002d4 	.word	0x200002d4
 80004f8:	20000388 	.word	0x20000388

080004fc <MX_FREERTOS_Init>:
/**
  * @brief  FreeRTOS initialization
  * @param  None
  * @retval None
  */
void MX_FREERTOS_Init(void) {
 80004fc:	b5b0      	push	{r4, r5, r7, lr}
 80004fe:	b096      	sub	sp, #88	; 0x58
 8000500:	af00      	add	r7, sp, #0
	/* add queues, ... */
  /* USER CODE END RTOS_QUEUES */

  /* Create the thread(s) */
  /* definition and creation of testTask */
  osThreadDef(testTask, TestTask, osPriorityNormal, 0, 256);
 8000502:	4b1d      	ldr	r3, [pc, #116]	; (8000578 <MX_FREERTOS_Init+0x7c>)
 8000504:	f107 043c 	add.w	r4, r7, #60	; 0x3c
 8000508:	461d      	mov	r5, r3
 800050a:	cd0f      	ldmia	r5!, {r0, r1, r2, r3}
 800050c:	c40f      	stmia	r4!, {r0, r1, r2, r3}
 800050e:	e895 0007 	ldmia.w	r5, {r0, r1, r2}
 8000512:	e884 0007 	stmia.w	r4, {r0, r1, r2}
  testTaskHandle = osThreadCreate(osThread(testTask), NULL);
 8000516:	f107 033c 	add.w	r3, r7, #60	; 0x3c
 800051a:	2100      	movs	r1, #0
 800051c:	4618      	mov	r0, r3
 800051e:	f006 fa3a 	bl	8006996 <osThreadCreate>
 8000522:	4603      	mov	r3, r0
 8000524:	4a15      	ldr	r2, [pc, #84]	; (800057c <MX_FREERTOS_Init+0x80>)
 8000526:	6013      	str	r3, [r2, #0]

  /* definition and creation of lcdTask */
  osThreadDef(lcdTask, LCDTask, osPriorityNormal, 0, 256);
 8000528:	4b15      	ldr	r3, [pc, #84]	; (8000580 <MX_FREERTOS_Init+0x84>)
 800052a:	f107 0420 	add.w	r4, r7, #32
 800052e:	461d      	mov	r5, r3
 8000530:	cd0f      	ldmia	r5!, {r0, r1, r2, r3}
 8000532:	c40f      	stmia	r4!, {r0, r1, r2, r3}
 8000534:	e895 0007 	ldmia.w	r5, {r0, r1, r2}
 8000538:	e884 0007 	stmia.w	r4, {r0, r1, r2}
  lcdTaskHandle = osThreadCreate(osThread(lcdTask), NULL);
 800053c:	f107 0320 	add.w	r3, r7, #32
 8000540:	2100      	movs	r1, #0
 8000542:	4618      	mov	r0, r3
 8000544:	f006 fa27 	bl	8006996 <osThreadCreate>
 8000548:	4603      	mov	r3, r0
 800054a:	4a0e      	ldr	r2, [pc, #56]	; (8000584 <MX_FREERTOS_Init+0x88>)
 800054c:	6013      	str	r3, [r2, #0]

  /* definition and creation of I2C_Task */
  osThreadDef(I2C_Task, i2c_Task, osPriorityNormal, 0, 128);
 800054e:	4b0e      	ldr	r3, [pc, #56]	; (8000588 <MX_FREERTOS_Init+0x8c>)
 8000550:	1d3c      	adds	r4, r7, #4
 8000552:	461d      	mov	r5, r3
 8000554:	cd0f      	ldmia	r5!, {r0, r1, r2, r3}
 8000556:	c40f      	stmia	r4!, {r0, r1, r2, r3}
 8000558:	e895 0007 	ldmia.w	r5, {r0, r1, r2}
 800055c:	e884 0007 	stmia.w	r4, {r0, r1, r2}
  I2C_TaskHandle = osThreadCreate(osThread(I2C_Task), NULL);
 8000560:	1d3b      	adds	r3, r7, #4
 8000562:	2100      	movs	r1, #0
 8000564:	4618      	mov	r0, r3
 8000566:	f006 fa16 	bl	8006996 <osThreadCreate>
 800056a:	4603      	mov	r3, r0
 800056c:	4a07      	ldr	r2, [pc, #28]	; (800058c <MX_FREERTOS_Init+0x90>)
 800056e:	6013      	str	r3, [r2, #0]

  /* USER CODE BEGIN RTOS_THREADS */
	/* add threads, ... */
  /* USER CODE END RTOS_THREADS */

}
 8000570:	bf00      	nop
 8000572:	3758      	adds	r7, #88	; 0x58
 8000574:	46bd      	mov	sp, r7
 8000576:	bdb0      	pop	{r4, r5, r7, pc}
 8000578:	0800806c 	.word	0x0800806c
 800057c:	200042f8 	.word	0x200042f8
 8000580:	08008088 	.word	0x08008088
 8000584:	200042f0 	.word	0x200042f0
 8000588:	080080a4 	.word	0x080080a4
 800058c:	200042e8 	.word	0x200042e8

08000590 <TestTask>:
 * @param  argument: Not used
 * @retval None
 */
/* USER CODE END Header_TestTask */
void TestTask(void const * argument)
{
 8000590:	b580      	push	{r7, lr}
 8000592:	b086      	sub	sp, #24
 8000594:	af00      	add	r7, sp, #0
 8000596:	6078      	str	r0, [r7, #4]
  /* USER CODE BEGIN TestTask */

	uint32_t timeOutUART = 50;
 8000598:	2332      	movs	r3, #50	; 0x32
 800059a:	617b      	str	r3, [r7, #20]

	//команды uart
	uint8_t cmdASIC[7] = { 0x55, 0xAA, 0x52, 0x05, 0x00, 0x00, 0x0A };
 800059c:	4a3f      	ldr	r2, [pc, #252]	; (800069c <TestTask+0x10c>)
 800059e:	f107 030c 	add.w	r3, r7, #12
 80005a2:	e892 0003 	ldmia.w	r2, {r0, r1}
 80005a6:	6018      	str	r0, [r3, #0]
 80005a8:	3304      	adds	r3, #4
 80005aa:	8019      	strh	r1, [r3, #0]
 80005ac:	3302      	adds	r3, #2
 80005ae:	0c0a      	lsrs	r2, r1, #16
 80005b0:	701a      	strb	r2, [r3, #0]

	HAL_GPIO_WritePin(RST_ASIC_GPIO_Port, RST_ASIC_Pin, GPIO_PIN_RESET);
 80005b2:	2200      	movs	r2, #0
 80005b4:	f44f 6100 	mov.w	r1, #2048	; 0x800
 80005b8:	4839      	ldr	r0, [pc, #228]	; (80006a0 <TestTask+0x110>)
 80005ba:	f001 fbff 	bl	8001dbc <HAL_GPIO_WritePin>


	/* Infinite loop */
	for (;;) {
		if (start && ready) {
 80005be:	4b39      	ldr	r3, [pc, #228]	; (80006a4 <TestTask+0x114>)
 80005c0:	781b      	ldrb	r3, [r3, #0]
 80005c2:	2b00      	cmp	r3, #0
 80005c4:	d0fb      	beq.n	80005be <TestTask+0x2e>
 80005c6:	4b38      	ldr	r3, [pc, #224]	; (80006a8 <TestTask+0x118>)
 80005c8:	781b      	ldrb	r3, [r3, #0]
 80005ca:	2b00      	cmp	r3, #0
 80005cc:	d0f7      	beq.n	80005be <TestTask+0x2e>
			counter_bytes = 0;
 80005ce:	4b37      	ldr	r3, [pc, #220]	; (80006ac <TestTask+0x11c>)
 80005d0:	2200      	movs	r2, #0
 80005d2:	601a      	str	r2, [r3, #0]
			HAL_GPIO_WritePin(RST_ASIC_GPIO_Port, RST_ASIC_Pin, GPIO_PIN_RESET);
 80005d4:	2200      	movs	r2, #0
 80005d6:	f44f 6100 	mov.w	r1, #2048	; 0x800
 80005da:	4831      	ldr	r0, [pc, #196]	; (80006a0 <TestTask+0x110>)
 80005dc:	f001 fbee 	bl	8001dbc <HAL_GPIO_WritePin>
			osDelay(4);
 80005e0:	2004      	movs	r0, #4
 80005e2:	f006 fa24 	bl	8006a2e <osDelay>
			HAL_GPIO_WritePin(RST_ASIC_GPIO_Port, RST_ASIC_Pin, GPIO_PIN_SET);
 80005e6:	2201      	movs	r2, #1
 80005e8:	f44f 6100 	mov.w	r1, #2048	; 0x800
 80005ec:	482c      	ldr	r0, [pc, #176]	; (80006a0 <TestTask+0x110>)
 80005ee:	f001 fbe5 	bl	8001dbc <HAL_GPIO_WritePin>
			osDelay(1200);
 80005f2:	f44f 6096 	mov.w	r0, #1200	; 0x4b0
 80005f6:	f006 fa1a 	bl	8006a2e <osDelay>

			//цикл опроса
			while (!start) {
 80005fa:	e04a      	b.n	8000692 <TestTask+0x102>

				//сброс асиков
				HAL_GPIO_WritePin(RST_ASIC_GPIO_Port, RST_ASIC_Pin, GPIO_PIN_RESET);
 80005fc:	2200      	movs	r2, #0
 80005fe:	f44f 6100 	mov.w	r1, #2048	; 0x800
 8000602:	4827      	ldr	r0, [pc, #156]	; (80006a0 <TestTask+0x110>)
 8000604:	f001 fbda 	bl	8001dbc <HAL_GPIO_WritePin>
				osDelay(500);
 8000608:	f44f 70fa 	mov.w	r0, #500	; 0x1f4
 800060c:	f006 fa0f 	bl	8006a2e <osDelay>
				HAL_GPIO_WritePin(RST_ASIC_GPIO_Port, RST_ASIC_Pin, GPIO_PIN_SET);
 8000610:	2201      	movs	r2, #1
 8000612:	f44f 6100 	mov.w	r1, #2048	; 0x800
 8000616:	4822      	ldr	r0, [pc, #136]	; (80006a0 <TestTask+0x110>)
 8000618:	f001 fbd0 	bl	8001dbc <HAL_GPIO_WritePin>
				osDelay(500);
 800061c:	f44f 70fa 	mov.w	r0, #500	; 0x1f4
 8000620:	f006 fa05 	bl	8006a2e <osDelay>

				status_uart = HAL_UART_Receive_IT(&huart6, readASIC, 1);
 8000624:	2201      	movs	r2, #1
 8000626:	4922      	ldr	r1, [pc, #136]	; (80006b0 <TestTask+0x120>)
 8000628:	4822      	ldr	r0, [pc, #136]	; (80006b4 <TestTask+0x124>)
 800062a:	f005 fa0a 	bl	8005a42 <HAL_UART_Receive_IT>
 800062e:	4603      	mov	r3, r0
 8000630:	461a      	mov	r2, r3
 8000632:	4b21      	ldr	r3, [pc, #132]	; (80006b8 <TestTask+0x128>)
 8000634:	701a      	strb	r2, [r3, #0]
				status_uart = HAL_UART_Transmit(&huart1, cmdASIC, 7, 20);
 8000636:	f107 010c 	add.w	r1, r7, #12
 800063a:	2314      	movs	r3, #20
 800063c:	2207      	movs	r2, #7
 800063e:	481f      	ldr	r0, [pc, #124]	; (80006bc <TestTask+0x12c>)
 8000640:	f005 f96d 	bl	800591e <HAL_UART_Transmit>
 8000644:	4603      	mov	r3, r0
 8000646:	461a      	mov	r2, r3
 8000648:	4b1b      	ldr	r3, [pc, #108]	; (80006b8 <TestTask+0x128>)
 800064a:	701a      	strb	r2, [r3, #0]

				//запускаем таймер
				status_uartTIM = 1;
 800064c:	4b1c      	ldr	r3, [pc, #112]	; (80006c0 <TestTask+0x130>)
 800064e:	2201      	movs	r2, #1
 8000650:	701a      	strb	r2, [r3, #0]
				// ожидать таймаута по уарту
				while(uartTIM < timeOutUART){
 8000652:	e002      	b.n	800065a <TestTask+0xca>
					osDelay(1);
 8000654:	2001      	movs	r0, #1
 8000656:	f006 f9ea 	bl	8006a2e <osDelay>
				while(uartTIM < timeOutUART){
 800065a:	4b1a      	ldr	r3, [pc, #104]	; (80006c4 <TestTask+0x134>)
 800065c:	681b      	ldr	r3, [r3, #0]
 800065e:	697a      	ldr	r2, [r7, #20]
 8000660:	429a      	cmp	r2, r3
 8000662:	d8f7      	bhi.n	8000654 <TestTask+0xc4>
				}
				// все данные пришли отключаем уарт
				HAL_UART_AbortReceive(&huart6);
 8000664:	4813      	ldr	r0, [pc, #76]	; (80006b4 <TestTask+0x124>)
 8000666:	f005 fa1c 	bl	8005aa2 <HAL_UART_AbortReceive>

				//проверить пришедшие данные сравненией с шаблоном

				//посчитать количесво асиков
				pre_count_ASIC = counter_bytes / 9;
 800066a:	4b10      	ldr	r3, [pc, #64]	; (80006ac <TestTask+0x11c>)
 800066c:	681b      	ldr	r3, [r3, #0]
 800066e:	4a16      	ldr	r2, [pc, #88]	; (80006c8 <TestTask+0x138>)
 8000670:	fba2 2303 	umull	r2, r3, r2, r3
 8000674:	085b      	lsrs	r3, r3, #1
 8000676:	4a15      	ldr	r2, [pc, #84]	; (80006cc <TestTask+0x13c>)
 8000678:	6013      	str	r3, [r2, #0]
				counter_bytes = 0;
 800067a:	4b0c      	ldr	r3, [pc, #48]	; (80006ac <TestTask+0x11c>)
 800067c:	2200      	movs	r2, #0
 800067e:	601a      	str	r2, [r3, #0]
				memset(readASIC, 0, sizeof readASIC);
 8000680:	f44f 7207 	mov.w	r2, #540	; 0x21c
 8000684:	2100      	movs	r1, #0
 8000686:	480a      	ldr	r0, [pc, #40]	; (80006b0 <TestTask+0x120>)
 8000688:	f007 fc06 	bl	8007e98 <memset>

				osDelay(200);
 800068c:	20c8      	movs	r0, #200	; 0xc8
 800068e:	f006 f9ce 	bl	8006a2e <osDelay>
			while (!start) {
 8000692:	4b04      	ldr	r3, [pc, #16]	; (80006a4 <TestTask+0x114>)
 8000694:	781b      	ldrb	r3, [r3, #0]
 8000696:	2b00      	cmp	r3, #0
 8000698:	d0b0      	beq.n	80005fc <TestTask+0x6c>
		if (start && ready) {
 800069a:	e790      	b.n	80005be <TestTask+0x2e>
 800069c:	080080c0 	.word	0x080080c0
 80006a0:	40020000 	.word	0x40020000
 80006a4:	200002d0 	.word	0x200002d0
 80006a8:	200002d1 	.word	0x200002d1
 80006ac:	200000b0 	.word	0x200000b0
 80006b0:	200000b4 	.word	0x200000b4
 80006b4:	20004430 	.word	0x20004430
 80006b8:	200042ec 	.word	0x200042ec
 80006bc:	200043ec 	.word	0x200043ec
 80006c0:	2000058c 	.word	0x2000058c
 80006c4:	20000588 	.word	0x20000588
 80006c8:	38e38e39 	.word	0x38e38e39
 80006cc:	200000ac 	.word	0x200000ac

080006d0 <LCDTask>:
 * @param argument: Not used
 * @retval None
 */
/* USER CODE END Header_LCDTask */
void LCDTask(void const * argument)
{
 80006d0:	b590      	push	{r4, r7, lr}
 80006d2:	b087      	sub	sp, #28
 80006d4:	af00      	add	r7, sp, #0
 80006d6:	6078      	str	r0, [r7, #4]
  /* USER CODE BEGIN LCDTask */

	uint8_t A[]="hello world !!";
 80006d8:	4b0c      	ldr	r3, [pc, #48]	; (800070c <LCDTask+0x3c>)
 80006da:	f107 0408 	add.w	r4, r7, #8
 80006de:	cb0f      	ldmia	r3, {r0, r1, r2, r3}
 80006e0:	c407      	stmia	r4!, {r0, r1, r2}
 80006e2:	8023      	strh	r3, [r4, #0]
 80006e4:	3402      	adds	r4, #2
 80006e6:	0c1b      	lsrs	r3, r3, #16
 80006e8:	7023      	strb	r3, [r4, #0]
	//Инициализировать oled-экран
  OLED_Init();
 80006ea:	f000 fcc7 	bl	800107c <OLED_Init>
	//Включите OLED-дисплей
	OLED_Display_On();
 80006ee:	f000 fcf8 	bl	80010e2 <OLED_Display_On>
	//Очисти экран
	OLED_Clear();
 80006f2:	f000 fccc 	bl	800108e <OLED_Clear>
//	OLED_ShowNum(10,10,10,8,8);
//	OLED_ShowChar(0, 0,'C',16);
	OLED_ShowString(0,0,A,sizeof(A));
 80006f6:	f107 0208 	add.w	r2, r7, #8
 80006fa:	230f      	movs	r3, #15
 80006fc:	2100      	movs	r1, #0
 80006fe:	2000      	movs	r0, #0
 8000700:	f000 fd98 	bl	8001234 <OLED_ShowString>

/* Infinite loop */
for (;;) {


	osDelay(1);
 8000704:	2001      	movs	r0, #1
 8000706:	f006 f992 	bl	8006a2e <osDelay>
 800070a:	e7fb      	b.n	8000704 <LCDTask+0x34>
 800070c:	080080c8 	.word	0x080080c8

08000710 <i2c_Task>:
* @param argument: Not used
* @retval None
*/
/* USER CODE END Header_i2c_Task */
void i2c_Task(void const * argument)
{
 8000710:	b580      	push	{r7, lr}
 8000712:	b09a      	sub	sp, #104	; 0x68
 8000714:	af02      	add	r7, sp, #8
 8000716:	6078      	str	r0, [r7, #4]
  /* USER CODE BEGIN i2c_Task */

	//команды i2c
	uint16_t addr = 0x20;
 8000718:	2320      	movs	r3, #32
 800071a:	f8a7 305e 	strh.w	r3, [r7, #94]	; 0x5e
	addr = addr<<1;
 800071e:	f8b7 305e 	ldrh.w	r3, [r7, #94]	; 0x5e
 8000722:	005b      	lsls	r3, r3, #1
 8000724:	f8a7 305e 	strh.w	r3, [r7, #94]	; 0x5e

	GPIO_PinState plug = 0;
 8000728:	2300      	movs	r3, #0
 800072a:	f887 305d 	strb.w	r3, [r7, #93]	; 0x5d

	uint8_t cmdStart_1[6] = { 0x55, 0xAA, 0x04, 0x07, 0x00, 0x0B };
 800072e:	4aa8      	ldr	r2, [pc, #672]	; (80009d0 <i2c_Task+0x2c0>)
 8000730:	f107 0354 	add.w	r3, r7, #84	; 0x54
 8000734:	e892 0003 	ldmia.w	r2, {r0, r1}
 8000738:	6018      	str	r0, [r3, #0]
 800073a:	3304      	adds	r3, #4
 800073c:	8019      	strh	r1, [r3, #0]
	uint8_t cmdRead_1[2] = { 0x00 };// 0x07 0x01
 800073e:	2300      	movs	r3, #0
 8000740:	f8a7 3050 	strh.w	r3, [r7, #80]	; 0x50

	uint8_t cmdStart_2[6] = { 0x55, 0xAA, 0x04, 0x06, 0x00, 0x0A };
 8000744:	4aa3      	ldr	r2, [pc, #652]	; (80009d4 <i2c_Task+0x2c4>)
 8000746:	f107 0348 	add.w	r3, r7, #72	; 0x48
 800074a:	e892 0003 	ldmia.w	r2, {r0, r1}
 800074e:	6018      	str	r0, [r3, #0]
 8000750:	3304      	adds	r3, #4
 8000752:	8019      	strh	r1, [r3, #0]
	uint8_t cmdRead_2[2] = { 0x00 };// 0x06 0x01
 8000754:	2300      	movs	r3, #0
 8000756:	f8a7 3044 	strh.w	r3, [r7, #68]	; 0x44

	uint8_t cmdStart_3[9] = { 0x55, 0xAA, 0x07, 0x10, 0x19, 0x00, 0x00, 0x00, 0x30 };
 800075a:	4a9f      	ldr	r2, [pc, #636]	; (80009d8 <i2c_Task+0x2c8>)
 800075c:	f107 0338 	add.w	r3, r7, #56	; 0x38
 8000760:	ca07      	ldmia	r2, {r0, r1, r2}
 8000762:	c303      	stmia	r3!, {r0, r1}
 8000764:	701a      	strb	r2, [r3, #0]
	uint8_t cmdRead_3[2] = { 0x00 };// 0x10 0x01
 8000766:	2300      	movs	r3, #0
 8000768:	86bb      	strh	r3, [r7, #52]	; 0x34

	uint8_t cmdStart_4[7] = { 0x55, 0xAA, 0x05, 0x15, 0x01, 0x00, 0x1B };
 800076a:	4a9c      	ldr	r2, [pc, #624]	; (80009dc <i2c_Task+0x2cc>)
 800076c:	f107 032c 	add.w	r3, r7, #44	; 0x2c
 8000770:	e892 0003 	ldmia.w	r2, {r0, r1}
 8000774:	6018      	str	r0, [r3, #0]
 8000776:	3304      	adds	r3, #4
 8000778:	8019      	strh	r1, [r3, #0]
 800077a:	3302      	adds	r3, #2
 800077c:	0c0a      	lsrs	r2, r1, #16
 800077e:	701a      	strb	r2, [r3, #0]
	uint8_t cmdRead_4[2] = { 0x00 };// 0x15 0x01
 8000780:	2300      	movs	r3, #0
 8000782:	853b      	strh	r3, [r7, #40]	; 0x28

	uint8_t cmdStop[7] = { 0x55, 0xAA, 0x05, 0x15, 0x00, 0x00, 0x1A };
 8000784:	4a96      	ldr	r2, [pc, #600]	; (80009e0 <i2c_Task+0x2d0>)
 8000786:	f107 0320 	add.w	r3, r7, #32
 800078a:	e892 0003 	ldmia.w	r2, {r0, r1}
 800078e:	6018      	str	r0, [r3, #0]
 8000790:	3304      	adds	r3, #4
 8000792:	8019      	strh	r1, [r3, #0]
 8000794:	3302      	adds	r3, #2
 8000796:	0c0a      	lsrs	r2, r1, #16
 8000798:	701a      	strb	r2, [r3, #0]
	uint8_t cmdRead_stop[2] = { 0x00 };// 0x15 0x01
 800079a:	2300      	movs	r3, #0
 800079c:	83bb      	strh	r3, [r7, #28]

	uint8_t cmdRefresh[6] = { 0x55, 0xAA, 0x04, 0x16, 0x00, 0x1A };
 800079e:	4a91      	ldr	r2, [pc, #580]	; (80009e4 <i2c_Task+0x2d4>)
 80007a0:	f107 0314 	add.w	r3, r7, #20
 80007a4:	e892 0003 	ldmia.w	r2, {r0, r1}
 80007a8:	6018      	str	r0, [r3, #0]
 80007aa:	3304      	adds	r3, #4
 80007ac:	8019      	strh	r1, [r3, #0]
	uint8_t cmdRead_Refresh[6] = { 0x00 };// 0x06 0x16 0x01 0x00 0x00 0x1D
 80007ae:	2300      	movs	r3, #0
 80007b0:	60fb      	str	r3, [r7, #12]
 80007b2:	2300      	movs	r3, #0
 80007b4:	823b      	strh	r3, [r7, #16]


	HAL_GPIO_WritePin(A0_GPIO_Port, A0_Pin, GPIO_PIN_RESET);
 80007b6:	2200      	movs	r2, #0
 80007b8:	2102      	movs	r1, #2
 80007ba:	488b      	ldr	r0, [pc, #556]	; (80009e8 <i2c_Task+0x2d8>)
 80007bc:	f001 fafe 	bl	8001dbc <HAL_GPIO_WritePin>
	HAL_GPIO_WritePin(A1_GPIO_Port, A1_Pin, GPIO_PIN_RESET);
 80007c0:	2200      	movs	r2, #0
 80007c2:	2101      	movs	r1, #1
 80007c4:	4888      	ldr	r0, [pc, #544]	; (80009e8 <i2c_Task+0x2d8>)
 80007c6:	f001 faf9 	bl	8001dbc <HAL_GPIO_WritePin>
	HAL_GPIO_WritePin(A2_GPIO_Port, A2_Pin, GPIO_PIN_RESET);
 80007ca:	2200      	movs	r2, #0
 80007cc:	2104      	movs	r1, #4
 80007ce:	4886      	ldr	r0, [pc, #536]	; (80009e8 <i2c_Task+0x2d8>)
 80007d0:	f001 faf4 	bl	8001dbc <HAL_GPIO_WritePin>


	plug = HAL_GPIO_ReadPin(PLUG_GPIO_Port, PLUG_Pin);
 80007d4:	f44f 5180 	mov.w	r1, #4096	; 0x1000
 80007d8:	4884      	ldr	r0, [pc, #528]	; (80009ec <i2c_Task+0x2dc>)
 80007da:	f001 fad7 	bl	8001d8c <HAL_GPIO_ReadPin>
 80007de:	4603      	mov	r3, r0
 80007e0:	f887 305d 	strb.w	r3, [r7, #93]	; 0x5d

  /* Infinite loop */
  for(;;)
  {

	  if (start && plug) {
 80007e4:	4b82      	ldr	r3, [pc, #520]	; (80009f0 <i2c_Task+0x2e0>)
 80007e6:	781b      	ldrb	r3, [r3, #0]
 80007e8:	2b00      	cmp	r3, #0
 80007ea:	d0fb      	beq.n	80007e4 <i2c_Task+0xd4>
 80007ec:	f897 305d 	ldrb.w	r3, [r7, #93]	; 0x5d
 80007f0:	2b00      	cmp	r3, #0
 80007f2:	d0f7      	beq.n	80007e4 <i2c_Task+0xd4>
					status_i2c = HAL_I2C_Master_Transmit(&hi2c1, addr, cmdStart_1, 6, 20);
 80007f4:	f107 0254 	add.w	r2, r7, #84	; 0x54
 80007f8:	f8b7 105e 	ldrh.w	r1, [r7, #94]	; 0x5e
 80007fc:	2314      	movs	r3, #20
 80007fe:	9300      	str	r3, [sp, #0]
 8000800:	2306      	movs	r3, #6
 8000802:	487c      	ldr	r0, [pc, #496]	; (80009f4 <i2c_Task+0x2e4>)
 8000804:	f001 fc38 	bl	8002078 <HAL_I2C_Master_Transmit>
 8000808:	4603      	mov	r3, r0
 800080a:	461a      	mov	r2, r3
 800080c:	4b7a      	ldr	r3, [pc, #488]	; (80009f8 <i2c_Task+0x2e8>)
 800080e:	701a      	strb	r2, [r3, #0]
					osDelay(200);
 8000810:	20c8      	movs	r0, #200	; 0xc8
 8000812:	f006 f90c 	bl	8006a2e <osDelay>
					status_i2c = HAL_I2C_Master_Receive(&hi2c1, addr, &cmdRead_1[0], 1, 20);
 8000816:	f107 0250 	add.w	r2, r7, #80	; 0x50
 800081a:	f8b7 105e 	ldrh.w	r1, [r7, #94]	; 0x5e
 800081e:	2314      	movs	r3, #20
 8000820:	9300      	str	r3, [sp, #0]
 8000822:	2301      	movs	r3, #1
 8000824:	4873      	ldr	r0, [pc, #460]	; (80009f4 <i2c_Task+0x2e4>)
 8000826:	f001 fd25 	bl	8002274 <HAL_I2C_Master_Receive>
 800082a:	4603      	mov	r3, r0
 800082c:	461a      	mov	r2, r3
 800082e:	4b72      	ldr	r3, [pc, #456]	; (80009f8 <i2c_Task+0x2e8>)
 8000830:	701a      	strb	r2, [r3, #0]
					status_i2c = HAL_I2C_Master_Receive(&hi2c1, addr, &cmdRead_1[1], 1, 20);
 8000832:	f107 0350 	add.w	r3, r7, #80	; 0x50
 8000836:	1c5a      	adds	r2, r3, #1
 8000838:	f8b7 105e 	ldrh.w	r1, [r7, #94]	; 0x5e
 800083c:	2314      	movs	r3, #20
 800083e:	9300      	str	r3, [sp, #0]
 8000840:	2301      	movs	r3, #1
 8000842:	486c      	ldr	r0, [pc, #432]	; (80009f4 <i2c_Task+0x2e4>)
 8000844:	f001 fd16 	bl	8002274 <HAL_I2C_Master_Receive>
 8000848:	4603      	mov	r3, r0
 800084a:	461a      	mov	r2, r3
 800084c:	4b6a      	ldr	r3, [pc, #424]	; (80009f8 <i2c_Task+0x2e8>)
 800084e:	701a      	strb	r2, [r3, #0]
					osDelay(300);
 8000850:	f44f 7096 	mov.w	r0, #300	; 0x12c
 8000854:	f006 f8eb 	bl	8006a2e <osDelay>

					status_i2c = HAL_I2C_Master_Transmit(&hi2c1, addr, cmdStart_2, 6, 20);
 8000858:	f107 0248 	add.w	r2, r7, #72	; 0x48
 800085c:	f8b7 105e 	ldrh.w	r1, [r7, #94]	; 0x5e
 8000860:	2314      	movs	r3, #20
 8000862:	9300      	str	r3, [sp, #0]
 8000864:	2306      	movs	r3, #6
 8000866:	4863      	ldr	r0, [pc, #396]	; (80009f4 <i2c_Task+0x2e4>)
 8000868:	f001 fc06 	bl	8002078 <HAL_I2C_Master_Transmit>
 800086c:	4603      	mov	r3, r0
 800086e:	461a      	mov	r2, r3
 8000870:	4b61      	ldr	r3, [pc, #388]	; (80009f8 <i2c_Task+0x2e8>)
 8000872:	701a      	strb	r2, [r3, #0]
					osDelay(200);
 8000874:	20c8      	movs	r0, #200	; 0xc8
 8000876:	f006 f8da 	bl	8006a2e <osDelay>
					status_i2c = HAL_I2C_Master_Receive(&hi2c1, addr, &cmdRead_2[0], 1, 20);
 800087a:	f107 0244 	add.w	r2, r7, #68	; 0x44
 800087e:	f8b7 105e 	ldrh.w	r1, [r7, #94]	; 0x5e
 8000882:	2314      	movs	r3, #20
 8000884:	9300      	str	r3, [sp, #0]
 8000886:	2301      	movs	r3, #1
 8000888:	485a      	ldr	r0, [pc, #360]	; (80009f4 <i2c_Task+0x2e4>)
 800088a:	f001 fcf3 	bl	8002274 <HAL_I2C_Master_Receive>
 800088e:	4603      	mov	r3, r0
 8000890:	461a      	mov	r2, r3
 8000892:	4b59      	ldr	r3, [pc, #356]	; (80009f8 <i2c_Task+0x2e8>)
 8000894:	701a      	strb	r2, [r3, #0]
					status_i2c = HAL_I2C_Master_Receive(&hi2c1, addr, &cmdRead_2[1], 1, 20);
 8000896:	f107 0344 	add.w	r3, r7, #68	; 0x44
 800089a:	1c5a      	adds	r2, r3, #1
 800089c:	f8b7 105e 	ldrh.w	r1, [r7, #94]	; 0x5e
 80008a0:	2314      	movs	r3, #20
 80008a2:	9300      	str	r3, [sp, #0]
 80008a4:	2301      	movs	r3, #1
 80008a6:	4853      	ldr	r0, [pc, #332]	; (80009f4 <i2c_Task+0x2e4>)
 80008a8:	f001 fce4 	bl	8002274 <HAL_I2C_Master_Receive>
 80008ac:	4603      	mov	r3, r0
 80008ae:	461a      	mov	r2, r3
 80008b0:	4b51      	ldr	r3, [pc, #324]	; (80009f8 <i2c_Task+0x2e8>)
 80008b2:	701a      	strb	r2, [r3, #0]
					osDelay(1000);
 80008b4:	f44f 707a 	mov.w	r0, #1000	; 0x3e8
 80008b8:	f006 f8b9 	bl	8006a2e <osDelay>

					status_i2c = HAL_I2C_Master_Transmit(&hi2c1, addr, cmdStart_3, 9, 20);
 80008bc:	f107 0238 	add.w	r2, r7, #56	; 0x38
 80008c0:	f8b7 105e 	ldrh.w	r1, [r7, #94]	; 0x5e
 80008c4:	2314      	movs	r3, #20
 80008c6:	9300      	str	r3, [sp, #0]
 80008c8:	2309      	movs	r3, #9
 80008ca:	484a      	ldr	r0, [pc, #296]	; (80009f4 <i2c_Task+0x2e4>)
 80008cc:	f001 fbd4 	bl	8002078 <HAL_I2C_Master_Transmit>
 80008d0:	4603      	mov	r3, r0
 80008d2:	461a      	mov	r2, r3
 80008d4:	4b48      	ldr	r3, [pc, #288]	; (80009f8 <i2c_Task+0x2e8>)
 80008d6:	701a      	strb	r2, [r3, #0]
					osDelay(100);
 80008d8:	2064      	movs	r0, #100	; 0x64
 80008da:	f006 f8a8 	bl	8006a2e <osDelay>
					status_i2c = HAL_I2C_Master_Receive(&hi2c1, addr, &cmdRead_3[0], 1, 20);
 80008de:	f107 0234 	add.w	r2, r7, #52	; 0x34
 80008e2:	f8b7 105e 	ldrh.w	r1, [r7, #94]	; 0x5e
 80008e6:	2314      	movs	r3, #20
 80008e8:	9300      	str	r3, [sp, #0]
 80008ea:	2301      	movs	r3, #1
 80008ec:	4841      	ldr	r0, [pc, #260]	; (80009f4 <i2c_Task+0x2e4>)
 80008ee:	f001 fcc1 	bl	8002274 <HAL_I2C_Master_Receive>
 80008f2:	4603      	mov	r3, r0
 80008f4:	461a      	mov	r2, r3
 80008f6:	4b40      	ldr	r3, [pc, #256]	; (80009f8 <i2c_Task+0x2e8>)
 80008f8:	701a      	strb	r2, [r3, #0]
					status_i2c = HAL_I2C_Master_Receive(&hi2c1, addr, &cmdRead_3[1], 1, 20);
 80008fa:	f107 0334 	add.w	r3, r7, #52	; 0x34
 80008fe:	1c5a      	adds	r2, r3, #1
 8000900:	f8b7 105e 	ldrh.w	r1, [r7, #94]	; 0x5e
 8000904:	2314      	movs	r3, #20
 8000906:	9300      	str	r3, [sp, #0]
 8000908:	2301      	movs	r3, #1
 800090a:	483a      	ldr	r0, [pc, #232]	; (80009f4 <i2c_Task+0x2e4>)
 800090c:	f001 fcb2 	bl	8002274 <HAL_I2C_Master_Receive>
 8000910:	4603      	mov	r3, r0
 8000912:	461a      	mov	r2, r3
 8000914:	4b38      	ldr	r3, [pc, #224]	; (80009f8 <i2c_Task+0x2e8>)
 8000916:	701a      	strb	r2, [r3, #0]
					osDelay(1000);
 8000918:	f44f 707a 	mov.w	r0, #1000	; 0x3e8
 800091c:	f006 f887 	bl	8006a2e <osDelay>

					status_i2c = HAL_I2C_Master_Transmit(&hi2c1, addr, cmdStart_4, 7, 20);
 8000920:	f107 022c 	add.w	r2, r7, #44	; 0x2c
 8000924:	f8b7 105e 	ldrh.w	r1, [r7, #94]	; 0x5e
 8000928:	2314      	movs	r3, #20
 800092a:	9300      	str	r3, [sp, #0]
 800092c:	2307      	movs	r3, #7
 800092e:	4831      	ldr	r0, [pc, #196]	; (80009f4 <i2c_Task+0x2e4>)
 8000930:	f001 fba2 	bl	8002078 <HAL_I2C_Master_Transmit>
 8000934:	4603      	mov	r3, r0
 8000936:	461a      	mov	r2, r3
 8000938:	4b2f      	ldr	r3, [pc, #188]	; (80009f8 <i2c_Task+0x2e8>)
 800093a:	701a      	strb	r2, [r3, #0]
					osDelay(710);
 800093c:	f240 20c6 	movw	r0, #710	; 0x2c6
 8000940:	f006 f875 	bl	8006a2e <osDelay>
					status_i2c = HAL_I2C_Master_Receive(&hi2c1, addr, &cmdRead_4[0], 1, 20);
 8000944:	f107 0228 	add.w	r2, r7, #40	; 0x28
 8000948:	f8b7 105e 	ldrh.w	r1, [r7, #94]	; 0x5e
 800094c:	2314      	movs	r3, #20
 800094e:	9300      	str	r3, [sp, #0]
 8000950:	2301      	movs	r3, #1
 8000952:	4828      	ldr	r0, [pc, #160]	; (80009f4 <i2c_Task+0x2e4>)
 8000954:	f001 fc8e 	bl	8002274 <HAL_I2C_Master_Receive>
 8000958:	4603      	mov	r3, r0
 800095a:	461a      	mov	r2, r3
 800095c:	4b26      	ldr	r3, [pc, #152]	; (80009f8 <i2c_Task+0x2e8>)
 800095e:	701a      	strb	r2, [r3, #0]
					status_i2c = HAL_I2C_Master_Receive(&hi2c1, addr, &cmdRead_4[1], 1, 20);
 8000960:	f107 0328 	add.w	r3, r7, #40	; 0x28
 8000964:	1c5a      	adds	r2, r3, #1
 8000966:	f8b7 105e 	ldrh.w	r1, [r7, #94]	; 0x5e
 800096a:	2314      	movs	r3, #20
 800096c:	9300      	str	r3, [sp, #0]
 800096e:	2301      	movs	r3, #1
 8000970:	4820      	ldr	r0, [pc, #128]	; (80009f4 <i2c_Task+0x2e4>)
 8000972:	f001 fc7f 	bl	8002274 <HAL_I2C_Master_Receive>
 8000976:	4603      	mov	r3, r0
 8000978:	461a      	mov	r2, r3
 800097a:	4b1f      	ldr	r3, [pc, #124]	; (80009f8 <i2c_Task+0x2e8>)
 800097c:	701a      	strb	r2, [r3, #0]


					osDelay(1000);
 800097e:	f44f 707a 	mov.w	r0, #1000	; 0x3e8
 8000982:	f006 f854 	bl	8006a2e <osDelay>
					//выдать флаг готовности питания
					ready = 1;
 8000986:	4b1d      	ldr	r3, [pc, #116]	; (80009fc <i2c_Task+0x2ec>)
 8000988:	2201      	movs	r2, #1
 800098a:	701a      	strb	r2, [r3, #0]

					osDelay(3000);
 800098c:	f640 30b8 	movw	r0, #3000	; 0xbb8
 8000990:	f006 f84d 	bl	8006a2e <osDelay>
					//обновляем пик
					status_i2c = HAL_I2C_Master_Transmit(&hi2c1, addr, cmdRefresh, 6, 20);
 8000994:	f107 0214 	add.w	r2, r7, #20
 8000998:	f8b7 105e 	ldrh.w	r1, [r7, #94]	; 0x5e
 800099c:	2314      	movs	r3, #20
 800099e:	9300      	str	r3, [sp, #0]
 80009a0:	2306      	movs	r3, #6
 80009a2:	4814      	ldr	r0, [pc, #80]	; (80009f4 <i2c_Task+0x2e4>)
 80009a4:	f001 fb68 	bl	8002078 <HAL_I2C_Master_Transmit>
 80009a8:	4603      	mov	r3, r0
 80009aa:	461a      	mov	r2, r3
 80009ac:	4b12      	ldr	r3, [pc, #72]	; (80009f8 <i2c_Task+0x2e8>)
 80009ae:	701a      	strb	r2, [r3, #0]
					status_i2c = HAL_I2C_Master_Receive(&hi2c1, addr, cmdRead_Refresh, 6, 20);
 80009b0:	f107 020c 	add.w	r2, r7, #12
 80009b4:	f8b7 105e 	ldrh.w	r1, [r7, #94]	; 0x5e
 80009b8:	2314      	movs	r3, #20
 80009ba:	9300      	str	r3, [sp, #0]
 80009bc:	2306      	movs	r3, #6
 80009be:	480d      	ldr	r0, [pc, #52]	; (80009f4 <i2c_Task+0x2e4>)
 80009c0:	f001 fc58 	bl	8002274 <HAL_I2C_Master_Receive>
 80009c4:	4603      	mov	r3, r0
 80009c6:	461a      	mov	r2, r3
 80009c8:	4b0b      	ldr	r3, [pc, #44]	; (80009f8 <i2c_Task+0x2e8>)
 80009ca:	701a      	strb	r2, [r3, #0]

					// запустить цикл обновления до остановки пользователем
					while(!start){
 80009cc:	e038      	b.n	8000a40 <i2c_Task+0x330>
 80009ce:	bf00      	nop
 80009d0:	080080d8 	.word	0x080080d8
 80009d4:	080080e0 	.word	0x080080e0
 80009d8:	080080e8 	.word	0x080080e8
 80009dc:	080080f4 	.word	0x080080f4
 80009e0:	080080fc 	.word	0x080080fc
 80009e4:	08008104 	.word	0x08008104
 80009e8:	40020c00 	.word	0x40020c00
 80009ec:	40020800 	.word	0x40020800
 80009f0:	200002d0 	.word	0x200002d0
 80009f4:	20004350 	.word	0x20004350
 80009f8:	200042f4 	.word	0x200042f4
 80009fc:	200002d1 	.word	0x200002d1
							//обновляем пик
							status_i2c = HAL_I2C_Master_Transmit(&hi2c1, addr, cmdRefresh, 6, 20);
 8000a00:	f107 0214 	add.w	r2, r7, #20
 8000a04:	f8b7 105e 	ldrh.w	r1, [r7, #94]	; 0x5e
 8000a08:	2314      	movs	r3, #20
 8000a0a:	9300      	str	r3, [sp, #0]
 8000a0c:	2306      	movs	r3, #6
 8000a0e:	4827      	ldr	r0, [pc, #156]	; (8000aac <i2c_Task+0x39c>)
 8000a10:	f001 fb32 	bl	8002078 <HAL_I2C_Master_Transmit>
 8000a14:	4603      	mov	r3, r0
 8000a16:	461a      	mov	r2, r3
 8000a18:	4b25      	ldr	r3, [pc, #148]	; (8000ab0 <i2c_Task+0x3a0>)
 8000a1a:	701a      	strb	r2, [r3, #0]
							status_i2c = HAL_I2C_Master_Receive(&hi2c1, addr, cmdRead_Refresh, 6, 20);
 8000a1c:	f107 020c 	add.w	r2, r7, #12
 8000a20:	f8b7 105e 	ldrh.w	r1, [r7, #94]	; 0x5e
 8000a24:	2314      	movs	r3, #20
 8000a26:	9300      	str	r3, [sp, #0]
 8000a28:	2306      	movs	r3, #6
 8000a2a:	4820      	ldr	r0, [pc, #128]	; (8000aac <i2c_Task+0x39c>)
 8000a2c:	f001 fc22 	bl	8002274 <HAL_I2C_Master_Receive>
 8000a30:	4603      	mov	r3, r0
 8000a32:	461a      	mov	r2, r3
 8000a34:	4b1e      	ldr	r3, [pc, #120]	; (8000ab0 <i2c_Task+0x3a0>)
 8000a36:	701a      	strb	r2, [r3, #0]
							osDelay(10000);
 8000a38:	f242 7010 	movw	r0, #10000	; 0x2710
 8000a3c:	f005 fff7 	bl	8006a2e <osDelay>
					while(!start){
 8000a40:	4b1c      	ldr	r3, [pc, #112]	; (8000ab4 <i2c_Task+0x3a4>)
 8000a42:	781b      	ldrb	r3, [r3, #0]
 8000a44:	2b00      	cmp	r3, #0
 8000a46:	d0db      	beq.n	8000a00 <i2c_Task+0x2f0>
					}

					// выключение питания
					status_i2c = HAL_I2C_Master_Transmit(&hi2c1, addr, cmdStop, 7, 20);
 8000a48:	f107 0220 	add.w	r2, r7, #32
 8000a4c:	f8b7 105e 	ldrh.w	r1, [r7, #94]	; 0x5e
 8000a50:	2314      	movs	r3, #20
 8000a52:	9300      	str	r3, [sp, #0]
 8000a54:	2307      	movs	r3, #7
 8000a56:	4815      	ldr	r0, [pc, #84]	; (8000aac <i2c_Task+0x39c>)
 8000a58:	f001 fb0e 	bl	8002078 <HAL_I2C_Master_Transmit>
 8000a5c:	4603      	mov	r3, r0
 8000a5e:	461a      	mov	r2, r3
 8000a60:	4b13      	ldr	r3, [pc, #76]	; (8000ab0 <i2c_Task+0x3a0>)
 8000a62:	701a      	strb	r2, [r3, #0]
					osDelay(20);
 8000a64:	2014      	movs	r0, #20
 8000a66:	f005 ffe2 	bl	8006a2e <osDelay>
					status_i2c = HAL_I2C_Master_Receive(&hi2c1, addr, &cmdRead_stop[0], 1, 20);
 8000a6a:	f107 021c 	add.w	r2, r7, #28
 8000a6e:	f8b7 105e 	ldrh.w	r1, [r7, #94]	; 0x5e
 8000a72:	2314      	movs	r3, #20
 8000a74:	9300      	str	r3, [sp, #0]
 8000a76:	2301      	movs	r3, #1
 8000a78:	480c      	ldr	r0, [pc, #48]	; (8000aac <i2c_Task+0x39c>)
 8000a7a:	f001 fbfb 	bl	8002274 <HAL_I2C_Master_Receive>
 8000a7e:	4603      	mov	r3, r0
 8000a80:	461a      	mov	r2, r3
 8000a82:	4b0b      	ldr	r3, [pc, #44]	; (8000ab0 <i2c_Task+0x3a0>)
 8000a84:	701a      	strb	r2, [r3, #0]
					status_i2c = HAL_I2C_Master_Receive(&hi2c1, addr, &cmdRead_stop[1], 1, 20);
 8000a86:	f107 031c 	add.w	r3, r7, #28
 8000a8a:	1c5a      	adds	r2, r3, #1
 8000a8c:	f8b7 105e 	ldrh.w	r1, [r7, #94]	; 0x5e
 8000a90:	2314      	movs	r3, #20
 8000a92:	9300      	str	r3, [sp, #0]
 8000a94:	2301      	movs	r3, #1
 8000a96:	4805      	ldr	r0, [pc, #20]	; (8000aac <i2c_Task+0x39c>)
 8000a98:	f001 fbec 	bl	8002274 <HAL_I2C_Master_Receive>
 8000a9c:	4603      	mov	r3, r0
 8000a9e:	461a      	mov	r2, r3
 8000aa0:	4b03      	ldr	r3, [pc, #12]	; (8000ab0 <i2c_Task+0x3a0>)
 8000aa2:	701a      	strb	r2, [r3, #0]
					//выдать флаг отключения питания
					ready = 0;
 8000aa4:	4b04      	ldr	r3, [pc, #16]	; (8000ab8 <i2c_Task+0x3a8>)
 8000aa6:	2200      	movs	r2, #0
 8000aa8:	701a      	strb	r2, [r3, #0]
	  if (start && plug) {
 8000aaa:	e69b      	b.n	80007e4 <i2c_Task+0xd4>
 8000aac:	20004350 	.word	0x20004350
 8000ab0:	200042f4 	.word	0x200042f4
 8000ab4:	200002d0 	.word	0x200002d0
 8000ab8:	200002d1 	.word	0x200002d1

08000abc <HAL_UART_RxCpltCallback>:
  /* USER CODE END i2c_Task */
}

/* Private application code --------------------------------------------------*/
/* USER CODE BEGIN Application */
void HAL_UART_RxCpltCallback(UART_HandleTypeDef *huart) {
 8000abc:	b580      	push	{r7, lr}
 8000abe:	b082      	sub	sp, #8
 8000ac0:	af00      	add	r7, sp, #0
 8000ac2:	6078      	str	r0, [r7, #4]

	status_uart = HAL_UART_Receive_IT(&huart6, &readASIC[counter_bytes], 1);
 8000ac4:	4b0c      	ldr	r3, [pc, #48]	; (8000af8 <HAL_UART_RxCpltCallback+0x3c>)
 8000ac6:	681b      	ldr	r3, [r3, #0]
 8000ac8:	4a0c      	ldr	r2, [pc, #48]	; (8000afc <HAL_UART_RxCpltCallback+0x40>)
 8000aca:	4413      	add	r3, r2
 8000acc:	2201      	movs	r2, #1
 8000ace:	4619      	mov	r1, r3
 8000ad0:	480b      	ldr	r0, [pc, #44]	; (8000b00 <HAL_UART_RxCpltCallback+0x44>)
 8000ad2:	f004 ffb6 	bl	8005a42 <HAL_UART_Receive_IT>
 8000ad6:	4603      	mov	r3, r0
 8000ad8:	461a      	mov	r2, r3
 8000ada:	4b0a      	ldr	r3, [pc, #40]	; (8000b04 <HAL_UART_RxCpltCallback+0x48>)
 8000adc:	701a      	strb	r2, [r3, #0]
	counter_bytes++;
 8000ade:	4b06      	ldr	r3, [pc, #24]	; (8000af8 <HAL_UART_RxCpltCallback+0x3c>)
 8000ae0:	681b      	ldr	r3, [r3, #0]
 8000ae2:	3301      	adds	r3, #1
 8000ae4:	4a04      	ldr	r2, [pc, #16]	; (8000af8 <HAL_UART_RxCpltCallback+0x3c>)
 8000ae6:	6013      	str	r3, [r2, #0]
	uartTIM = 0; //сбрасываем таймер до тех пор пока не придут все данные
 8000ae8:	4b07      	ldr	r3, [pc, #28]	; (8000b08 <HAL_UART_RxCpltCallback+0x4c>)
 8000aea:	2200      	movs	r2, #0
 8000aec:	601a      	str	r2, [r3, #0]
}
 8000aee:	bf00      	nop
 8000af0:	3708      	adds	r7, #8
 8000af2:	46bd      	mov	sp, r7
 8000af4:	bd80      	pop	{r7, pc}
 8000af6:	bf00      	nop
 8000af8:	200000b0 	.word	0x200000b0
 8000afc:	200000b4 	.word	0x200000b4
 8000b00:	20004430 	.word	0x20004430
 8000b04:	200042ec 	.word	0x200042ec
 8000b08:	20000588 	.word	0x20000588

08000b0c <MX_GPIO_Init>:
        * Output
        * EVENT_OUT
        * EXTI
*/
void MX_GPIO_Init(void)
{
 8000b0c:	b580      	push	{r7, lr}
 8000b0e:	b08a      	sub	sp, #40	; 0x28
 8000b10:	af00      	add	r7, sp, #0

  GPIO_InitTypeDef GPIO_InitStruct = {0};
 8000b12:	f107 0314 	add.w	r3, r7, #20
 8000b16:	2200      	movs	r2, #0
 8000b18:	601a      	str	r2, [r3, #0]
 8000b1a:	605a      	str	r2, [r3, #4]
 8000b1c:	609a      	str	r2, [r3, #8]
 8000b1e:	60da      	str	r2, [r3, #12]
 8000b20:	611a      	str	r2, [r3, #16]

  /* GPIO Ports Clock Enable */
  __HAL_RCC_GPIOH_CLK_ENABLE();
 8000b22:	2300      	movs	r3, #0
 8000b24:	613b      	str	r3, [r7, #16]
 8000b26:	4b4b      	ldr	r3, [pc, #300]	; (8000c54 <MX_GPIO_Init+0x148>)
 8000b28:	6b1b      	ldr	r3, [r3, #48]	; 0x30
 8000b2a:	4a4a      	ldr	r2, [pc, #296]	; (8000c54 <MX_GPIO_Init+0x148>)
 8000b2c:	f043 0380 	orr.w	r3, r3, #128	; 0x80
 8000b30:	6313      	str	r3, [r2, #48]	; 0x30
 8000b32:	4b48      	ldr	r3, [pc, #288]	; (8000c54 <MX_GPIO_Init+0x148>)
 8000b34:	6b1b      	ldr	r3, [r3, #48]	; 0x30
 8000b36:	f003 0380 	and.w	r3, r3, #128	; 0x80
 8000b3a:	613b      	str	r3, [r7, #16]
 8000b3c:	693b      	ldr	r3, [r7, #16]
  __HAL_RCC_GPIOC_CLK_ENABLE();
 8000b3e:	2300      	movs	r3, #0
 8000b40:	60fb      	str	r3, [r7, #12]
 8000b42:	4b44      	ldr	r3, [pc, #272]	; (8000c54 <MX_GPIO_Init+0x148>)
 8000b44:	6b1b      	ldr	r3, [r3, #48]	; 0x30
 8000b46:	4a43      	ldr	r2, [pc, #268]	; (8000c54 <MX_GPIO_Init+0x148>)
 8000b48:	f043 0304 	orr.w	r3, r3, #4
 8000b4c:	6313      	str	r3, [r2, #48]	; 0x30
 8000b4e:	4b41      	ldr	r3, [pc, #260]	; (8000c54 <MX_GPIO_Init+0x148>)
 8000b50:	6b1b      	ldr	r3, [r3, #48]	; 0x30
 8000b52:	f003 0304 	and.w	r3, r3, #4
 8000b56:	60fb      	str	r3, [r7, #12]
 8000b58:	68fb      	ldr	r3, [r7, #12]
  __HAL_RCC_GPIOA_CLK_ENABLE();
 8000b5a:	2300      	movs	r3, #0
 8000b5c:	60bb      	str	r3, [r7, #8]
 8000b5e:	4b3d      	ldr	r3, [pc, #244]	; (8000c54 <MX_GPIO_Init+0x148>)
 8000b60:	6b1b      	ldr	r3, [r3, #48]	; 0x30
 8000b62:	4a3c      	ldr	r2, [pc, #240]	; (8000c54 <MX_GPIO_Init+0x148>)
 8000b64:	f043 0301 	orr.w	r3, r3, #1
 8000b68:	6313      	str	r3, [r2, #48]	; 0x30
 8000b6a:	4b3a      	ldr	r3, [pc, #232]	; (8000c54 <MX_GPIO_Init+0x148>)
 8000b6c:	6b1b      	ldr	r3, [r3, #48]	; 0x30
 8000b6e:	f003 0301 	and.w	r3, r3, #1
 8000b72:	60bb      	str	r3, [r7, #8]
 8000b74:	68bb      	ldr	r3, [r7, #8]
  __HAL_RCC_GPIOD_CLK_ENABLE();
 8000b76:	2300      	movs	r3, #0
 8000b78:	607b      	str	r3, [r7, #4]
 8000b7a:	4b36      	ldr	r3, [pc, #216]	; (8000c54 <MX_GPIO_Init+0x148>)
 8000b7c:	6b1b      	ldr	r3, [r3, #48]	; 0x30
 8000b7e:	4a35      	ldr	r2, [pc, #212]	; (8000c54 <MX_GPIO_Init+0x148>)
 8000b80:	f043 0308 	orr.w	r3, r3, #8
 8000b84:	6313      	str	r3, [r2, #48]	; 0x30
 8000b86:	4b33      	ldr	r3, [pc, #204]	; (8000c54 <MX_GPIO_Init+0x148>)
 8000b88:	6b1b      	ldr	r3, [r3, #48]	; 0x30
 8000b8a:	f003 0308 	and.w	r3, r3, #8
 8000b8e:	607b      	str	r3, [r7, #4]
 8000b90:	687b      	ldr	r3, [r7, #4]
  __HAL_RCC_GPIOB_CLK_ENABLE();
 8000b92:	2300      	movs	r3, #0
 8000b94:	603b      	str	r3, [r7, #0]
 8000b96:	4b2f      	ldr	r3, [pc, #188]	; (8000c54 <MX_GPIO_Init+0x148>)
 8000b98:	6b1b      	ldr	r3, [r3, #48]	; 0x30
 8000b9a:	4a2e      	ldr	r2, [pc, #184]	; (8000c54 <MX_GPIO_Init+0x148>)
 8000b9c:	f043 0302 	orr.w	r3, r3, #2
 8000ba0:	6313      	str	r3, [r2, #48]	; 0x30
 8000ba2:	4b2c      	ldr	r3, [pc, #176]	; (8000c54 <MX_GPIO_Init+0x148>)
 8000ba4:	6b1b      	ldr	r3, [r3, #48]	; 0x30
 8000ba6:	f003 0302 	and.w	r3, r3, #2
 8000baa:	603b      	str	r3, [r7, #0]
 8000bac:	683b      	ldr	r3, [r7, #0]

  /*Configure GPIO pin Output Level */
  HAL_GPIO_WritePin(RST_ASIC_GPIO_Port, RST_ASIC_Pin, GPIO_PIN_SET);
 8000bae:	2201      	movs	r2, #1
 8000bb0:	f44f 6100 	mov.w	r1, #2048	; 0x800
 8000bb4:	4828      	ldr	r0, [pc, #160]	; (8000c58 <MX_GPIO_Init+0x14c>)
 8000bb6:	f001 f901 	bl	8001dbc <HAL_GPIO_WritePin>

  /*Configure GPIO pin Output Level */
  HAL_GPIO_WritePin(GPIOD, A1_Pin|A0_Pin|A2_Pin, GPIO_PIN_SET);
 8000bba:	2201      	movs	r2, #1
 8000bbc:	2107      	movs	r1, #7
 8000bbe:	4827      	ldr	r0, [pc, #156]	; (8000c5c <MX_GPIO_Init+0x150>)
 8000bc0:	f001 f8fc 	bl	8001dbc <HAL_GPIO_WritePin>

  /*Configure GPIO pin : PtPin */
  GPIO_InitStruct.Pin = RST_ASIC_Pin;
 8000bc4:	f44f 6300 	mov.w	r3, #2048	; 0x800
 8000bc8:	617b      	str	r3, [r7, #20]
  GPIO_InitStruct.Mode = GPIO_MODE_OUTPUT_PP;
 8000bca:	2301      	movs	r3, #1
 8000bcc:	61bb      	str	r3, [r7, #24]
  GPIO_InitStruct.Pull = GPIO_NOPULL;
 8000bce:	2300      	movs	r3, #0
 8000bd0:	61fb      	str	r3, [r7, #28]
  GPIO_InitStruct.Speed = GPIO_SPEED_FREQ_LOW;
 8000bd2:	2300      	movs	r3, #0
 8000bd4:	623b      	str	r3, [r7, #32]
  HAL_GPIO_Init(RST_ASIC_GPIO_Port, &GPIO_InitStruct);
 8000bd6:	f107 0314 	add.w	r3, r7, #20
 8000bda:	4619      	mov	r1, r3
 8000bdc:	481e      	ldr	r0, [pc, #120]	; (8000c58 <MX_GPIO_Init+0x14c>)
 8000bde:	f000 ff39 	bl	8001a54 <HAL_GPIO_Init>

  /*Configure GPIO pin : PtPin */
  GPIO_InitStruct.Pin = B1_Pin;
 8000be2:	f44f 4300 	mov.w	r3, #32768	; 0x8000
 8000be6:	617b      	str	r3, [r7, #20]
  GPIO_InitStruct.Mode = GPIO_MODE_INPUT;
 8000be8:	2300      	movs	r3, #0
 8000bea:	61bb      	str	r3, [r7, #24]
  GPIO_InitStruct.Pull = GPIO_PULLUP;
 8000bec:	2301      	movs	r3, #1
 8000bee:	61fb      	str	r3, [r7, #28]
  HAL_GPIO_Init(B1_GPIO_Port, &GPIO_InitStruct);
 8000bf0:	f107 0314 	add.w	r3, r7, #20
 8000bf4:	4619      	mov	r1, r3
 8000bf6:	4818      	ldr	r0, [pc, #96]	; (8000c58 <MX_GPIO_Init+0x14c>)
 8000bf8:	f000 ff2c 	bl	8001a54 <HAL_GPIO_Init>

  /*Configure GPIO pins : PCPin PCPin */
  GPIO_InitStruct.Pin = B2_Pin|B3_Pin;
 8000bfc:	f44f 6340 	mov.w	r3, #3072	; 0xc00
 8000c00:	617b      	str	r3, [r7, #20]
  GPIO_InitStruct.Mode = GPIO_MODE_INPUT;
 8000c02:	2300      	movs	r3, #0
 8000c04:	61bb      	str	r3, [r7, #24]
  GPIO_InitStruct.Pull = GPIO_PULLUP;
 8000c06:	2301      	movs	r3, #1
 8000c08:	61fb      	str	r3, [r7, #28]
  HAL_GPIO_Init(GPIOC, &GPIO_InitStruct);
 8000c0a:	f107 0314 	add.w	r3, r7, #20
 8000c0e:	4619      	mov	r1, r3
 8000c10:	4813      	ldr	r0, [pc, #76]	; (8000c60 <MX_GPIO_Init+0x154>)
 8000c12:	f000 ff1f 	bl	8001a54 <HAL_GPIO_Init>

  /*Configure GPIO pin : PtPin */
  GPIO_InitStruct.Pin = PLUG_Pin;
 8000c16:	f44f 5380 	mov.w	r3, #4096	; 0x1000
 8000c1a:	617b      	str	r3, [r7, #20]
  GPIO_InitStruct.Mode = GPIO_MODE_INPUT;
 8000c1c:	2300      	movs	r3, #0
 8000c1e:	61bb      	str	r3, [r7, #24]
  GPIO_InitStruct.Pull = GPIO_NOPULL;
 8000c20:	2300      	movs	r3, #0
 8000c22:	61fb      	str	r3, [r7, #28]
  HAL_GPIO_Init(PLUG_GPIO_Port, &GPIO_InitStruct);
 8000c24:	f107 0314 	add.w	r3, r7, #20
 8000c28:	4619      	mov	r1, r3
 8000c2a:	480d      	ldr	r0, [pc, #52]	; (8000c60 <MX_GPIO_Init+0x154>)
 8000c2c:	f000 ff12 	bl	8001a54 <HAL_GPIO_Init>

  /*Configure GPIO pins : PDPin PDPin PDPin */
  GPIO_InitStruct.Pin = A1_Pin|A0_Pin|A2_Pin;
 8000c30:	2307      	movs	r3, #7
 8000c32:	617b      	str	r3, [r7, #20]
  GPIO_InitStruct.Mode = GPIO_MODE_OUTPUT_PP;
 8000c34:	2301      	movs	r3, #1
 8000c36:	61bb      	str	r3, [r7, #24]
  GPIO_InitStruct.Pull = GPIO_NOPULL;
 8000c38:	2300      	movs	r3, #0
 8000c3a:	61fb      	str	r3, [r7, #28]
  GPIO_InitStruct.Speed = GPIO_SPEED_FREQ_LOW;
 8000c3c:	2300      	movs	r3, #0
 8000c3e:	623b      	str	r3, [r7, #32]
  HAL_GPIO_Init(GPIOD, &GPIO_InitStruct);
 8000c40:	f107 0314 	add.w	r3, r7, #20
 8000c44:	4619      	mov	r1, r3
 8000c46:	4805      	ldr	r0, [pc, #20]	; (8000c5c <MX_GPIO_Init+0x150>)
 8000c48:	f000 ff04 	bl	8001a54 <HAL_GPIO_Init>

}
 8000c4c:	bf00      	nop
 8000c4e:	3728      	adds	r7, #40	; 0x28
 8000c50:	46bd      	mov	sp, r7
 8000c52:	bd80      	pop	{r7, pc}
 8000c54:	40023800 	.word	0x40023800
 8000c58:	40020000 	.word	0x40020000
 8000c5c:	40020c00 	.word	0x40020c00
 8000c60:	40020800 	.word	0x40020800

08000c64 <MX_I2C1_Init>:
I2C_HandleTypeDef hi2c1;
I2C_HandleTypeDef hi2c3;

/* I2C1 init function */
void MX_I2C1_Init(void)
{
 8000c64:	b580      	push	{r7, lr}
 8000c66:	af00      	add	r7, sp, #0
  /* USER CODE END I2C1_Init 0 */

  /* USER CODE BEGIN I2C1_Init 1 */

  /* USER CODE END I2C1_Init 1 */
  hi2c1.Instance = I2C1;
 8000c68:	4b13      	ldr	r3, [pc, #76]	; (8000cb8 <MX_I2C1_Init+0x54>)
 8000c6a:	4a14      	ldr	r2, [pc, #80]	; (8000cbc <MX_I2C1_Init+0x58>)
 8000c6c:	601a      	str	r2, [r3, #0]
  hi2c1.Init.ClockSpeed = 35000;
 8000c6e:	4b12      	ldr	r3, [pc, #72]	; (8000cb8 <MX_I2C1_Init+0x54>)
 8000c70:	f648 02b8 	movw	r2, #35000	; 0x88b8
 8000c74:	605a      	str	r2, [r3, #4]
  hi2c1.Init.DutyCycle = I2C_DUTYCYCLE_2;
 8000c76:	4b10      	ldr	r3, [pc, #64]	; (8000cb8 <MX_I2C1_Init+0x54>)
 8000c78:	2200      	movs	r2, #0
 8000c7a:	609a      	str	r2, [r3, #8]
  hi2c1.Init.OwnAddress1 = 0;
 8000c7c:	4b0e      	ldr	r3, [pc, #56]	; (8000cb8 <MX_I2C1_Init+0x54>)
 8000c7e:	2200      	movs	r2, #0
 8000c80:	60da      	str	r2, [r3, #12]
  hi2c1.Init.AddressingMode = I2C_ADDRESSINGMODE_7BIT;
 8000c82:	4b0d      	ldr	r3, [pc, #52]	; (8000cb8 <MX_I2C1_Init+0x54>)
 8000c84:	f44f 4280 	mov.w	r2, #16384	; 0x4000
 8000c88:	611a      	str	r2, [r3, #16]
  hi2c1.Init.DualAddressMode = I2C_DUALADDRESS_DISABLE;
 8000c8a:	4b0b      	ldr	r3, [pc, #44]	; (8000cb8 <MX_I2C1_Init+0x54>)
 8000c8c:	2200      	movs	r2, #0
 8000c8e:	615a      	str	r2, [r3, #20]
  hi2c1.Init.OwnAddress2 = 0;
 8000c90:	4b09      	ldr	r3, [pc, #36]	; (8000cb8 <MX_I2C1_Init+0x54>)
 8000c92:	2200      	movs	r2, #0
 8000c94:	619a      	str	r2, [r3, #24]
  hi2c1.Init.GeneralCallMode = I2C_GENERALCALL_DISABLE;
 8000c96:	4b08      	ldr	r3, [pc, #32]	; (8000cb8 <MX_I2C1_Init+0x54>)
 8000c98:	2200      	movs	r2, #0
 8000c9a:	61da      	str	r2, [r3, #28]
  hi2c1.Init.NoStretchMode = I2C_NOSTRETCH_DISABLE;
 8000c9c:	4b06      	ldr	r3, [pc, #24]	; (8000cb8 <MX_I2C1_Init+0x54>)
 8000c9e:	2200      	movs	r2, #0
 8000ca0:	621a      	str	r2, [r3, #32]
  if (HAL_I2C_Init(&hi2c1) != HAL_OK)
 8000ca2:	4805      	ldr	r0, [pc, #20]	; (8000cb8 <MX_I2C1_Init+0x54>)
 8000ca4:	f001 f8a4 	bl	8001df0 <HAL_I2C_Init>
 8000ca8:	4603      	mov	r3, r0
 8000caa:	2b00      	cmp	r3, #0
 8000cac:	d001      	beq.n	8000cb2 <MX_I2C1_Init+0x4e>
  {
    Error_Handler();
 8000cae:	f000 f989 	bl	8000fc4 <Error_Handler>
  }
  /* USER CODE BEGIN I2C1_Init 2 */

  /* USER CODE END I2C1_Init 2 */

}
 8000cb2:	bf00      	nop
 8000cb4:	bd80      	pop	{r7, pc}
 8000cb6:	bf00      	nop
 8000cb8:	20004350 	.word	0x20004350
 8000cbc:	40005400 	.word	0x40005400

08000cc0 <MX_I2C3_Init>:
/* I2C3 init function */
void MX_I2C3_Init(void)
{
 8000cc0:	b580      	push	{r7, lr}
 8000cc2:	af00      	add	r7, sp, #0
  /* USER CODE END I2C3_Init 0 */

  /* USER CODE BEGIN I2C3_Init 1 */

  /* USER CODE END I2C3_Init 1 */
  hi2c3.Instance = I2C3;
 8000cc4:	4b12      	ldr	r3, [pc, #72]	; (8000d10 <MX_I2C3_Init+0x50>)
 8000cc6:	4a13      	ldr	r2, [pc, #76]	; (8000d14 <MX_I2C3_Init+0x54>)
 8000cc8:	601a      	str	r2, [r3, #0]
  hi2c3.Init.ClockSpeed = 100000;
 8000cca:	4b11      	ldr	r3, [pc, #68]	; (8000d10 <MX_I2C3_Init+0x50>)
 8000ccc:	4a12      	ldr	r2, [pc, #72]	; (8000d18 <MX_I2C3_Init+0x58>)
 8000cce:	605a      	str	r2, [r3, #4]
  hi2c3.Init.DutyCycle = I2C_DUTYCYCLE_2;
 8000cd0:	4b0f      	ldr	r3, [pc, #60]	; (8000d10 <MX_I2C3_Init+0x50>)
 8000cd2:	2200      	movs	r2, #0
 8000cd4:	609a      	str	r2, [r3, #8]
  hi2c3.Init.OwnAddress1 = 0;
 8000cd6:	4b0e      	ldr	r3, [pc, #56]	; (8000d10 <MX_I2C3_Init+0x50>)
 8000cd8:	2200      	movs	r2, #0
 8000cda:	60da      	str	r2, [r3, #12]
  hi2c3.Init.AddressingMode = I2C_ADDRESSINGMODE_7BIT;
 8000cdc:	4b0c      	ldr	r3, [pc, #48]	; (8000d10 <MX_I2C3_Init+0x50>)
 8000cde:	f44f 4280 	mov.w	r2, #16384	; 0x4000
 8000ce2:	611a      	str	r2, [r3, #16]
  hi2c3.Init.DualAddressMode = I2C_DUALADDRESS_DISABLE;
 8000ce4:	4b0a      	ldr	r3, [pc, #40]	; (8000d10 <MX_I2C3_Init+0x50>)
 8000ce6:	2200      	movs	r2, #0
 8000ce8:	615a      	str	r2, [r3, #20]
  hi2c3.Init.OwnAddress2 = 0;
 8000cea:	4b09      	ldr	r3, [pc, #36]	; (8000d10 <MX_I2C3_Init+0x50>)
 8000cec:	2200      	movs	r2, #0
 8000cee:	619a      	str	r2, [r3, #24]
  hi2c3.Init.GeneralCallMode = I2C_GENERALCALL_DISABLE;
 8000cf0:	4b07      	ldr	r3, [pc, #28]	; (8000d10 <MX_I2C3_Init+0x50>)
 8000cf2:	2200      	movs	r2, #0
 8000cf4:	61da      	str	r2, [r3, #28]
  hi2c3.Init.NoStretchMode = I2C_NOSTRETCH_DISABLE;
 8000cf6:	4b06      	ldr	r3, [pc, #24]	; (8000d10 <MX_I2C3_Init+0x50>)
 8000cf8:	2200      	movs	r2, #0
 8000cfa:	621a      	str	r2, [r3, #32]
  if (HAL_I2C_Init(&hi2c3) != HAL_OK)
 8000cfc:	4804      	ldr	r0, [pc, #16]	; (8000d10 <MX_I2C3_Init+0x50>)
 8000cfe:	f001 f877 	bl	8001df0 <HAL_I2C_Init>
 8000d02:	4603      	mov	r3, r0
 8000d04:	2b00      	cmp	r3, #0
 8000d06:	d001      	beq.n	8000d0c <MX_I2C3_Init+0x4c>
  {
    Error_Handler();
 8000d08:	f000 f95c 	bl	8000fc4 <Error_Handler>
  }
  /* USER CODE BEGIN I2C3_Init 2 */

  /* USER CODE END I2C3_Init 2 */

}
 8000d0c:	bf00      	nop
 8000d0e:	bd80      	pop	{r7, pc}
 8000d10:	200042fc 	.word	0x200042fc
 8000d14:	40005c00 	.word	0x40005c00
 8000d18:	000186a0 	.word	0x000186a0

08000d1c <HAL_I2C_MspInit>:

void HAL_I2C_MspInit(I2C_HandleTypeDef* i2cHandle)
{
 8000d1c:	b580      	push	{r7, lr}
 8000d1e:	b08c      	sub	sp, #48	; 0x30
 8000d20:	af00      	add	r7, sp, #0
 8000d22:	6078      	str	r0, [r7, #4]

  GPIO_InitTypeDef GPIO_InitStruct = {0};
 8000d24:	f107 031c 	add.w	r3, r7, #28
 8000d28:	2200      	movs	r2, #0
 8000d2a:	601a      	str	r2, [r3, #0]
 8000d2c:	605a      	str	r2, [r3, #4]
 8000d2e:	609a      	str	r2, [r3, #8]
 8000d30:	60da      	str	r2, [r3, #12]
 8000d32:	611a      	str	r2, [r3, #16]
  if(i2cHandle->Instance==I2C1)
 8000d34:	687b      	ldr	r3, [r7, #4]
 8000d36:	681b      	ldr	r3, [r3, #0]
 8000d38:	4a4a      	ldr	r2, [pc, #296]	; (8000e64 <HAL_I2C_MspInit+0x148>)
 8000d3a:	4293      	cmp	r3, r2
 8000d3c:	d12c      	bne.n	8000d98 <HAL_I2C_MspInit+0x7c>
  {
  /* USER CODE BEGIN I2C1_MspInit 0 */

  /* USER CODE END I2C1_MspInit 0 */

    __HAL_RCC_GPIOB_CLK_ENABLE();
 8000d3e:	2300      	movs	r3, #0
 8000d40:	61bb      	str	r3, [r7, #24]
 8000d42:	4b49      	ldr	r3, [pc, #292]	; (8000e68 <HAL_I2C_MspInit+0x14c>)
 8000d44:	6b1b      	ldr	r3, [r3, #48]	; 0x30
 8000d46:	4a48      	ldr	r2, [pc, #288]	; (8000e68 <HAL_I2C_MspInit+0x14c>)
 8000d48:	f043 0302 	orr.w	r3, r3, #2
 8000d4c:	6313      	str	r3, [r2, #48]	; 0x30
 8000d4e:	4b46      	ldr	r3, [pc, #280]	; (8000e68 <HAL_I2C_MspInit+0x14c>)
 8000d50:	6b1b      	ldr	r3, [r3, #48]	; 0x30
 8000d52:	f003 0302 	and.w	r3, r3, #2
 8000d56:	61bb      	str	r3, [r7, #24]
 8000d58:	69bb      	ldr	r3, [r7, #24]
    /**I2C1 GPIO Configuration
    PB6     ------> I2C1_SCL
    PB7     ------> I2C1_SDA
    */
    GPIO_InitStruct.Pin = GPIO_PIN_6|GPIO_PIN_7;
 8000d5a:	23c0      	movs	r3, #192	; 0xc0
 8000d5c:	61fb      	str	r3, [r7, #28]
    GPIO_InitStruct.Mode = GPIO_MODE_AF_OD;
 8000d5e:	2312      	movs	r3, #18
 8000d60:	623b      	str	r3, [r7, #32]
    GPIO_InitStruct.Pull = GPIO_NOPULL;
 8000d62:	2300      	movs	r3, #0
 8000d64:	627b      	str	r3, [r7, #36]	; 0x24
    GPIO_InitStruct.Speed = GPIO_SPEED_FREQ_VERY_HIGH;
 8000d66:	2303      	movs	r3, #3
 8000d68:	62bb      	str	r3, [r7, #40]	; 0x28
    GPIO_InitStruct.Alternate = GPIO_AF4_I2C1;
 8000d6a:	2304      	movs	r3, #4
 8000d6c:	62fb      	str	r3, [r7, #44]	; 0x2c
    HAL_GPIO_Init(GPIOB, &GPIO_InitStruct);
 8000d6e:	f107 031c 	add.w	r3, r7, #28
 8000d72:	4619      	mov	r1, r3
 8000d74:	483d      	ldr	r0, [pc, #244]	; (8000e6c <HAL_I2C_MspInit+0x150>)
 8000d76:	f000 fe6d 	bl	8001a54 <HAL_GPIO_Init>

    /* I2C1 clock enable */
    __HAL_RCC_I2C1_CLK_ENABLE();
 8000d7a:	2300      	movs	r3, #0
 8000d7c:	617b      	str	r3, [r7, #20]
 8000d7e:	4b3a      	ldr	r3, [pc, #232]	; (8000e68 <HAL_I2C_MspInit+0x14c>)
 8000d80:	6c1b      	ldr	r3, [r3, #64]	; 0x40
 8000d82:	4a39      	ldr	r2, [pc, #228]	; (8000e68 <HAL_I2C_MspInit+0x14c>)
 8000d84:	f443 1300 	orr.w	r3, r3, #2097152	; 0x200000
 8000d88:	6413      	str	r3, [r2, #64]	; 0x40
 8000d8a:	4b37      	ldr	r3, [pc, #220]	; (8000e68 <HAL_I2C_MspInit+0x14c>)
 8000d8c:	6c1b      	ldr	r3, [r3, #64]	; 0x40
 8000d8e:	f403 1300 	and.w	r3, r3, #2097152	; 0x200000
 8000d92:	617b      	str	r3, [r7, #20]
 8000d94:	697b      	ldr	r3, [r7, #20]
    HAL_NVIC_EnableIRQ(I2C3_ER_IRQn);
  /* USER CODE BEGIN I2C3_MspInit 1 */

  /* USER CODE END I2C3_MspInit 1 */
  }
}
 8000d96:	e060      	b.n	8000e5a <HAL_I2C_MspInit+0x13e>
  else if(i2cHandle->Instance==I2C3)
 8000d98:	687b      	ldr	r3, [r7, #4]
 8000d9a:	681b      	ldr	r3, [r3, #0]
 8000d9c:	4a34      	ldr	r2, [pc, #208]	; (8000e70 <HAL_I2C_MspInit+0x154>)
 8000d9e:	4293      	cmp	r3, r2
 8000da0:	d15b      	bne.n	8000e5a <HAL_I2C_MspInit+0x13e>
    __HAL_RCC_GPIOC_CLK_ENABLE();
 8000da2:	2300      	movs	r3, #0
 8000da4:	613b      	str	r3, [r7, #16]
 8000da6:	4b30      	ldr	r3, [pc, #192]	; (8000e68 <HAL_I2C_MspInit+0x14c>)
 8000da8:	6b1b      	ldr	r3, [r3, #48]	; 0x30
 8000daa:	4a2f      	ldr	r2, [pc, #188]	; (8000e68 <HAL_I2C_MspInit+0x14c>)
 8000dac:	f043 0304 	orr.w	r3, r3, #4
 8000db0:	6313      	str	r3, [r2, #48]	; 0x30
 8000db2:	4b2d      	ldr	r3, [pc, #180]	; (8000e68 <HAL_I2C_MspInit+0x14c>)
 8000db4:	6b1b      	ldr	r3, [r3, #48]	; 0x30
 8000db6:	f003 0304 	and.w	r3, r3, #4
 8000dba:	613b      	str	r3, [r7, #16]
 8000dbc:	693b      	ldr	r3, [r7, #16]
    __HAL_RCC_GPIOA_CLK_ENABLE();
 8000dbe:	2300      	movs	r3, #0
 8000dc0:	60fb      	str	r3, [r7, #12]
 8000dc2:	4b29      	ldr	r3, [pc, #164]	; (8000e68 <HAL_I2C_MspInit+0x14c>)
 8000dc4:	6b1b      	ldr	r3, [r3, #48]	; 0x30
 8000dc6:	4a28      	ldr	r2, [pc, #160]	; (8000e68 <HAL_I2C_MspInit+0x14c>)
 8000dc8:	f043 0301 	orr.w	r3, r3, #1
 8000dcc:	6313      	str	r3, [r2, #48]	; 0x30
 8000dce:	4b26      	ldr	r3, [pc, #152]	; (8000e68 <HAL_I2C_MspInit+0x14c>)
 8000dd0:	6b1b      	ldr	r3, [r3, #48]	; 0x30
 8000dd2:	f003 0301 	and.w	r3, r3, #1
 8000dd6:	60fb      	str	r3, [r7, #12]
 8000dd8:	68fb      	ldr	r3, [r7, #12]
    GPIO_InitStruct.Pin = GPIO_PIN_9;
 8000dda:	f44f 7300 	mov.w	r3, #512	; 0x200
 8000dde:	61fb      	str	r3, [r7, #28]
    GPIO_InitStruct.Mode = GPIO_MODE_AF_OD;
 8000de0:	2312      	movs	r3, #18
 8000de2:	623b      	str	r3, [r7, #32]
    GPIO_InitStruct.Pull = GPIO_NOPULL;
 8000de4:	2300      	movs	r3, #0
 8000de6:	627b      	str	r3, [r7, #36]	; 0x24
    GPIO_InitStruct.Speed = GPIO_SPEED_FREQ_VERY_HIGH;
 8000de8:	2303      	movs	r3, #3
 8000dea:	62bb      	str	r3, [r7, #40]	; 0x28
    GPIO_InitStruct.Alternate = GPIO_AF4_I2C3;
 8000dec:	2304      	movs	r3, #4
 8000dee:	62fb      	str	r3, [r7, #44]	; 0x2c
    HAL_GPIO_Init(GPIOC, &GPIO_InitStruct);
 8000df0:	f107 031c 	add.w	r3, r7, #28
 8000df4:	4619      	mov	r1, r3
 8000df6:	481f      	ldr	r0, [pc, #124]	; (8000e74 <HAL_I2C_MspInit+0x158>)
 8000df8:	f000 fe2c 	bl	8001a54 <HAL_GPIO_Init>
    GPIO_InitStruct.Pin = GPIO_PIN_8;
 8000dfc:	f44f 7380 	mov.w	r3, #256	; 0x100
 8000e00:	61fb      	str	r3, [r7, #28]
    GPIO_InitStruct.Mode = GPIO_MODE_AF_OD;
 8000e02:	2312      	movs	r3, #18
 8000e04:	623b      	str	r3, [r7, #32]
    GPIO_InitStruct.Pull = GPIO_NOPULL;
 8000e06:	2300      	movs	r3, #0
 8000e08:	627b      	str	r3, [r7, #36]	; 0x24
    GPIO_InitStruct.Speed = GPIO_SPEED_FREQ_VERY_HIGH;
 8000e0a:	2303      	movs	r3, #3
 8000e0c:	62bb      	str	r3, [r7, #40]	; 0x28
    GPIO_InitStruct.Alternate = GPIO_AF4_I2C3;
 8000e0e:	2304      	movs	r3, #4
 8000e10:	62fb      	str	r3, [r7, #44]	; 0x2c
    HAL_GPIO_Init(GPIOA, &GPIO_InitStruct);
 8000e12:	f107 031c 	add.w	r3, r7, #28
 8000e16:	4619      	mov	r1, r3
 8000e18:	4817      	ldr	r0, [pc, #92]	; (8000e78 <HAL_I2C_MspInit+0x15c>)
 8000e1a:	f000 fe1b 	bl	8001a54 <HAL_GPIO_Init>
    __HAL_RCC_I2C3_CLK_ENABLE();
 8000e1e:	2300      	movs	r3, #0
 8000e20:	60bb      	str	r3, [r7, #8]
 8000e22:	4b11      	ldr	r3, [pc, #68]	; (8000e68 <HAL_I2C_MspInit+0x14c>)
 8000e24:	6c1b      	ldr	r3, [r3, #64]	; 0x40
 8000e26:	4a10      	ldr	r2, [pc, #64]	; (8000e68 <HAL_I2C_MspInit+0x14c>)
 8000e28:	f443 0300 	orr.w	r3, r3, #8388608	; 0x800000
 8000e2c:	6413      	str	r3, [r2, #64]	; 0x40
 8000e2e:	4b0e      	ldr	r3, [pc, #56]	; (8000e68 <HAL_I2C_MspInit+0x14c>)
 8000e30:	6c1b      	ldr	r3, [r3, #64]	; 0x40
 8000e32:	f403 0300 	and.w	r3, r3, #8388608	; 0x800000
 8000e36:	60bb      	str	r3, [r7, #8]
 8000e38:	68bb      	ldr	r3, [r7, #8]
    HAL_NVIC_SetPriority(I2C3_EV_IRQn, 5, 0);
 8000e3a:	2200      	movs	r2, #0
 8000e3c:	2105      	movs	r1, #5
 8000e3e:	2048      	movs	r0, #72	; 0x48
 8000e40:	f000 fd32 	bl	80018a8 <HAL_NVIC_SetPriority>
    HAL_NVIC_EnableIRQ(I2C3_EV_IRQn);
 8000e44:	2048      	movs	r0, #72	; 0x48
 8000e46:	f000 fd4b 	bl	80018e0 <HAL_NVIC_EnableIRQ>
    HAL_NVIC_SetPriority(I2C3_ER_IRQn, 5, 0);
 8000e4a:	2200      	movs	r2, #0
 8000e4c:	2105      	movs	r1, #5
 8000e4e:	2049      	movs	r0, #73	; 0x49
 8000e50:	f000 fd2a 	bl	80018a8 <HAL_NVIC_SetPriority>
    HAL_NVIC_EnableIRQ(I2C3_ER_IRQn);
 8000e54:	2049      	movs	r0, #73	; 0x49
 8000e56:	f000 fd43 	bl	80018e0 <HAL_NVIC_EnableIRQ>
}
 8000e5a:	bf00      	nop
 8000e5c:	3730      	adds	r7, #48	; 0x30
 8000e5e:	46bd      	mov	sp, r7
 8000e60:	bd80      	pop	{r7, pc}
 8000e62:	bf00      	nop
 8000e64:	40005400 	.word	0x40005400
 8000e68:	40023800 	.word	0x40023800
 8000e6c:	40020400 	.word	0x40020400
 8000e70:	40005c00 	.word	0x40005c00
 8000e74:	40020800 	.word	0x40020800
 8000e78:	40020000 	.word	0x40020000

08000e7c <main>:
/**
  * @brief  The application entry point.
  * @retval int
  */
int main(void)
{
 8000e7c:	b580      	push	{r7, lr}
 8000e7e:	af00      	add	r7, sp, #0
  /* USER CODE END 1 */

  /* MCU Configuration--------------------------------------------------------*/

  /* Reset of all peripherals, Initializes the Flash interface and the Systick. */
  HAL_Init();
 8000e80:	f000 fbf4 	bl	800166c <HAL_Init>
  /* USER CODE BEGIN Init */

  /* USER CODE END Init */

  /* Configure the system clock */
  SystemClock_Config();
 8000e84:	f000 f810 	bl	8000ea8 <SystemClock_Config>
  /* USER CODE BEGIN SysInit */

  /* USER CODE END SysInit */

  /* Initialize all configured peripherals */
  MX_GPIO_Init();
 8000e88:	f7ff fe40 	bl	8000b0c <MX_GPIO_Init>
  MX_I2C1_Init();
 8000e8c:	f7ff feea 	bl	8000c64 <MX_I2C1_Init>
  MX_I2C3_Init();
 8000e90:	f7ff ff16 	bl	8000cc0 <MX_I2C3_Init>
  MX_USART1_UART_Init();
 8000e94:	f000 fade 	bl	8001454 <MX_USART1_UART_Init>
  MX_USART6_UART_Init();
 8000e98:	f000 fb06 	bl	80014a8 <MX_USART6_UART_Init>
  /* USER CODE BEGIN 2 */

  /* USER CODE END 2 */

  /* Call init function for freertos objects (in freertos.c) */
  MX_FREERTOS_Init();
 8000e9c:	f7ff fb2e 	bl	80004fc <MX_FREERTOS_Init>
  /* Start scheduler */
  osKernelStart();
 8000ea0:	f005 fd72 	bl	8006988 <osKernelStart>

  /* We should never get here as control is now taken by the scheduler */
  /* Infinite loop */
  /* USER CODE BEGIN WHILE */
  while (1)
 8000ea4:	e7fe      	b.n	8000ea4 <main+0x28>
	...

08000ea8 <SystemClock_Config>:
/**
  * @brief System Clock Configuration
  * @retval None
  */
void SystemClock_Config(void)
{
 8000ea8:	b580      	push	{r7, lr}
 8000eaa:	b094      	sub	sp, #80	; 0x50
 8000eac:	af00      	add	r7, sp, #0
  RCC_OscInitTypeDef RCC_OscInitStruct = {0};
 8000eae:	f107 0320 	add.w	r3, r7, #32
 8000eb2:	2230      	movs	r2, #48	; 0x30
 8000eb4:	2100      	movs	r1, #0
 8000eb6:	4618      	mov	r0, r3
 8000eb8:	f006 ffee 	bl	8007e98 <memset>
  RCC_ClkInitTypeDef RCC_ClkInitStruct = {0};
 8000ebc:	f107 030c 	add.w	r3, r7, #12
 8000ec0:	2200      	movs	r2, #0
 8000ec2:	601a      	str	r2, [r3, #0]
 8000ec4:	605a      	str	r2, [r3, #4]
 8000ec6:	609a      	str	r2, [r3, #8]
 8000ec8:	60da      	str	r2, [r3, #12]
 8000eca:	611a      	str	r2, [r3, #16]

  /** Configure the main internal regulator output voltage
  */
  __HAL_RCC_PWR_CLK_ENABLE();
 8000ecc:	2300      	movs	r3, #0
 8000ece:	60bb      	str	r3, [r7, #8]
 8000ed0:	4b28      	ldr	r3, [pc, #160]	; (8000f74 <SystemClock_Config+0xcc>)
 8000ed2:	6c1b      	ldr	r3, [r3, #64]	; 0x40
 8000ed4:	4a27      	ldr	r2, [pc, #156]	; (8000f74 <SystemClock_Config+0xcc>)
 8000ed6:	f043 5380 	orr.w	r3, r3, #268435456	; 0x10000000
 8000eda:	6413      	str	r3, [r2, #64]	; 0x40
 8000edc:	4b25      	ldr	r3, [pc, #148]	; (8000f74 <SystemClock_Config+0xcc>)
 8000ede:	6c1b      	ldr	r3, [r3, #64]	; 0x40
 8000ee0:	f003 5380 	and.w	r3, r3, #268435456	; 0x10000000
 8000ee4:	60bb      	str	r3, [r7, #8]
 8000ee6:	68bb      	ldr	r3, [r7, #8]
  __HAL_PWR_VOLTAGESCALING_CONFIG(PWR_REGULATOR_VOLTAGE_SCALE1);
 8000ee8:	2300      	movs	r3, #0
 8000eea:	607b      	str	r3, [r7, #4]
 8000eec:	4b22      	ldr	r3, [pc, #136]	; (8000f78 <SystemClock_Config+0xd0>)
 8000eee:	681b      	ldr	r3, [r3, #0]
 8000ef0:	4a21      	ldr	r2, [pc, #132]	; (8000f78 <SystemClock_Config+0xd0>)
 8000ef2:	f443 4380 	orr.w	r3, r3, #16384	; 0x4000
 8000ef6:	6013      	str	r3, [r2, #0]
 8000ef8:	4b1f      	ldr	r3, [pc, #124]	; (8000f78 <SystemClock_Config+0xd0>)
 8000efa:	681b      	ldr	r3, [r3, #0]
 8000efc:	f403 4380 	and.w	r3, r3, #16384	; 0x4000
 8000f00:	607b      	str	r3, [r7, #4]
 8000f02:	687b      	ldr	r3, [r7, #4]
  /** Initializes the RCC Oscillators according to the specified parameters
  * in the RCC_OscInitTypeDef structure.
  */
  RCC_OscInitStruct.OscillatorType = RCC_OSCILLATORTYPE_HSI;
 8000f04:	2302      	movs	r3, #2
 8000f06:	623b      	str	r3, [r7, #32]
  RCC_OscInitStruct.HSIState = RCC_HSI_ON;
 8000f08:	2301      	movs	r3, #1
 8000f0a:	62fb      	str	r3, [r7, #44]	; 0x2c
  RCC_OscInitStruct.HSICalibrationValue = RCC_HSICALIBRATION_DEFAULT;
 8000f0c:	2310      	movs	r3, #16
 8000f0e:	633b      	str	r3, [r7, #48]	; 0x30
  RCC_OscInitStruct.PLL.PLLState = RCC_PLL_ON;
 8000f10:	2302      	movs	r3, #2
 8000f12:	63bb      	str	r3, [r7, #56]	; 0x38
  RCC_OscInitStruct.PLL.PLLSource = RCC_PLLSOURCE_HSI;
 8000f14:	2300      	movs	r3, #0
 8000f16:	63fb      	str	r3, [r7, #60]	; 0x3c
  RCC_OscInitStruct.PLL.PLLM = 8;
 8000f18:	2308      	movs	r3, #8
 8000f1a:	643b      	str	r3, [r7, #64]	; 0x40
  RCC_OscInitStruct.PLL.PLLN = 168;
 8000f1c:	23a8      	movs	r3, #168	; 0xa8
 8000f1e:	647b      	str	r3, [r7, #68]	; 0x44
  RCC_OscInitStruct.PLL.PLLP = RCC_PLLP_DIV2;
 8000f20:	2302      	movs	r3, #2
 8000f22:	64bb      	str	r3, [r7, #72]	; 0x48
  RCC_OscInitStruct.PLL.PLLQ = 4;
 8000f24:	2304      	movs	r3, #4
 8000f26:	64fb      	str	r3, [r7, #76]	; 0x4c
  if (HAL_RCC_OscConfig(&RCC_OscInitStruct) != HAL_OK)
 8000f28:	f107 0320 	add.w	r3, r7, #32
 8000f2c:	4618      	mov	r0, r3
 8000f2e:	f003 fd55 	bl	80049dc <HAL_RCC_OscConfig>
 8000f32:	4603      	mov	r3, r0
 8000f34:	2b00      	cmp	r3, #0
 8000f36:	d001      	beq.n	8000f3c <SystemClock_Config+0x94>
  {
    Error_Handler();
 8000f38:	f000 f844 	bl	8000fc4 <Error_Handler>
  }
  /** Initializes the CPU, AHB and APB buses clocks
  */
  RCC_ClkInitStruct.ClockType = RCC_CLOCKTYPE_HCLK|RCC_CLOCKTYPE_SYSCLK
 8000f3c:	230f      	movs	r3, #15
 8000f3e:	60fb      	str	r3, [r7, #12]
                              |RCC_CLOCKTYPE_PCLK1|RCC_CLOCKTYPE_PCLK2;
  RCC_ClkInitStruct.SYSCLKSource = RCC_SYSCLKSOURCE_PLLCLK;
 8000f40:	2302      	movs	r3, #2
 8000f42:	613b      	str	r3, [r7, #16]
  RCC_ClkInitStruct.AHBCLKDivider = RCC_SYSCLK_DIV1;
 8000f44:	2300      	movs	r3, #0
 8000f46:	617b      	str	r3, [r7, #20]
  RCC_ClkInitStruct.APB1CLKDivider = RCC_HCLK_DIV4;
 8000f48:	f44f 53a0 	mov.w	r3, #5120	; 0x1400
 8000f4c:	61bb      	str	r3, [r7, #24]
  RCC_ClkInitStruct.APB2CLKDivider = RCC_HCLK_DIV2;
 8000f4e:	f44f 5380 	mov.w	r3, #4096	; 0x1000
 8000f52:	61fb      	str	r3, [r7, #28]

  if (HAL_RCC_ClockConfig(&RCC_ClkInitStruct, FLASH_LATENCY_5) != HAL_OK)
 8000f54:	f107 030c 	add.w	r3, r7, #12
 8000f58:	2105      	movs	r1, #5
 8000f5a:	4618      	mov	r0, r3
 8000f5c:	f003 ffb6 	bl	8004ecc <HAL_RCC_ClockConfig>
 8000f60:	4603      	mov	r3, r0
 8000f62:	2b00      	cmp	r3, #0
 8000f64:	d001      	beq.n	8000f6a <SystemClock_Config+0xc2>
  {
    Error_Handler();
 8000f66:	f000 f82d 	bl	8000fc4 <Error_Handler>
  }
}
 8000f6a:	bf00      	nop
 8000f6c:	3750      	adds	r7, #80	; 0x50
 8000f6e:	46bd      	mov	sp, r7
 8000f70:	bd80      	pop	{r7, pc}
 8000f72:	bf00      	nop
 8000f74:	40023800 	.word	0x40023800
 8000f78:	40007000 	.word	0x40007000

08000f7c <HAL_TIM_PeriodElapsedCallback>:
  * a global variable "uwTick" used as application time base.
  * @param  htim : TIM handle
  * @retval None
  */
void HAL_TIM_PeriodElapsedCallback(TIM_HandleTypeDef *htim)
{
 8000f7c:	b580      	push	{r7, lr}
 8000f7e:	b082      	sub	sp, #8
 8000f80:	af00      	add	r7, sp, #0
 8000f82:	6078      	str	r0, [r7, #4]
  /* USER CODE BEGIN Callback 0 */
	  if (htim->Instance == TIM7) {
 8000f84:	687b      	ldr	r3, [r7, #4]
 8000f86:	681b      	ldr	r3, [r3, #0]
 8000f88:	4a0b      	ldr	r2, [pc, #44]	; (8000fb8 <HAL_TIM_PeriodElapsedCallback+0x3c>)
 8000f8a:	4293      	cmp	r3, r2
 8000f8c:	d108      	bne.n	8000fa0 <HAL_TIM_PeriodElapsedCallback+0x24>
	    if (status_uartTIM) {
 8000f8e:	4b0b      	ldr	r3, [pc, #44]	; (8000fbc <HAL_TIM_PeriodElapsedCallback+0x40>)
 8000f90:	781b      	ldrb	r3, [r3, #0]
 8000f92:	2b00      	cmp	r3, #0
 8000f94:	d004      	beq.n	8000fa0 <HAL_TIM_PeriodElapsedCallback+0x24>
	    	uartTIM++;
 8000f96:	4b0a      	ldr	r3, [pc, #40]	; (8000fc0 <HAL_TIM_PeriodElapsedCallback+0x44>)
 8000f98:	681b      	ldr	r3, [r3, #0]
 8000f9a:	3301      	adds	r3, #1
 8000f9c:	4a08      	ldr	r2, [pc, #32]	; (8000fc0 <HAL_TIM_PeriodElapsedCallback+0x44>)
 8000f9e:	6013      	str	r3, [r2, #0]
		}

	  }

  /* USER CODE END Callback 0 */
  if (htim->Instance == TIM7) {
 8000fa0:	687b      	ldr	r3, [r7, #4]
 8000fa2:	681b      	ldr	r3, [r3, #0]
 8000fa4:	4a04      	ldr	r2, [pc, #16]	; (8000fb8 <HAL_TIM_PeriodElapsedCallback+0x3c>)
 8000fa6:	4293      	cmp	r3, r2
 8000fa8:	d101      	bne.n	8000fae <HAL_TIM_PeriodElapsedCallback+0x32>
    HAL_IncTick();
 8000faa:	f000 fb81 	bl	80016b0 <HAL_IncTick>
  }
  /* USER CODE BEGIN Callback 1 */

  /* USER CODE END Callback 1 */
}
 8000fae:	bf00      	nop
 8000fb0:	3708      	adds	r7, #8
 8000fb2:	46bd      	mov	sp, r7
 8000fb4:	bd80      	pop	{r7, pc}
 8000fb6:	bf00      	nop
 8000fb8:	40001400 	.word	0x40001400
 8000fbc:	2000058c 	.word	0x2000058c
 8000fc0:	20000588 	.word	0x20000588

08000fc4 <Error_Handler>:
/**
  * @brief  This function is executed in case of error occurrence.
  * @retval None
  */
void Error_Handler(void)
{
 8000fc4:	b480      	push	{r7}
 8000fc6:	af00      	add	r7, sp, #0
  \details Disables IRQ interrupts by setting the I-bit in the CPSR.
           Can only be executed in Privileged modes.
 */
__STATIC_FORCEINLINE void __disable_irq(void)
{
  __ASM volatile ("cpsid i" : : : "memory");
 8000fc8:	b672      	cpsid	i
}
 8000fca:	bf00      	nop
  /* USER CODE BEGIN Error_Handler_Debug */
  /* User can add his own implementation to report the HAL error return state */
  __disable_irq();
  while (1)
 8000fcc:	e7fe      	b.n	8000fcc <Error_Handler+0x8>
	...

08000fd0 <WriteCmd>:
0xC8, 0xD3, 0x00, 0xD5, 0x80, 0xD8, 0x05, 0xD9, 0xF1, 0xDA, 0x12,
					
0xD8, 0x30, 0x8D, 0x14, 0xAF};

void WriteCmd()
{
 8000fd0:	b580      	push	{r7, lr}
 8000fd2:	b086      	sub	sp, #24
 8000fd4:	af04      	add	r7, sp, #16
	uint8_t i = 0;
 8000fd6:	2300      	movs	r3, #0
 8000fd8:	71fb      	strb	r3, [r7, #7]
	for(i=0; i<27; i++){
 8000fda:	2300      	movs	r3, #0
 8000fdc:	71fb      	strb	r3, [r7, #7]
 8000fde:	e011      	b.n	8001004 <WriteCmd+0x34>
		HAL_I2C_Mem_Write(&hi2c3 ,0x78,0x00,I2C_MEMADD_SIZE_8BIT,CMD_Data+i,1,0x100);
 8000fe0:	79fb      	ldrb	r3, [r7, #7]
 8000fe2:	4a0c      	ldr	r2, [pc, #48]	; (8001014 <WriteCmd+0x44>)
 8000fe4:	4413      	add	r3, r2
 8000fe6:	f44f 7280 	mov.w	r2, #256	; 0x100
 8000fea:	9202      	str	r2, [sp, #8]
 8000fec:	2201      	movs	r2, #1
 8000fee:	9201      	str	r2, [sp, #4]
 8000ff0:	9300      	str	r3, [sp, #0]
 8000ff2:	2301      	movs	r3, #1
 8000ff4:	2200      	movs	r2, #0
 8000ff6:	2178      	movs	r1, #120	; 0x78
 8000ff8:	4807      	ldr	r0, [pc, #28]	; (8001018 <WriteCmd+0x48>)
 8000ffa:	f001 fb61 	bl	80026c0 <HAL_I2C_Mem_Write>
	for(i=0; i<27; i++){
 8000ffe:	79fb      	ldrb	r3, [r7, #7]
 8001000:	3301      	adds	r3, #1
 8001002:	71fb      	strb	r3, [r7, #7]
 8001004:	79fb      	ldrb	r3, [r7, #7]
 8001006:	2b1a      	cmp	r3, #26
 8001008:	d9ea      	bls.n	8000fe0 <WriteCmd+0x10>
	}
}
 800100a:	bf00      	nop
 800100c:	bf00      	nop
 800100e:	3708      	adds	r7, #8
 8001010:	46bd      	mov	sp, r7
 8001012:	bd80      	pop	{r7, pc}
 8001014:	20000000 	.word	0x20000000
 8001018:	200042fc 	.word	0x200042fc

0800101c <OLED_WR_CMD>:

//Записать управляющие команды в устройство
void OLED_WR_CMD(uint8_t cmd)
{
 800101c:	b580      	push	{r7, lr}
 800101e:	b086      	sub	sp, #24
 8001020:	af04      	add	r7, sp, #16
 8001022:	4603      	mov	r3, r0
 8001024:	71fb      	strb	r3, [r7, #7]
	HAL_I2C_Mem_Write(&hi2c3 ,0x78,0x00,I2C_MEMADD_SIZE_8BIT,&cmd,1,0x100);
 8001026:	f44f 7380 	mov.w	r3, #256	; 0x100
 800102a:	9302      	str	r3, [sp, #8]
 800102c:	2301      	movs	r3, #1
 800102e:	9301      	str	r3, [sp, #4]
 8001030:	1dfb      	adds	r3, r7, #7
 8001032:	9300      	str	r3, [sp, #0]
 8001034:	2301      	movs	r3, #1
 8001036:	2200      	movs	r2, #0
 8001038:	2178      	movs	r1, #120	; 0x78
 800103a:	4803      	ldr	r0, [pc, #12]	; (8001048 <OLED_WR_CMD+0x2c>)
 800103c:	f001 fb40 	bl	80026c0 <HAL_I2C_Mem_Write>
}
 8001040:	bf00      	nop
 8001042:	3708      	adds	r7, #8
 8001044:	46bd      	mov	sp, r7
 8001046:	bd80      	pop	{r7, pc}
 8001048:	200042fc 	.word	0x200042fc

0800104c <OLED_WR_DATA>:

//Записать данные на устройство
void OLED_WR_DATA(uint8_t data)
{
 800104c:	b580      	push	{r7, lr}
 800104e:	b086      	sub	sp, #24
 8001050:	af04      	add	r7, sp, #16
 8001052:	4603      	mov	r3, r0
 8001054:	71fb      	strb	r3, [r7, #7]
	HAL_I2C_Mem_Write(&hi2c3 ,0x78,0x40,I2C_MEMADD_SIZE_8BIT,&data,1,0x100);
 8001056:	f44f 7380 	mov.w	r3, #256	; 0x100
 800105a:	9302      	str	r3, [sp, #8]
 800105c:	2301      	movs	r3, #1
 800105e:	9301      	str	r3, [sp, #4]
 8001060:	1dfb      	adds	r3, r7, #7
 8001062:	9300      	str	r3, [sp, #0]
 8001064:	2301      	movs	r3, #1
 8001066:	2240      	movs	r2, #64	; 0x40
 8001068:	2178      	movs	r1, #120	; 0x78
 800106a:	4803      	ldr	r0, [pc, #12]	; (8001078 <OLED_WR_DATA+0x2c>)
 800106c:	f001 fb28 	bl	80026c0 <HAL_I2C_Mem_Write>
}
 8001070:	bf00      	nop
 8001072:	3708      	adds	r7, #8
 8001074:	46bd      	mov	sp, r7
 8001076:	bd80      	pop	{r7, pc}
 8001078:	200042fc 	.word	0x200042fc

0800107c <OLED_Init>:

//Инициализировать oled-экран
void OLED_Init(void)
{ 	
 800107c:	b580      	push	{r7, lr}
 800107e:	af00      	add	r7, sp, #0
	HAL_Delay(200);
 8001080:	20c8      	movs	r0, #200	; 0xc8
 8001082:	f000 fb35 	bl	80016f0 <HAL_Delay>
	WriteCmd();
 8001086:	f7ff ffa3 	bl	8000fd0 <WriteCmd>
}
 800108a:	bf00      	nop
 800108c:	bd80      	pop	{r7, pc}

0800108e <OLED_Clear>:

//Очисти экран
void OLED_Clear()
{
 800108e:	b580      	push	{r7, lr}
 8001090:	b082      	sub	sp, #8
 8001092:	af00      	add	r7, sp, #0
	uint8_t i,n;		    
	for(i=0;i<8;i++)  
 8001094:	2300      	movs	r3, #0
 8001096:	71fb      	strb	r3, [r7, #7]
 8001098:	e01b      	b.n	80010d2 <OLED_Clear+0x44>
	{  
		OLED_WR_CMD(0xb0+i);
 800109a:	79fb      	ldrb	r3, [r7, #7]
 800109c:	3b50      	subs	r3, #80	; 0x50
 800109e:	b2db      	uxtb	r3, r3
 80010a0:	4618      	mov	r0, r3
 80010a2:	f7ff ffbb 	bl	800101c <OLED_WR_CMD>
		OLED_WR_CMD (0x00); 
 80010a6:	2000      	movs	r0, #0
 80010a8:	f7ff ffb8 	bl	800101c <OLED_WR_CMD>
		OLED_WR_CMD (0x10); 
 80010ac:	2010      	movs	r0, #16
 80010ae:	f7ff ffb5 	bl	800101c <OLED_WR_CMD>
		for(n=0;n<128;n++)
 80010b2:	2300      	movs	r3, #0
 80010b4:	71bb      	strb	r3, [r7, #6]
 80010b6:	e005      	b.n	80010c4 <OLED_Clear+0x36>
			OLED_WR_DATA(0);
 80010b8:	2000      	movs	r0, #0
 80010ba:	f7ff ffc7 	bl	800104c <OLED_WR_DATA>
		for(n=0;n<128;n++)
 80010be:	79bb      	ldrb	r3, [r7, #6]
 80010c0:	3301      	adds	r3, #1
 80010c2:	71bb      	strb	r3, [r7, #6]
 80010c4:	f997 3006 	ldrsb.w	r3, [r7, #6]
 80010c8:	2b00      	cmp	r3, #0
 80010ca:	daf5      	bge.n	80010b8 <OLED_Clear+0x2a>
	for(i=0;i<8;i++)  
 80010cc:	79fb      	ldrb	r3, [r7, #7]
 80010ce:	3301      	adds	r3, #1
 80010d0:	71fb      	strb	r3, [r7, #7]
 80010d2:	79fb      	ldrb	r3, [r7, #7]
 80010d4:	2b07      	cmp	r3, #7
 80010d6:	d9e0      	bls.n	800109a <OLED_Clear+0xc>
	} 
}
 80010d8:	bf00      	nop
 80010da:	bf00      	nop
 80010dc:	3708      	adds	r7, #8
 80010de:	46bd      	mov	sp, r7
 80010e0:	bd80      	pop	{r7, pc}

080010e2 <OLED_Display_On>:

//Включите OLED-дисплей
void OLED_Display_On(void)
{
 80010e2:	b580      	push	{r7, lr}
 80010e4:	af00      	add	r7, sp, #0
	OLED_WR_CMD(0X8D);  //Команда SET DCDC
 80010e6:	208d      	movs	r0, #141	; 0x8d
 80010e8:	f7ff ff98 	bl	800101c <OLED_WR_CMD>
	OLED_WR_CMD(0X14);  //DCDC ON
 80010ec:	2014      	movs	r0, #20
 80010ee:	f7ff ff95 	bl	800101c <OLED_WR_CMD>
	OLED_WR_CMD(0XAF);  //DISPLAY ON
 80010f2:	20af      	movs	r0, #175	; 0xaf
 80010f4:	f7ff ff92 	bl	800101c <OLED_WR_CMD>
}
 80010f8:	bf00      	nop
 80010fa:	bd80      	pop	{r7, pc}

080010fc <OLED_Set_Pos>:
	OLED_WR_CMD(0X10);  //DCDC OFF
	OLED_WR_CMD(0XAE);  //DISPLAY OFF
}

void OLED_Set_Pos(uint8_t x, uint8_t y) 
{ 	
 80010fc:	b580      	push	{r7, lr}
 80010fe:	b082      	sub	sp, #8
 8001100:	af00      	add	r7, sp, #0
 8001102:	4603      	mov	r3, r0
 8001104:	460a      	mov	r2, r1
 8001106:	71fb      	strb	r3, [r7, #7]
 8001108:	4613      	mov	r3, r2
 800110a:	71bb      	strb	r3, [r7, #6]
	OLED_WR_CMD(0xb0+y);
 800110c:	79bb      	ldrb	r3, [r7, #6]
 800110e:	3b50      	subs	r3, #80	; 0x50
 8001110:	b2db      	uxtb	r3, r3
 8001112:	4618      	mov	r0, r3
 8001114:	f7ff ff82 	bl	800101c <OLED_WR_CMD>
	OLED_WR_CMD(((x&0xf0)>>4)|0x10);
 8001118:	79fb      	ldrb	r3, [r7, #7]
 800111a:	091b      	lsrs	r3, r3, #4
 800111c:	b2db      	uxtb	r3, r3
 800111e:	f043 0310 	orr.w	r3, r3, #16
 8001122:	b2db      	uxtb	r3, r3
 8001124:	4618      	mov	r0, r3
 8001126:	f7ff ff79 	bl	800101c <OLED_WR_CMD>
	OLED_WR_CMD(x&0x0f);
 800112a:	79fb      	ldrb	r3, [r7, #7]
 800112c:	f003 030f 	and.w	r3, r3, #15
 8001130:	b2db      	uxtb	r3, r3
 8001132:	4618      	mov	r0, r3
 8001134:	f7ff ff72 	bl	800101c <OLED_WR_CMD>
} 
 8001138:	bf00      	nop
 800113a:	3708      	adds	r7, #8
 800113c:	46bd      	mov	sp, r7
 800113e:	bd80      	pop	{r7, pc}

08001140 <OLED_ShowChar>:
//x:0~127
//y:0~63
//chr: 0, обратный дисплей; 1, нормальный дисплей
//Char_Size: выберите шрифт 16/12
void OLED_ShowChar(uint8_t x,uint8_t y,uint8_t chr,uint8_t Char_Size)
{      	
 8001140:	b590      	push	{r4, r7, lr}
 8001142:	b085      	sub	sp, #20
 8001144:	af00      	add	r7, sp, #0
 8001146:	4604      	mov	r4, r0
 8001148:	4608      	mov	r0, r1
 800114a:	4611      	mov	r1, r2
 800114c:	461a      	mov	r2, r3
 800114e:	4623      	mov	r3, r4
 8001150:	71fb      	strb	r3, [r7, #7]
 8001152:	4603      	mov	r3, r0
 8001154:	71bb      	strb	r3, [r7, #6]
 8001156:	460b      	mov	r3, r1
 8001158:	717b      	strb	r3, [r7, #5]
 800115a:	4613      	mov	r3, r2
 800115c:	713b      	strb	r3, [r7, #4]
	unsigned char c=0,i=0;	
 800115e:	2300      	movs	r3, #0
 8001160:	73bb      	strb	r3, [r7, #14]
 8001162:	2300      	movs	r3, #0
 8001164:	73fb      	strb	r3, [r7, #15]
		c=chr-' ';//Получить значение смещения
 8001166:	797b      	ldrb	r3, [r7, #5]
 8001168:	3b20      	subs	r3, #32
 800116a:	73bb      	strb	r3, [r7, #14]
		if(x>128-1){x=0;y=y+2;}
 800116c:	f997 3007 	ldrsb.w	r3, [r7, #7]
 8001170:	2b00      	cmp	r3, #0
 8001172:	da04      	bge.n	800117e <OLED_ShowChar+0x3e>
 8001174:	2300      	movs	r3, #0
 8001176:	71fb      	strb	r3, [r7, #7]
 8001178:	79bb      	ldrb	r3, [r7, #6]
 800117a:	3302      	adds	r3, #2
 800117c:	71bb      	strb	r3, [r7, #6]
		if(Char_Size ==16)
 800117e:	793b      	ldrb	r3, [r7, #4]
 8001180:	2b10      	cmp	r3, #16
 8001182:	d133      	bne.n	80011ec <OLED_ShowChar+0xac>
			{
			OLED_Set_Pos(x,y);	
 8001184:	79ba      	ldrb	r2, [r7, #6]
 8001186:	79fb      	ldrb	r3, [r7, #7]
 8001188:	4611      	mov	r1, r2
 800118a:	4618      	mov	r0, r3
 800118c:	f7ff ffb6 	bl	80010fc <OLED_Set_Pos>
			for(i=0;i<8;i++)
 8001190:	2300      	movs	r3, #0
 8001192:	73fb      	strb	r3, [r7, #15]
 8001194:	e00b      	b.n	80011ae <OLED_ShowChar+0x6e>
			OLED_WR_DATA(F8x16[c*16+i]);
 8001196:	7bbb      	ldrb	r3, [r7, #14]
 8001198:	011a      	lsls	r2, r3, #4
 800119a:	7bfb      	ldrb	r3, [r7, #15]
 800119c:	4413      	add	r3, r2
 800119e:	4a23      	ldr	r2, [pc, #140]	; (800122c <OLED_ShowChar+0xec>)
 80011a0:	5cd3      	ldrb	r3, [r2, r3]
 80011a2:	4618      	mov	r0, r3
 80011a4:	f7ff ff52 	bl	800104c <OLED_WR_DATA>
			for(i=0;i<8;i++)
 80011a8:	7bfb      	ldrb	r3, [r7, #15]
 80011aa:	3301      	adds	r3, #1
 80011ac:	73fb      	strb	r3, [r7, #15]
 80011ae:	7bfb      	ldrb	r3, [r7, #15]
 80011b0:	2b07      	cmp	r3, #7
 80011b2:	d9f0      	bls.n	8001196 <OLED_ShowChar+0x56>
			OLED_Set_Pos(x,y+1);
 80011b4:	79bb      	ldrb	r3, [r7, #6]
 80011b6:	3301      	adds	r3, #1
 80011b8:	b2da      	uxtb	r2, r3
 80011ba:	79fb      	ldrb	r3, [r7, #7]
 80011bc:	4611      	mov	r1, r2
 80011be:	4618      	mov	r0, r3
 80011c0:	f7ff ff9c 	bl	80010fc <OLED_Set_Pos>
			for(i=0;i<8;i++)
 80011c4:	2300      	movs	r3, #0
 80011c6:	73fb      	strb	r3, [r7, #15]
 80011c8:	e00c      	b.n	80011e4 <OLED_ShowChar+0xa4>
			OLED_WR_DATA(F8x16[c*16+i+8]);
 80011ca:	7bbb      	ldrb	r3, [r7, #14]
 80011cc:	011a      	lsls	r2, r3, #4
 80011ce:	7bfb      	ldrb	r3, [r7, #15]
 80011d0:	4413      	add	r3, r2
 80011d2:	3308      	adds	r3, #8
 80011d4:	4a15      	ldr	r2, [pc, #84]	; (800122c <OLED_ShowChar+0xec>)
 80011d6:	5cd3      	ldrb	r3, [r2, r3]
 80011d8:	4618      	mov	r0, r3
 80011da:	f7ff ff37 	bl	800104c <OLED_WR_DATA>
			for(i=0;i<8;i++)
 80011de:	7bfb      	ldrb	r3, [r7, #15]
 80011e0:	3301      	adds	r3, #1
 80011e2:	73fb      	strb	r3, [r7, #15]
 80011e4:	7bfb      	ldrb	r3, [r7, #15]
 80011e6:	2b07      	cmp	r3, #7
 80011e8:	d9ef      	bls.n	80011ca <OLED_ShowChar+0x8a>
				OLED_Set_Pos(x,y);
				for(i=0;i<6;i++)
				OLED_WR_DATA(F6x8[c][i]);
				
			}
}
 80011ea:	e01b      	b.n	8001224 <OLED_ShowChar+0xe4>
				OLED_Set_Pos(x,y);
 80011ec:	79ba      	ldrb	r2, [r7, #6]
 80011ee:	79fb      	ldrb	r3, [r7, #7]
 80011f0:	4611      	mov	r1, r2
 80011f2:	4618      	mov	r0, r3
 80011f4:	f7ff ff82 	bl	80010fc <OLED_Set_Pos>
				for(i=0;i<6;i++)
 80011f8:	2300      	movs	r3, #0
 80011fa:	73fb      	strb	r3, [r7, #15]
 80011fc:	e00f      	b.n	800121e <OLED_ShowChar+0xde>
				OLED_WR_DATA(F6x8[c][i]);
 80011fe:	7bba      	ldrb	r2, [r7, #14]
 8001200:	7bf9      	ldrb	r1, [r7, #15]
 8001202:	480b      	ldr	r0, [pc, #44]	; (8001230 <OLED_ShowChar+0xf0>)
 8001204:	4613      	mov	r3, r2
 8001206:	005b      	lsls	r3, r3, #1
 8001208:	4413      	add	r3, r2
 800120a:	005b      	lsls	r3, r3, #1
 800120c:	4403      	add	r3, r0
 800120e:	440b      	add	r3, r1
 8001210:	781b      	ldrb	r3, [r3, #0]
 8001212:	4618      	mov	r0, r3
 8001214:	f7ff ff1a 	bl	800104c <OLED_WR_DATA>
				for(i=0;i<6;i++)
 8001218:	7bfb      	ldrb	r3, [r7, #15]
 800121a:	3301      	adds	r3, #1
 800121c:	73fb      	strb	r3, [r7, #15]
 800121e:	7bfb      	ldrb	r3, [r7, #15]
 8001220:	2b05      	cmp	r3, #5
 8001222:	d9ec      	bls.n	80011fe <OLED_ShowChar+0xbe>
}
 8001224:	bf00      	nop
 8001226:	3714      	adds	r7, #20
 8001228:	46bd      	mov	sp, r7
 800122a:	bd90      	pop	{r4, r7, pc}
 800122c:	0800833c 	.word	0x0800833c
 8001230:	08008114 	.word	0x08008114

08001234 <OLED_ShowString>:
	 	OLED_ShowChar(x+(size2/2)*t,y,temp+'0',size2); 
	}
} 
//Отобразить символьную строку
void OLED_ShowString(uint8_t x,uint8_t y,uint8_t *chr,uint8_t Char_Size)
{
 8001234:	b580      	push	{r7, lr}
 8001236:	b084      	sub	sp, #16
 8001238:	af00      	add	r7, sp, #0
 800123a:	603a      	str	r2, [r7, #0]
 800123c:	461a      	mov	r2, r3
 800123e:	4603      	mov	r3, r0
 8001240:	71fb      	strb	r3, [r7, #7]
 8001242:	460b      	mov	r3, r1
 8001244:	71bb      	strb	r3, [r7, #6]
 8001246:	4613      	mov	r3, r2
 8001248:	717b      	strb	r3, [r7, #5]
	unsigned char j=0;
 800124a:	2300      	movs	r3, #0
 800124c:	73fb      	strb	r3, [r7, #15]
	while (chr[j]!='\0')
 800124e:	e016      	b.n	800127e <OLED_ShowString+0x4a>
	{		OLED_ShowChar(x,y,chr[j],Char_Size);
 8001250:	7bfb      	ldrb	r3, [r7, #15]
 8001252:	683a      	ldr	r2, [r7, #0]
 8001254:	4413      	add	r3, r2
 8001256:	781a      	ldrb	r2, [r3, #0]
 8001258:	797b      	ldrb	r3, [r7, #5]
 800125a:	79b9      	ldrb	r1, [r7, #6]
 800125c:	79f8      	ldrb	r0, [r7, #7]
 800125e:	f7ff ff6f 	bl	8001140 <OLED_ShowChar>
			x+=8;
 8001262:	79fb      	ldrb	r3, [r7, #7]
 8001264:	3308      	adds	r3, #8
 8001266:	71fb      	strb	r3, [r7, #7]
		if(x>120){x=0;y+=2;}
 8001268:	79fb      	ldrb	r3, [r7, #7]
 800126a:	2b78      	cmp	r3, #120	; 0x78
 800126c:	d904      	bls.n	8001278 <OLED_ShowString+0x44>
 800126e:	2300      	movs	r3, #0
 8001270:	71fb      	strb	r3, [r7, #7]
 8001272:	79bb      	ldrb	r3, [r7, #6]
 8001274:	3302      	adds	r3, #2
 8001276:	71bb      	strb	r3, [r7, #6]
			j++;
 8001278:	7bfb      	ldrb	r3, [r7, #15]
 800127a:	3301      	adds	r3, #1
 800127c:	73fb      	strb	r3, [r7, #15]
	while (chr[j]!='\0')
 800127e:	7bfb      	ldrb	r3, [r7, #15]
 8001280:	683a      	ldr	r2, [r7, #0]
 8001282:	4413      	add	r3, r2
 8001284:	781b      	ldrb	r3, [r3, #0]
 8001286:	2b00      	cmp	r3, #0
 8001288:	d1e2      	bne.n	8001250 <OLED_ShowString+0x1c>
	}
}
 800128a:	bf00      	nop
 800128c:	bf00      	nop
 800128e:	3710      	adds	r7, #16
 8001290:	46bd      	mov	sp, r7
 8001292:	bd80      	pop	{r7, pc}

08001294 <HAL_MspInit>:
/* USER CODE END 0 */
/**
  * Initializes the Global MSP.
  */
void HAL_MspInit(void)
{
 8001294:	b580      	push	{r7, lr}
 8001296:	b082      	sub	sp, #8
 8001298:	af00      	add	r7, sp, #0
  /* USER CODE BEGIN MspInit 0 */

  /* USER CODE END MspInit 0 */

  __HAL_RCC_SYSCFG_CLK_ENABLE();
 800129a:	2300      	movs	r3, #0
 800129c:	607b      	str	r3, [r7, #4]
 800129e:	4b12      	ldr	r3, [pc, #72]	; (80012e8 <HAL_MspInit+0x54>)
 80012a0:	6c5b      	ldr	r3, [r3, #68]	; 0x44
 80012a2:	4a11      	ldr	r2, [pc, #68]	; (80012e8 <HAL_MspInit+0x54>)
 80012a4:	f443 4380 	orr.w	r3, r3, #16384	; 0x4000
 80012a8:	6453      	str	r3, [r2, #68]	; 0x44
 80012aa:	4b0f      	ldr	r3, [pc, #60]	; (80012e8 <HAL_MspInit+0x54>)
 80012ac:	6c5b      	ldr	r3, [r3, #68]	; 0x44
 80012ae:	f403 4380 	and.w	r3, r3, #16384	; 0x4000
 80012b2:	607b      	str	r3, [r7, #4]
 80012b4:	687b      	ldr	r3, [r7, #4]
  __HAL_RCC_PWR_CLK_ENABLE();
 80012b6:	2300      	movs	r3, #0
 80012b8:	603b      	str	r3, [r7, #0]
 80012ba:	4b0b      	ldr	r3, [pc, #44]	; (80012e8 <HAL_MspInit+0x54>)
 80012bc:	6c1b      	ldr	r3, [r3, #64]	; 0x40
 80012be:	4a0a      	ldr	r2, [pc, #40]	; (80012e8 <HAL_MspInit+0x54>)
 80012c0:	f043 5380 	orr.w	r3, r3, #268435456	; 0x10000000
 80012c4:	6413      	str	r3, [r2, #64]	; 0x40
 80012c6:	4b08      	ldr	r3, [pc, #32]	; (80012e8 <HAL_MspInit+0x54>)
 80012c8:	6c1b      	ldr	r3, [r3, #64]	; 0x40
 80012ca:	f003 5380 	and.w	r3, r3, #268435456	; 0x10000000
 80012ce:	603b      	str	r3, [r7, #0]
 80012d0:	683b      	ldr	r3, [r7, #0]

  /* System interrupt init*/
  /* PendSV_IRQn interrupt configuration */
  HAL_NVIC_SetPriority(PendSV_IRQn, 15, 0);
 80012d2:	2200      	movs	r2, #0
 80012d4:	210f      	movs	r1, #15
 80012d6:	f06f 0001 	mvn.w	r0, #1
 80012da:	f000 fae5 	bl	80018a8 <HAL_NVIC_SetPriority>

  /* USER CODE BEGIN MspInit 1 */

  /* USER CODE END MspInit 1 */
}
 80012de:	bf00      	nop
 80012e0:	3708      	adds	r7, #8
 80012e2:	46bd      	mov	sp, r7
 80012e4:	bd80      	pop	{r7, pc}
 80012e6:	bf00      	nop
 80012e8:	40023800 	.word	0x40023800

080012ec <HAL_InitTick>:
  *         reset by HAL_Init() or at any time when clock is configured, by HAL_RCC_ClockConfig().
  * @param  TickPriority: Tick interrupt priority.
  * @retval HAL status
  */
HAL_StatusTypeDef HAL_InitTick(uint32_t TickPriority)
{
 80012ec:	b580      	push	{r7, lr}
 80012ee:	b08c      	sub	sp, #48	; 0x30
 80012f0:	af00      	add	r7, sp, #0
 80012f2:	6078      	str	r0, [r7, #4]
  RCC_ClkInitTypeDef    clkconfig;
  uint32_t              uwTimclock = 0;
 80012f4:	2300      	movs	r3, #0
 80012f6:	62fb      	str	r3, [r7, #44]	; 0x2c
  uint32_t              uwPrescalerValue = 0;
 80012f8:	2300      	movs	r3, #0
 80012fa:	62bb      	str	r3, [r7, #40]	; 0x28
  uint32_t              pFLatency;
  /*Configure the TIM7 IRQ priority */
  HAL_NVIC_SetPriority(TIM7_IRQn, TickPriority ,0);
 80012fc:	2200      	movs	r2, #0
 80012fe:	6879      	ldr	r1, [r7, #4]
 8001300:	2037      	movs	r0, #55	; 0x37
 8001302:	f000 fad1 	bl	80018a8 <HAL_NVIC_SetPriority>

  /* Enable the TIM7 global Interrupt */
  HAL_NVIC_EnableIRQ(TIM7_IRQn);
 8001306:	2037      	movs	r0, #55	; 0x37
 8001308:	f000 faea 	bl	80018e0 <HAL_NVIC_EnableIRQ>

  /* Enable TIM7 clock */
  __HAL_RCC_TIM7_CLK_ENABLE();
 800130c:	2300      	movs	r3, #0
 800130e:	60fb      	str	r3, [r7, #12]
 8001310:	4b1f      	ldr	r3, [pc, #124]	; (8001390 <HAL_InitTick+0xa4>)
 8001312:	6c1b      	ldr	r3, [r3, #64]	; 0x40
 8001314:	4a1e      	ldr	r2, [pc, #120]	; (8001390 <HAL_InitTick+0xa4>)
 8001316:	f043 0320 	orr.w	r3, r3, #32
 800131a:	6413      	str	r3, [r2, #64]	; 0x40
 800131c:	4b1c      	ldr	r3, [pc, #112]	; (8001390 <HAL_InitTick+0xa4>)
 800131e:	6c1b      	ldr	r3, [r3, #64]	; 0x40
 8001320:	f003 0320 	and.w	r3, r3, #32
 8001324:	60fb      	str	r3, [r7, #12]
 8001326:	68fb      	ldr	r3, [r7, #12]

  /* Get clock configuration */
  HAL_RCC_GetClockConfig(&clkconfig, &pFLatency);
 8001328:	f107 0210 	add.w	r2, r7, #16
 800132c:	f107 0314 	add.w	r3, r7, #20
 8001330:	4611      	mov	r1, r2
 8001332:	4618      	mov	r0, r3
 8001334:	f003 ffc6 	bl	80052c4 <HAL_RCC_GetClockConfig>

  /* Compute TIM7 clock */
  uwTimclock = 2*HAL_RCC_GetPCLK1Freq();
 8001338:	f003 ff9c 	bl	8005274 <HAL_RCC_GetPCLK1Freq>
 800133c:	4603      	mov	r3, r0
 800133e:	005b      	lsls	r3, r3, #1
 8001340:	62fb      	str	r3, [r7, #44]	; 0x2c
  /* Compute the prescaler value to have TIM7 counter clock equal to 1MHz */
  uwPrescalerValue = (uint32_t) ((uwTimclock / 1000000U) - 1U);
 8001342:	6afb      	ldr	r3, [r7, #44]	; 0x2c
 8001344:	4a13      	ldr	r2, [pc, #76]	; (8001394 <HAL_InitTick+0xa8>)
 8001346:	fba2 2303 	umull	r2, r3, r2, r3
 800134a:	0c9b      	lsrs	r3, r3, #18
 800134c:	3b01      	subs	r3, #1
 800134e:	62bb      	str	r3, [r7, #40]	; 0x28

  /* Initialize TIM7 */
  htim7.Instance = TIM7;
 8001350:	4b11      	ldr	r3, [pc, #68]	; (8001398 <HAL_InitTick+0xac>)
 8001352:	4a12      	ldr	r2, [pc, #72]	; (800139c <HAL_InitTick+0xb0>)
 8001354:	601a      	str	r2, [r3, #0]
  + Period = [(TIM7CLK/1000) - 1]. to have a (1/1000) s time base.
  + Prescaler = (uwTimclock/1000000 - 1) to have a 1MHz counter clock.
  + ClockDivision = 0
  + Counter direction = Up
  */
  htim7.Init.Period = (1000000U / 1000U) - 1U;
 8001356:	4b10      	ldr	r3, [pc, #64]	; (8001398 <HAL_InitTick+0xac>)
 8001358:	f240 32e7 	movw	r2, #999	; 0x3e7
 800135c:	60da      	str	r2, [r3, #12]
  htim7.Init.Prescaler = uwPrescalerValue;
 800135e:	4a0e      	ldr	r2, [pc, #56]	; (8001398 <HAL_InitTick+0xac>)
 8001360:	6abb      	ldr	r3, [r7, #40]	; 0x28
 8001362:	6053      	str	r3, [r2, #4]
  htim7.Init.ClockDivision = 0;
 8001364:	4b0c      	ldr	r3, [pc, #48]	; (8001398 <HAL_InitTick+0xac>)
 8001366:	2200      	movs	r2, #0
 8001368:	611a      	str	r2, [r3, #16]
  htim7.Init.CounterMode = TIM_COUNTERMODE_UP;
 800136a:	4b0b      	ldr	r3, [pc, #44]	; (8001398 <HAL_InitTick+0xac>)
 800136c:	2200      	movs	r2, #0
 800136e:	609a      	str	r2, [r3, #8]

  if(HAL_TIM_Base_Init(&htim7) == HAL_OK)
 8001370:	4809      	ldr	r0, [pc, #36]	; (8001398 <HAL_InitTick+0xac>)
 8001372:	f003 ffd9 	bl	8005328 <HAL_TIM_Base_Init>
 8001376:	4603      	mov	r3, r0
 8001378:	2b00      	cmp	r3, #0
 800137a:	d104      	bne.n	8001386 <HAL_InitTick+0x9a>
  {
    /* Start the TIM time Base generation in interrupt mode */
    return HAL_TIM_Base_Start_IT(&htim7);
 800137c:	4806      	ldr	r0, [pc, #24]	; (8001398 <HAL_InitTick+0xac>)
 800137e:	f004 f82d 	bl	80053dc <HAL_TIM_Base_Start_IT>
 8001382:	4603      	mov	r3, r0
 8001384:	e000      	b.n	8001388 <HAL_InitTick+0x9c>
  }

  /* Return function status */
  return HAL_ERROR;
 8001386:	2301      	movs	r3, #1
}
 8001388:	4618      	mov	r0, r3
 800138a:	3730      	adds	r7, #48	; 0x30
 800138c:	46bd      	mov	sp, r7
 800138e:	bd80      	pop	{r7, pc}
 8001390:	40023800 	.word	0x40023800
 8001394:	431bde83 	.word	0x431bde83
 8001398:	200043a4 	.word	0x200043a4
 800139c:	40001400 	.word	0x40001400

080013a0 <NMI_Handler>:
/******************************************************************************/
/**
  * @brief This function handles Non maskable interrupt.
  */
void NMI_Handler(void)
{
 80013a0:	b480      	push	{r7}
 80013a2:	af00      	add	r7, sp, #0
  /* USER CODE BEGIN NonMaskableInt_IRQn 0 */

  /* USER CODE END NonMaskableInt_IRQn 0 */
  /* USER CODE BEGIN NonMaskableInt_IRQn 1 */
  while (1)
 80013a4:	e7fe      	b.n	80013a4 <NMI_Handler+0x4>

080013a6 <HardFault_Handler>:

/**
  * @brief This function handles Hard fault interrupt.
  */
void HardFault_Handler(void)
{
 80013a6:	b480      	push	{r7}
 80013a8:	af00      	add	r7, sp, #0
  /* USER CODE BEGIN HardFault_IRQn 0 */

  /* USER CODE END HardFault_IRQn 0 */
  while (1)
 80013aa:	e7fe      	b.n	80013aa <HardFault_Handler+0x4>

080013ac <MemManage_Handler>:

/**
  * @brief This function handles Memory management fault.
  */
void MemManage_Handler(void)
{
 80013ac:	b480      	push	{r7}
 80013ae:	af00      	add	r7, sp, #0
  /* USER CODE BEGIN MemoryManagement_IRQn 0 */

  /* USER CODE END MemoryManagement_IRQn 0 */
  while (1)
 80013b0:	e7fe      	b.n	80013b0 <MemManage_Handler+0x4>

080013b2 <BusFault_Handler>:

/**
  * @brief This function handles Pre-fetch fault, memory access fault.
  */
void BusFault_Handler(void)
{
 80013b2:	b480      	push	{r7}
 80013b4:	af00      	add	r7, sp, #0
  /* USER CODE BEGIN BusFault_IRQn 0 */

  /* USER CODE END BusFault_IRQn 0 */
  while (1)
 80013b6:	e7fe      	b.n	80013b6 <BusFault_Handler+0x4>

080013b8 <UsageFault_Handler>:

/**
  * @brief This function handles Undefined instruction or illegal state.
  */
void UsageFault_Handler(void)
{
 80013b8:	b480      	push	{r7}
 80013ba:	af00      	add	r7, sp, #0
  /* USER CODE BEGIN UsageFault_IRQn 0 */

  /* USER CODE END UsageFault_IRQn 0 */
  while (1)
 80013bc:	e7fe      	b.n	80013bc <UsageFault_Handler+0x4>

080013be <DebugMon_Handler>:

/**
  * @brief This function handles Debug monitor.
  */
void DebugMon_Handler(void)
{
 80013be:	b480      	push	{r7}
 80013c0:	af00      	add	r7, sp, #0

  /* USER CODE END DebugMonitor_IRQn 0 */
  /* USER CODE BEGIN DebugMonitor_IRQn 1 */

  /* USER CODE END DebugMonitor_IRQn 1 */
}
 80013c2:	bf00      	nop
 80013c4:	46bd      	mov	sp, r7
 80013c6:	f85d 7b04 	ldr.w	r7, [sp], #4
 80013ca:	4770      	bx	lr

080013cc <USART1_IRQHandler>:

/**
  * @brief This function handles USART1 global interrupt.
  */
void USART1_IRQHandler(void)
{
 80013cc:	b580      	push	{r7, lr}
 80013ce:	af00      	add	r7, sp, #0
  /* USER CODE BEGIN USART1_IRQn 0 */

  /* USER CODE END USART1_IRQn 0 */
  HAL_UART_IRQHandler(&huart1);
 80013d0:	4802      	ldr	r0, [pc, #8]	; (80013dc <USART1_IRQHandler+0x10>)
 80013d2:	f004 fc09 	bl	8005be8 <HAL_UART_IRQHandler>
  /* USER CODE BEGIN USART1_IRQn 1 */

  /* USER CODE END USART1_IRQn 1 */
}
 80013d6:	bf00      	nop
 80013d8:	bd80      	pop	{r7, pc}
 80013da:	bf00      	nop
 80013dc:	200043ec 	.word	0x200043ec

080013e0 <TIM7_IRQHandler>:

/**
  * @brief This function handles TIM7 global interrupt.
  */
void TIM7_IRQHandler(void)
{
 80013e0:	b580      	push	{r7, lr}
 80013e2:	af00      	add	r7, sp, #0
  /* USER CODE BEGIN TIM7_IRQn 0 */

  /* USER CODE END TIM7_IRQn 0 */
  HAL_TIM_IRQHandler(&htim7);
 80013e4:	4802      	ldr	r0, [pc, #8]	; (80013f0 <TIM7_IRQHandler+0x10>)
 80013e6:	f004 f869 	bl	80054bc <HAL_TIM_IRQHandler>
  /* USER CODE BEGIN TIM7_IRQn 1 */

  /* USER CODE END TIM7_IRQn 1 */
}
 80013ea:	bf00      	nop
 80013ec:	bd80      	pop	{r7, pc}
 80013ee:	bf00      	nop
 80013f0:	200043a4 	.word	0x200043a4

080013f4 <USART6_IRQHandler>:

/**
  * @brief This function handles USART6 global interrupt.
  */
void USART6_IRQHandler(void)
{
 80013f4:	b580      	push	{r7, lr}
 80013f6:	af00      	add	r7, sp, #0
  /* USER CODE BEGIN USART6_IRQn 0 */

  /* USER CODE END USART6_IRQn 0 */
  HAL_UART_IRQHandler(&huart6);
 80013f8:	4802      	ldr	r0, [pc, #8]	; (8001404 <USART6_IRQHandler+0x10>)
 80013fa:	f004 fbf5 	bl	8005be8 <HAL_UART_IRQHandler>
  /* USER CODE BEGIN USART6_IRQn 1 */

  /* USER CODE END USART6_IRQn 1 */
}
 80013fe:	bf00      	nop
 8001400:	bd80      	pop	{r7, pc}
 8001402:	bf00      	nop
 8001404:	20004430 	.word	0x20004430

08001408 <I2C3_EV_IRQHandler>:

/**
  * @brief This function handles I2C3 event interrupt.
  */
void I2C3_EV_IRQHandler(void)
{
 8001408:	b580      	push	{r7, lr}
 800140a:	af00      	add	r7, sp, #0
  /* USER CODE BEGIN I2C3_EV_IRQn 0 */

  /* USER CODE END I2C3_EV_IRQn 0 */
  HAL_I2C_EV_IRQHandler(&hi2c3);
 800140c:	4802      	ldr	r0, [pc, #8]	; (8001418 <I2C3_EV_IRQHandler+0x10>)
 800140e:	f001 fa51 	bl	80028b4 <HAL_I2C_EV_IRQHandler>
  /* USER CODE BEGIN I2C3_EV_IRQn 1 */

  /* USER CODE END I2C3_EV_IRQn 1 */
}
 8001412:	bf00      	nop
 8001414:	bd80      	pop	{r7, pc}
 8001416:	bf00      	nop
 8001418:	200042fc 	.word	0x200042fc

0800141c <I2C3_ER_IRQHandler>:

/**
  * @brief This function handles I2C3 error interrupt.
  */
void I2C3_ER_IRQHandler(void)
{
 800141c:	b580      	push	{r7, lr}
 800141e:	af00      	add	r7, sp, #0
  /* USER CODE BEGIN I2C3_ER_IRQn 0 */

  /* USER CODE END I2C3_ER_IRQn 0 */
  HAL_I2C_ER_IRQHandler(&hi2c3);
 8001420:	4802      	ldr	r0, [pc, #8]	; (800142c <I2C3_ER_IRQHandler+0x10>)
 8001422:	f001 fbb8 	bl	8002b96 <HAL_I2C_ER_IRQHandler>
  /* USER CODE BEGIN I2C3_ER_IRQn 1 */

  /* USER CODE END I2C3_ER_IRQn 1 */
}
 8001426:	bf00      	nop
 8001428:	bd80      	pop	{r7, pc}
 800142a:	bf00      	nop
 800142c:	200042fc 	.word	0x200042fc

08001430 <SystemInit>:
  *         configuration.
  * @param  None
  * @retval None
  */
void SystemInit(void)
{
 8001430:	b480      	push	{r7}
 8001432:	af00      	add	r7, sp, #0
  /* FPU settings ------------------------------------------------------------*/
  #if (__FPU_PRESENT == 1) && (__FPU_USED == 1)
    SCB->CPACR |= ((3UL << 10*2)|(3UL << 11*2));  /* set CP10 and CP11 Full Access */
 8001434:	4b06      	ldr	r3, [pc, #24]	; (8001450 <SystemInit+0x20>)
 8001436:	f8d3 3088 	ldr.w	r3, [r3, #136]	; 0x88
 800143a:	4a05      	ldr	r2, [pc, #20]	; (8001450 <SystemInit+0x20>)
 800143c:	f443 0370 	orr.w	r3, r3, #15728640	; 0xf00000
 8001440:	f8c2 3088 	str.w	r3, [r2, #136]	; 0x88

  /* Configure the Vector Table location -------------------------------------*/
#if defined(USER_VECT_TAB_ADDRESS)
  SCB->VTOR = VECT_TAB_BASE_ADDRESS | VECT_TAB_OFFSET; /* Vector Table Relocation in Internal SRAM */
#endif /* USER_VECT_TAB_ADDRESS */
}
 8001444:	bf00      	nop
 8001446:	46bd      	mov	sp, r7
 8001448:	f85d 7b04 	ldr.w	r7, [sp], #4
 800144c:	4770      	bx	lr
 800144e:	bf00      	nop
 8001450:	e000ed00 	.word	0xe000ed00

08001454 <MX_USART1_UART_Init>:
UART_HandleTypeDef huart6;

/* USART1 init function */

void MX_USART1_UART_Init(void)
{
 8001454:	b580      	push	{r7, lr}
 8001456:	af00      	add	r7, sp, #0
  /* USER CODE END USART1_Init 0 */

  /* USER CODE BEGIN USART1_Init 1 */

  /* USER CODE END USART1_Init 1 */
  huart1.Instance = USART1;
 8001458:	4b11      	ldr	r3, [pc, #68]	; (80014a0 <MX_USART1_UART_Init+0x4c>)
 800145a:	4a12      	ldr	r2, [pc, #72]	; (80014a4 <MX_USART1_UART_Init+0x50>)
 800145c:	601a      	str	r2, [r3, #0]
  huart1.Init.BaudRate = 115200;
 800145e:	4b10      	ldr	r3, [pc, #64]	; (80014a0 <MX_USART1_UART_Init+0x4c>)
 8001460:	f44f 32e1 	mov.w	r2, #115200	; 0x1c200
 8001464:	605a      	str	r2, [r3, #4]
  huart1.Init.WordLength = UART_WORDLENGTH_8B;
 8001466:	4b0e      	ldr	r3, [pc, #56]	; (80014a0 <MX_USART1_UART_Init+0x4c>)
 8001468:	2200      	movs	r2, #0
 800146a:	609a      	str	r2, [r3, #8]
  huart1.Init.StopBits = UART_STOPBITS_1;
 800146c:	4b0c      	ldr	r3, [pc, #48]	; (80014a0 <MX_USART1_UART_Init+0x4c>)
 800146e:	2200      	movs	r2, #0
 8001470:	60da      	str	r2, [r3, #12]
  huart1.Init.Parity = UART_PARITY_NONE;
 8001472:	4b0b      	ldr	r3, [pc, #44]	; (80014a0 <MX_USART1_UART_Init+0x4c>)
 8001474:	2200      	movs	r2, #0
 8001476:	611a      	str	r2, [r3, #16]
  huart1.Init.Mode = UART_MODE_TX_RX;
 8001478:	4b09      	ldr	r3, [pc, #36]	; (80014a0 <MX_USART1_UART_Init+0x4c>)
 800147a:	220c      	movs	r2, #12
 800147c:	615a      	str	r2, [r3, #20]
  huart1.Init.HwFlowCtl = UART_HWCONTROL_NONE;
 800147e:	4b08      	ldr	r3, [pc, #32]	; (80014a0 <MX_USART1_UART_Init+0x4c>)
 8001480:	2200      	movs	r2, #0
 8001482:	619a      	str	r2, [r3, #24]
  huart1.Init.OverSampling = UART_OVERSAMPLING_16;
 8001484:	4b06      	ldr	r3, [pc, #24]	; (80014a0 <MX_USART1_UART_Init+0x4c>)
 8001486:	2200      	movs	r2, #0
 8001488:	61da      	str	r2, [r3, #28]
  if (HAL_UART_Init(&huart1) != HAL_OK)
 800148a:	4805      	ldr	r0, [pc, #20]	; (80014a0 <MX_USART1_UART_Init+0x4c>)
 800148c:	f004 f9fa 	bl	8005884 <HAL_UART_Init>
 8001490:	4603      	mov	r3, r0
 8001492:	2b00      	cmp	r3, #0
 8001494:	d001      	beq.n	800149a <MX_USART1_UART_Init+0x46>
  {
    Error_Handler();
 8001496:	f7ff fd95 	bl	8000fc4 <Error_Handler>
  }
  /* USER CODE BEGIN USART1_Init 2 */

  /* USER CODE END USART1_Init 2 */

}
 800149a:	bf00      	nop
 800149c:	bd80      	pop	{r7, pc}
 800149e:	bf00      	nop
 80014a0:	200043ec 	.word	0x200043ec
 80014a4:	40011000 	.word	0x40011000

080014a8 <MX_USART6_UART_Init>:
/* USART6 init function */

void MX_USART6_UART_Init(void)
{
 80014a8:	b580      	push	{r7, lr}
 80014aa:	af00      	add	r7, sp, #0
  /* USER CODE END USART6_Init 0 */

  /* USER CODE BEGIN USART6_Init 1 */

  /* USER CODE END USART6_Init 1 */
  huart6.Instance = USART6;
 80014ac:	4b11      	ldr	r3, [pc, #68]	; (80014f4 <MX_USART6_UART_Init+0x4c>)
 80014ae:	4a12      	ldr	r2, [pc, #72]	; (80014f8 <MX_USART6_UART_Init+0x50>)
 80014b0:	601a      	str	r2, [r3, #0]
  huart6.Init.BaudRate = 115200;
 80014b2:	4b10      	ldr	r3, [pc, #64]	; (80014f4 <MX_USART6_UART_Init+0x4c>)
 80014b4:	f44f 32e1 	mov.w	r2, #115200	; 0x1c200
 80014b8:	605a      	str	r2, [r3, #4]
  huart6.Init.WordLength = UART_WORDLENGTH_8B;
 80014ba:	4b0e      	ldr	r3, [pc, #56]	; (80014f4 <MX_USART6_UART_Init+0x4c>)
 80014bc:	2200      	movs	r2, #0
 80014be:	609a      	str	r2, [r3, #8]
  huart6.Init.StopBits = UART_STOPBITS_1;
 80014c0:	4b0c      	ldr	r3, [pc, #48]	; (80014f4 <MX_USART6_UART_Init+0x4c>)
 80014c2:	2200      	movs	r2, #0
 80014c4:	60da      	str	r2, [r3, #12]
  huart6.Init.Parity = UART_PARITY_NONE;
 80014c6:	4b0b      	ldr	r3, [pc, #44]	; (80014f4 <MX_USART6_UART_Init+0x4c>)
 80014c8:	2200      	movs	r2, #0
 80014ca:	611a      	str	r2, [r3, #16]
  huart6.Init.Mode = UART_MODE_TX_RX;
 80014cc:	4b09      	ldr	r3, [pc, #36]	; (80014f4 <MX_USART6_UART_Init+0x4c>)
 80014ce:	220c      	movs	r2, #12
 80014d0:	615a      	str	r2, [r3, #20]
  huart6.Init.HwFlowCtl = UART_HWCONTROL_NONE;
 80014d2:	4b08      	ldr	r3, [pc, #32]	; (80014f4 <MX_USART6_UART_Init+0x4c>)
 80014d4:	2200      	movs	r2, #0
 80014d6:	619a      	str	r2, [r3, #24]
  huart6.Init.OverSampling = UART_OVERSAMPLING_16;
 80014d8:	4b06      	ldr	r3, [pc, #24]	; (80014f4 <MX_USART6_UART_Init+0x4c>)
 80014da:	2200      	movs	r2, #0
 80014dc:	61da      	str	r2, [r3, #28]
  if (HAL_UART_Init(&huart6) != HAL_OK)
 80014de:	4805      	ldr	r0, [pc, #20]	; (80014f4 <MX_USART6_UART_Init+0x4c>)
 80014e0:	f004 f9d0 	bl	8005884 <HAL_UART_Init>
 80014e4:	4603      	mov	r3, r0
 80014e6:	2b00      	cmp	r3, #0
 80014e8:	d001      	beq.n	80014ee <MX_USART6_UART_Init+0x46>
  {
    Error_Handler();
 80014ea:	f7ff fd6b 	bl	8000fc4 <Error_Handler>
  }
  /* USER CODE BEGIN USART6_Init 2 */

  /* USER CODE END USART6_Init 2 */

}
 80014ee:	bf00      	nop
 80014f0:	bd80      	pop	{r7, pc}
 80014f2:	bf00      	nop
 80014f4:	20004430 	.word	0x20004430
 80014f8:	40011400 	.word	0x40011400

080014fc <HAL_UART_MspInit>:

void HAL_UART_MspInit(UART_HandleTypeDef* uartHandle)
{
 80014fc:	b580      	push	{r7, lr}
 80014fe:	b08c      	sub	sp, #48	; 0x30
 8001500:	af00      	add	r7, sp, #0
 8001502:	6078      	str	r0, [r7, #4]

  GPIO_InitTypeDef GPIO_InitStruct = {0};
 8001504:	f107 031c 	add.w	r3, r7, #28
 8001508:	2200      	movs	r2, #0
 800150a:	601a      	str	r2, [r3, #0]
 800150c:	605a      	str	r2, [r3, #4]
 800150e:	609a      	str	r2, [r3, #8]
 8001510:	60da      	str	r2, [r3, #12]
 8001512:	611a      	str	r2, [r3, #16]
  if(uartHandle->Instance==USART1)
 8001514:	687b      	ldr	r3, [r7, #4]
 8001516:	681b      	ldr	r3, [r3, #0]
 8001518:	4a3a      	ldr	r2, [pc, #232]	; (8001604 <HAL_UART_MspInit+0x108>)
 800151a:	4293      	cmp	r3, r2
 800151c:	d135      	bne.n	800158a <HAL_UART_MspInit+0x8e>
  {
  /* USER CODE BEGIN USART1_MspInit 0 */

  /* USER CODE END USART1_MspInit 0 */
    /* USART1 clock enable */
    __HAL_RCC_USART1_CLK_ENABLE();
 800151e:	2300      	movs	r3, #0
 8001520:	61bb      	str	r3, [r7, #24]
 8001522:	4b39      	ldr	r3, [pc, #228]	; (8001608 <HAL_UART_MspInit+0x10c>)
 8001524:	6c5b      	ldr	r3, [r3, #68]	; 0x44
 8001526:	4a38      	ldr	r2, [pc, #224]	; (8001608 <HAL_UART_MspInit+0x10c>)
 8001528:	f043 0310 	orr.w	r3, r3, #16
 800152c:	6453      	str	r3, [r2, #68]	; 0x44
 800152e:	4b36      	ldr	r3, [pc, #216]	; (8001608 <HAL_UART_MspInit+0x10c>)
 8001530:	6c5b      	ldr	r3, [r3, #68]	; 0x44
 8001532:	f003 0310 	and.w	r3, r3, #16
 8001536:	61bb      	str	r3, [r7, #24]
 8001538:	69bb      	ldr	r3, [r7, #24]

    __HAL_RCC_GPIOA_CLK_ENABLE();
 800153a:	2300      	movs	r3, #0
 800153c:	617b      	str	r3, [r7, #20]
 800153e:	4b32      	ldr	r3, [pc, #200]	; (8001608 <HAL_UART_MspInit+0x10c>)
 8001540:	6b1b      	ldr	r3, [r3, #48]	; 0x30
 8001542:	4a31      	ldr	r2, [pc, #196]	; (8001608 <HAL_UART_MspInit+0x10c>)
 8001544:	f043 0301 	orr.w	r3, r3, #1
 8001548:	6313      	str	r3, [r2, #48]	; 0x30
 800154a:	4b2f      	ldr	r3, [pc, #188]	; (8001608 <HAL_UART_MspInit+0x10c>)
 800154c:	6b1b      	ldr	r3, [r3, #48]	; 0x30
 800154e:	f003 0301 	and.w	r3, r3, #1
 8001552:	617b      	str	r3, [r7, #20]
 8001554:	697b      	ldr	r3, [r7, #20]
    /**USART1 GPIO Configuration
    PA9     ------> USART1_TX
    PA10     ------> USART1_RX
    */
    GPIO_InitStruct.Pin = GPIO_PIN_9|GPIO_PIN_10;
 8001556:	f44f 63c0 	mov.w	r3, #1536	; 0x600
 800155a:	61fb      	str	r3, [r7, #28]
    GPIO_InitStruct.Mode = GPIO_MODE_AF_PP;
 800155c:	2302      	movs	r3, #2
 800155e:	623b      	str	r3, [r7, #32]
    GPIO_InitStruct.Pull = GPIO_NOPULL;
 8001560:	2300      	movs	r3, #0
 8001562:	627b      	str	r3, [r7, #36]	; 0x24
    GPIO_InitStruct.Speed = GPIO_SPEED_FREQ_VERY_HIGH;
 8001564:	2303      	movs	r3, #3
 8001566:	62bb      	str	r3, [r7, #40]	; 0x28
    GPIO_InitStruct.Alternate = GPIO_AF7_USART1;
 8001568:	2307      	movs	r3, #7
 800156a:	62fb      	str	r3, [r7, #44]	; 0x2c
    HAL_GPIO_Init(GPIOA, &GPIO_InitStruct);
 800156c:	f107 031c 	add.w	r3, r7, #28
 8001570:	4619      	mov	r1, r3
 8001572:	4826      	ldr	r0, [pc, #152]	; (800160c <HAL_UART_MspInit+0x110>)
 8001574:	f000 fa6e 	bl	8001a54 <HAL_GPIO_Init>

    /* USART1 interrupt Init */
    HAL_NVIC_SetPriority(USART1_IRQn, 5, 0);
 8001578:	2200      	movs	r2, #0
 800157a:	2105      	movs	r1, #5
 800157c:	2025      	movs	r0, #37	; 0x25
 800157e:	f000 f993 	bl	80018a8 <HAL_NVIC_SetPriority>
    HAL_NVIC_EnableIRQ(USART1_IRQn);
 8001582:	2025      	movs	r0, #37	; 0x25
 8001584:	f000 f9ac 	bl	80018e0 <HAL_NVIC_EnableIRQ>
    HAL_NVIC_EnableIRQ(USART6_IRQn);
  /* USER CODE BEGIN USART6_MspInit 1 */

  /* USER CODE END USART6_MspInit 1 */
  }
}
 8001588:	e038      	b.n	80015fc <HAL_UART_MspInit+0x100>
  else if(uartHandle->Instance==USART6)
 800158a:	687b      	ldr	r3, [r7, #4]
 800158c:	681b      	ldr	r3, [r3, #0]
 800158e:	4a20      	ldr	r2, [pc, #128]	; (8001610 <HAL_UART_MspInit+0x114>)
 8001590:	4293      	cmp	r3, r2
 8001592:	d133      	bne.n	80015fc <HAL_UART_MspInit+0x100>
    __HAL_RCC_USART6_CLK_ENABLE();
 8001594:	2300      	movs	r3, #0
 8001596:	613b      	str	r3, [r7, #16]
 8001598:	4b1b      	ldr	r3, [pc, #108]	; (8001608 <HAL_UART_MspInit+0x10c>)
 800159a:	6c5b      	ldr	r3, [r3, #68]	; 0x44
 800159c:	4a1a      	ldr	r2, [pc, #104]	; (8001608 <HAL_UART_MspInit+0x10c>)
 800159e:	f043 0320 	orr.w	r3, r3, #32
 80015a2:	6453      	str	r3, [r2, #68]	; 0x44
 80015a4:	4b18      	ldr	r3, [pc, #96]	; (8001608 <HAL_UART_MspInit+0x10c>)
 80015a6:	6c5b      	ldr	r3, [r3, #68]	; 0x44
 80015a8:	f003 0320 	and.w	r3, r3, #32
 80015ac:	613b      	str	r3, [r7, #16]
 80015ae:	693b      	ldr	r3, [r7, #16]
    __HAL_RCC_GPIOC_CLK_ENABLE();
 80015b0:	2300      	movs	r3, #0
 80015b2:	60fb      	str	r3, [r7, #12]
 80015b4:	4b14      	ldr	r3, [pc, #80]	; (8001608 <HAL_UART_MspInit+0x10c>)
 80015b6:	6b1b      	ldr	r3, [r3, #48]	; 0x30
 80015b8:	4a13      	ldr	r2, [pc, #76]	; (8001608 <HAL_UART_MspInit+0x10c>)
 80015ba:	f043 0304 	orr.w	r3, r3, #4
 80015be:	6313      	str	r3, [r2, #48]	; 0x30
 80015c0:	4b11      	ldr	r3, [pc, #68]	; (8001608 <HAL_UART_MspInit+0x10c>)
 80015c2:	6b1b      	ldr	r3, [r3, #48]	; 0x30
 80015c4:	f003 0304 	and.w	r3, r3, #4
 80015c8:	60fb      	str	r3, [r7, #12]
 80015ca:	68fb      	ldr	r3, [r7, #12]
    GPIO_InitStruct.Pin = GPIO_PIN_6|GPIO_PIN_7;
 80015cc:	23c0      	movs	r3, #192	; 0xc0
 80015ce:	61fb      	str	r3, [r7, #28]
    GPIO_InitStruct.Mode = GPIO_MODE_AF_PP;
 80015d0:	2302      	movs	r3, #2
 80015d2:	623b      	str	r3, [r7, #32]
    GPIO_InitStruct.Pull = GPIO_NOPULL;
 80015d4:	2300      	movs	r3, #0
 80015d6:	627b      	str	r3, [r7, #36]	; 0x24
    GPIO_InitStruct.Speed = GPIO_SPEED_FREQ_VERY_HIGH;
 80015d8:	2303      	movs	r3, #3
 80015da:	62bb      	str	r3, [r7, #40]	; 0x28
    GPIO_InitStruct.Alternate = GPIO_AF8_USART6;
 80015dc:	2308      	movs	r3, #8
 80015de:	62fb      	str	r3, [r7, #44]	; 0x2c
    HAL_GPIO_Init(GPIOC, &GPIO_InitStruct);
 80015e0:	f107 031c 	add.w	r3, r7, #28
 80015e4:	4619      	mov	r1, r3
 80015e6:	480b      	ldr	r0, [pc, #44]	; (8001614 <HAL_UART_MspInit+0x118>)
 80015e8:	f000 fa34 	bl	8001a54 <HAL_GPIO_Init>
    HAL_NVIC_SetPriority(USART6_IRQn, 5, 0);
 80015ec:	2200      	movs	r2, #0
 80015ee:	2105      	movs	r1, #5
 80015f0:	2047      	movs	r0, #71	; 0x47
 80015f2:	f000 f959 	bl	80018a8 <HAL_NVIC_SetPriority>
    HAL_NVIC_EnableIRQ(USART6_IRQn);
 80015f6:	2047      	movs	r0, #71	; 0x47
 80015f8:	f000 f972 	bl	80018e0 <HAL_NVIC_EnableIRQ>
}
 80015fc:	bf00      	nop
 80015fe:	3730      	adds	r7, #48	; 0x30
 8001600:	46bd      	mov	sp, r7
 8001602:	bd80      	pop	{r7, pc}
 8001604:	40011000 	.word	0x40011000
 8001608:	40023800 	.word	0x40023800
 800160c:	40020000 	.word	0x40020000
 8001610:	40011400 	.word	0x40011400
 8001614:	40020800 	.word	0x40020800

08001618 <Reset_Handler>:
 8001618:	f8df d034 	ldr.w	sp, [pc, #52]	; 8001650 <LoopFillZerobss+0x12>
 800161c:	480d      	ldr	r0, [pc, #52]	; (8001654 <LoopFillZerobss+0x16>)
 800161e:	490e      	ldr	r1, [pc, #56]	; (8001658 <LoopFillZerobss+0x1a>)
 8001620:	4a0e      	ldr	r2, [pc, #56]	; (800165c <LoopFillZerobss+0x1e>)
 8001622:	2300      	movs	r3, #0
 8001624:	e002      	b.n	800162c <LoopCopyDataInit>

08001626 <CopyDataInit>:
 8001626:	58d4      	ldr	r4, [r2, r3]
 8001628:	50c4      	str	r4, [r0, r3]
 800162a:	3304      	adds	r3, #4

0800162c <LoopCopyDataInit>:
 800162c:	18c4      	adds	r4, r0, r3
 800162e:	428c      	cmp	r4, r1
 8001630:	d3f9      	bcc.n	8001626 <CopyDataInit>
 8001632:	4a0b      	ldr	r2, [pc, #44]	; (8001660 <LoopFillZerobss+0x22>)
 8001634:	4c0b      	ldr	r4, [pc, #44]	; (8001664 <LoopFillZerobss+0x26>)
 8001636:	2300      	movs	r3, #0
 8001638:	e001      	b.n	800163e <LoopFillZerobss>

0800163a <FillZerobss>:
 800163a:	6013      	str	r3, [r2, #0]
 800163c:	3204      	adds	r2, #4

0800163e <LoopFillZerobss>:
 800163e:	42a2      	cmp	r2, r4
 8001640:	d3fb      	bcc.n	800163a <FillZerobss>
 8001642:	f7ff fef5 	bl	8001430 <SystemInit>
 8001646:	f006 fc01 	bl	8007e4c <__libc_init_array>
 800164a:	f7ff fc17 	bl	8000e7c <main>
 800164e:	4770      	bx	lr
 8001650:	20020000 	.word	0x20020000
 8001654:	20000000 	.word	0x20000000
 8001658:	20000090 	.word	0x20000090
 800165c:	080089b4 	.word	0x080089b4
 8001660:	20000090 	.word	0x20000090
 8001664:	20004484 	.word	0x20004484

08001668 <ADC_IRQHandler>:
 8001668:	e7fe      	b.n	8001668 <ADC_IRQHandler>
	...

0800166c <HAL_Init>:
 800166c:	b580      	push	{r7, lr}
 800166e:	af00      	add	r7, sp, #0
 8001670:	4b0e      	ldr	r3, [pc, #56]	; (80016ac <HAL_Init+0x40>)
 8001672:	681b      	ldr	r3, [r3, #0]
 8001674:	4a0d      	ldr	r2, [pc, #52]	; (80016ac <HAL_Init+0x40>)
 8001676:	f443 7300 	orr.w	r3, r3, #512	; 0x200
 800167a:	6013      	str	r3, [r2, #0]
 800167c:	4b0b      	ldr	r3, [pc, #44]	; (80016ac <HAL_Init+0x40>)
 800167e:	681b      	ldr	r3, [r3, #0]
 8001680:	4a0a      	ldr	r2, [pc, #40]	; (80016ac <HAL_Init+0x40>)
 8001682:	f443 6380 	orr.w	r3, r3, #1024	; 0x400
 8001686:	6013      	str	r3, [r2, #0]
 8001688:	4b08      	ldr	r3, [pc, #32]	; (80016ac <HAL_Init+0x40>)
 800168a:	681b      	ldr	r3, [r3, #0]
 800168c:	4a07      	ldr	r2, [pc, #28]	; (80016ac <HAL_Init+0x40>)
 800168e:	f443 7380 	orr.w	r3, r3, #256	; 0x100
 8001692:	6013      	str	r3, [r2, #0]
 8001694:	2003      	movs	r0, #3
 8001696:	f000 f8fc 	bl	8001892 <HAL_NVIC_SetPriorityGrouping>
 800169a:	200f      	movs	r0, #15
 800169c:	f7ff fe26 	bl	80012ec <HAL_InitTick>
 80016a0:	f7ff fdf8 	bl	8001294 <HAL_MspInit>
 80016a4:	2300      	movs	r3, #0
 80016a6:	4618      	mov	r0, r3
 80016a8:	bd80      	pop	{r7, pc}
 80016aa:	bf00      	nop
 80016ac:	40023c00 	.word	0x40023c00

080016b0 <HAL_IncTick>:
 80016b0:	b480      	push	{r7}
 80016b2:	af00      	add	r7, sp, #0
 80016b4:	4b06      	ldr	r3, [pc, #24]	; (80016d0 <HAL_IncTick+0x20>)
 80016b6:	781b      	ldrb	r3, [r3, #0]
 80016b8:	461a      	mov	r2, r3
 80016ba:	4b06      	ldr	r3, [pc, #24]	; (80016d4 <HAL_IncTick+0x24>)
 80016bc:	681b      	ldr	r3, [r3, #0]
 80016be:	4413      	add	r3, r2
 80016c0:	4a04      	ldr	r2, [pc, #16]	; (80016d4 <HAL_IncTick+0x24>)
 80016c2:	6013      	str	r3, [r2, #0]
 80016c4:	bf00      	nop
 80016c6:	46bd      	mov	sp, r7
 80016c8:	f85d 7b04 	ldr.w	r7, [sp], #4
 80016cc:	4770      	bx	lr
 80016ce:	bf00      	nop
 80016d0:	20000024 	.word	0x20000024
 80016d4:	20004474 	.word	0x20004474

080016d8 <HAL_GetTick>:
 80016d8:	b480      	push	{r7}
 80016da:	af00      	add	r7, sp, #0
 80016dc:	4b03      	ldr	r3, [pc, #12]	; (80016ec <HAL_GetTick+0x14>)
 80016de:	681b      	ldr	r3, [r3, #0]
 80016e0:	4618      	mov	r0, r3
 80016e2:	46bd      	mov	sp, r7
 80016e4:	f85d 7b04 	ldr.w	r7, [sp], #4
 80016e8:	4770      	bx	lr
 80016ea:	bf00      	nop
 80016ec:	20004474 	.word	0x20004474

080016f0 <HAL_Delay>:
 80016f0:	b580      	push	{r7, lr}
 80016f2:	b084      	sub	sp, #16
 80016f4:	af00      	add	r7, sp, #0
 80016f6:	6078      	str	r0, [r7, #4]
 80016f8:	f7ff ffee 	bl	80016d8 <HAL_GetTick>
 80016fc:	60b8      	str	r0, [r7, #8]
 80016fe:	687b      	ldr	r3, [r7, #4]
 8001700:	60fb      	str	r3, [r7, #12]
 8001702:	68fb      	ldr	r3, [r7, #12]
 8001704:	f1b3 3fff 	cmp.w	r3, #4294967295
 8001708:	d005      	beq.n	8001716 <HAL_Delay+0x26>
 800170a:	4b0a      	ldr	r3, [pc, #40]	; (8001734 <HAL_Delay+0x44>)
 800170c:	781b      	ldrb	r3, [r3, #0]
 800170e:	461a      	mov	r2, r3
 8001710:	68fb      	ldr	r3, [r7, #12]
 8001712:	4413      	add	r3, r2
 8001714:	60fb      	str	r3, [r7, #12]
 8001716:	bf00      	nop
 8001718:	f7ff ffde 	bl	80016d8 <HAL_GetTick>
 800171c:	4602      	mov	r2, r0
 800171e:	68bb      	ldr	r3, [r7, #8]
 8001720:	1ad3      	subs	r3, r2, r3
 8001722:	68fa      	ldr	r2, [r7, #12]
 8001724:	429a      	cmp	r2, r3
 8001726:	d8f7      	bhi.n	8001718 <HAL_Delay+0x28>
 8001728:	bf00      	nop
 800172a:	bf00      	nop
 800172c:	3710      	adds	r7, #16
 800172e:	46bd      	mov	sp, r7
 8001730:	bd80      	pop	{r7, pc}
 8001732:	bf00      	nop
 8001734:	20000024 	.word	0x20000024

08001738 <__NVIC_SetPriorityGrouping>:
 8001738:	b480      	push	{r7}
 800173a:	b085      	sub	sp, #20
 800173c:	af00      	add	r7, sp, #0
 800173e:	6078      	str	r0, [r7, #4]
 8001740:	687b      	ldr	r3, [r7, #4]
 8001742:	f003 0307 	and.w	r3, r3, #7
 8001746:	60fb      	str	r3, [r7, #12]
 8001748:	4b0c      	ldr	r3, [pc, #48]	; (800177c <__NVIC_SetPriorityGrouping+0x44>)
 800174a:	68db      	ldr	r3, [r3, #12]
 800174c:	60bb      	str	r3, [r7, #8]
 800174e:	68ba      	ldr	r2, [r7, #8]
 8001750:	f64f 03ff 	movw	r3, #63743	; 0xf8ff
 8001754:	4013      	ands	r3, r2
 8001756:	60bb      	str	r3, [r7, #8]
 8001758:	68fb      	ldr	r3, [r7, #12]
 800175a:	021a      	lsls	r2, r3, #8
 800175c:	68bb      	ldr	r3, [r7, #8]
 800175e:	4313      	orrs	r3, r2
 8001760:	f043 63bf 	orr.w	r3, r3, #100139008	; 0x5f80000
 8001764:	f443 3300 	orr.w	r3, r3, #131072	; 0x20000
 8001768:	60bb      	str	r3, [r7, #8]
 800176a:	4a04      	ldr	r2, [pc, #16]	; (800177c <__NVIC_SetPriorityGrouping+0x44>)
 800176c:	68bb      	ldr	r3, [r7, #8]
 800176e:	60d3      	str	r3, [r2, #12]
 8001770:	bf00      	nop
 8001772:	3714      	adds	r7, #20
 8001774:	46bd      	mov	sp, r7
 8001776:	f85d 7b04 	ldr.w	r7, [sp], #4
 800177a:	4770      	bx	lr
 800177c:	e000ed00 	.word	0xe000ed00

08001780 <__NVIC_GetPriorityGrouping>:
 8001780:	b480      	push	{r7}
 8001782:	af00      	add	r7, sp, #0
 8001784:	4b04      	ldr	r3, [pc, #16]	; (8001798 <__NVIC_GetPriorityGrouping+0x18>)
 8001786:	68db      	ldr	r3, [r3, #12]
 8001788:	0a1b      	lsrs	r3, r3, #8
 800178a:	f003 0307 	and.w	r3, r3, #7
 800178e:	4618      	mov	r0, r3
 8001790:	46bd      	mov	sp, r7
 8001792:	f85d 7b04 	ldr.w	r7, [sp], #4
 8001796:	4770      	bx	lr
 8001798:	e000ed00 	.word	0xe000ed00

0800179c <__NVIC_EnableIRQ>:
 800179c:	b480      	push	{r7}
 800179e:	b083      	sub	sp, #12
 80017a0:	af00      	add	r7, sp, #0
 80017a2:	4603      	mov	r3, r0
 80017a4:	71fb      	strb	r3, [r7, #7]
 80017a6:	f997 3007 	ldrsb.w	r3, [r7, #7]
 80017aa:	2b00      	cmp	r3, #0
 80017ac:	db0b      	blt.n	80017c6 <__NVIC_EnableIRQ+0x2a>
 80017ae:	79fb      	ldrb	r3, [r7, #7]
 80017b0:	f003 021f 	and.w	r2, r3, #31
 80017b4:	4907      	ldr	r1, [pc, #28]	; (80017d4 <__NVIC_EnableIRQ+0x38>)
 80017b6:	f997 3007 	ldrsb.w	r3, [r7, #7]
 80017ba:	095b      	lsrs	r3, r3, #5
 80017bc:	2001      	movs	r0, #1
 80017be:	fa00 f202 	lsl.w	r2, r0, r2
 80017c2:	f841 2023 	str.w	r2, [r1, r3, lsl #2]
 80017c6:	bf00      	nop
 80017c8:	370c      	adds	r7, #12
 80017ca:	46bd      	mov	sp, r7
 80017cc:	f85d 7b04 	ldr.w	r7, [sp], #4
 80017d0:	4770      	bx	lr
 80017d2:	bf00      	nop
 80017d4:	e000e100 	.word	0xe000e100

080017d8 <__NVIC_SetPriority>:
 80017d8:	b480      	push	{r7}
 80017da:	b083      	sub	sp, #12
 80017dc:	af00      	add	r7, sp, #0
 80017de:	4603      	mov	r3, r0
 80017e0:	6039      	str	r1, [r7, #0]
 80017e2:	71fb      	strb	r3, [r7, #7]
 80017e4:	f997 3007 	ldrsb.w	r3, [r7, #7]
 80017e8:	2b00      	cmp	r3, #0
 80017ea:	db0a      	blt.n	8001802 <__NVIC_SetPriority+0x2a>
 80017ec:	683b      	ldr	r3, [r7, #0]
 80017ee:	b2da      	uxtb	r2, r3
 80017f0:	490c      	ldr	r1, [pc, #48]	; (8001824 <__NVIC_SetPriority+0x4c>)
 80017f2:	f997 3007 	ldrsb.w	r3, [r7, #7]
 80017f6:	0112      	lsls	r2, r2, #4
 80017f8:	b2d2      	uxtb	r2, r2
 80017fa:	440b      	add	r3, r1
 80017fc:	f883 2300 	strb.w	r2, [r3, #768]	; 0x300
 8001800:	e00a      	b.n	8001818 <__NVIC_SetPriority+0x40>
 8001802:	683b      	ldr	r3, [r7, #0]
 8001804:	b2da      	uxtb	r2, r3
 8001806:	4908      	ldr	r1, [pc, #32]	; (8001828 <__NVIC_SetPriority+0x50>)
 8001808:	79fb      	ldrb	r3, [r7, #7]
 800180a:	f003 030f 	and.w	r3, r3, #15
 800180e:	3b04      	subs	r3, #4
 8001810:	0112      	lsls	r2, r2, #4
 8001812:	b2d2      	uxtb	r2, r2
 8001814:	440b      	add	r3, r1
 8001816:	761a      	strb	r2, [r3, #24]
 8001818:	bf00      	nop
 800181a:	370c      	adds	r7, #12
 800181c:	46bd      	mov	sp, r7
 800181e:	f85d 7b04 	ldr.w	r7, [sp], #4
 8001822:	4770      	bx	lr
 8001824:	e000e100 	.word	0xe000e100
 8001828:	e000ed00 	.word	0xe000ed00

0800182c <NVIC_EncodePriority>:
 800182c:	b480      	push	{r7}
 800182e:	b089      	sub	sp, #36	; 0x24
 8001830:	af00      	add	r7, sp, #0
 8001832:	60f8      	str	r0, [r7, #12]
 8001834:	60b9      	str	r1, [r7, #8]
 8001836:	607a      	str	r2, [r7, #4]
 8001838:	68fb      	ldr	r3, [r7, #12]
 800183a:	f003 0307 	and.w	r3, r3, #7
 800183e:	61fb      	str	r3, [r7, #28]
 8001840:	69fb      	ldr	r3, [r7, #28]
 8001842:	f1c3 0307 	rsb	r3, r3, #7
 8001846:	2b04      	cmp	r3, #4
 8001848:	bf28      	it	cs
 800184a:	2304      	movcs	r3, #4
 800184c:	61bb      	str	r3, [r7, #24]
 800184e:	69fb      	ldr	r3, [r7, #28]
 8001850:	3304      	adds	r3, #4
 8001852:	2b06      	cmp	r3, #6
 8001854:	d902      	bls.n	800185c <NVIC_EncodePriority+0x30>
 8001856:	69fb      	ldr	r3, [r7, #28]
 8001858:	3b03      	subs	r3, #3
 800185a:	e000      	b.n	800185e <NVIC_EncodePriority+0x32>
 800185c:	2300      	movs	r3, #0
 800185e:	617b      	str	r3, [r7, #20]
 8001860:	f04f 32ff 	mov.w	r2, #4294967295
 8001864:	69bb      	ldr	r3, [r7, #24]
 8001866:	fa02 f303 	lsl.w	r3, r2, r3
 800186a:	43da      	mvns	r2, r3
 800186c:	68bb      	ldr	r3, [r7, #8]
 800186e:	401a      	ands	r2, r3
 8001870:	697b      	ldr	r3, [r7, #20]
 8001872:	409a      	lsls	r2, r3
 8001874:	f04f 31ff 	mov.w	r1, #4294967295
 8001878:	697b      	ldr	r3, [r7, #20]
 800187a:	fa01 f303 	lsl.w	r3, r1, r3
 800187e:	43d9      	mvns	r1, r3
 8001880:	687b      	ldr	r3, [r7, #4]
 8001882:	400b      	ands	r3, r1
 8001884:	4313      	orrs	r3, r2
 8001886:	4618      	mov	r0, r3
 8001888:	3724      	adds	r7, #36	; 0x24
 800188a:	46bd      	mov	sp, r7
 800188c:	f85d 7b04 	ldr.w	r7, [sp], #4
 8001890:	4770      	bx	lr

08001892 <HAL_NVIC_SetPriorityGrouping>:
 8001892:	b580      	push	{r7, lr}
 8001894:	b082      	sub	sp, #8
 8001896:	af00      	add	r7, sp, #0
 8001898:	6078      	str	r0, [r7, #4]
 800189a:	6878      	ldr	r0, [r7, #4]
 800189c:	f7ff ff4c 	bl	8001738 <__NVIC_SetPriorityGrouping>
 80018a0:	bf00      	nop
 80018a2:	3708      	adds	r7, #8
 80018a4:	46bd      	mov	sp, r7
 80018a6:	bd80      	pop	{r7, pc}

080018a8 <HAL_NVIC_SetPriority>:
 80018a8:	b580      	push	{r7, lr}
 80018aa:	b086      	sub	sp, #24
 80018ac:	af00      	add	r7, sp, #0
 80018ae:	4603      	mov	r3, r0
 80018b0:	60b9      	str	r1, [r7, #8]
 80018b2:	607a      	str	r2, [r7, #4]
 80018b4:	73fb      	strb	r3, [r7, #15]
 80018b6:	2300      	movs	r3, #0
 80018b8:	617b      	str	r3, [r7, #20]
 80018ba:	f7ff ff61 	bl	8001780 <__NVIC_GetPriorityGrouping>
 80018be:	6178      	str	r0, [r7, #20]
 80018c0:	687a      	ldr	r2, [r7, #4]
 80018c2:	68b9      	ldr	r1, [r7, #8]
 80018c4:	6978      	ldr	r0, [r7, #20]
 80018c6:	f7ff ffb1 	bl	800182c <NVIC_EncodePriority>
 80018ca:	4602      	mov	r2, r0
 80018cc:	f997 300f 	ldrsb.w	r3, [r7, #15]
 80018d0:	4611      	mov	r1, r2
 80018d2:	4618      	mov	r0, r3
 80018d4:	f7ff ff80 	bl	80017d8 <__NVIC_SetPriority>
 80018d8:	bf00      	nop
 80018da:	3718      	adds	r7, #24
 80018dc:	46bd      	mov	sp, r7
 80018de:	bd80      	pop	{r7, pc}

080018e0 <HAL_NVIC_EnableIRQ>:
 80018e0:	b580      	push	{r7, lr}
 80018e2:	b082      	sub	sp, #8
 80018e4:	af00      	add	r7, sp, #0
 80018e6:	4603      	mov	r3, r0
 80018e8:	71fb      	strb	r3, [r7, #7]
 80018ea:	f997 3007 	ldrsb.w	r3, [r7, #7]
 80018ee:	4618      	mov	r0, r3
 80018f0:	f7ff ff54 	bl	800179c <__NVIC_EnableIRQ>
 80018f4:	bf00      	nop
 80018f6:	3708      	adds	r7, #8
 80018f8:	46bd      	mov	sp, r7
 80018fa:	bd80      	pop	{r7, pc}

080018fc <HAL_DMA_Abort>:
 80018fc:	b580      	push	{r7, lr}
 80018fe:	b084      	sub	sp, #16
 8001900:	af00      	add	r7, sp, #0
 8001902:	6078      	str	r0, [r7, #4]
 8001904:	687b      	ldr	r3, [r7, #4]
 8001906:	6d9b      	ldr	r3, [r3, #88]	; 0x58
 8001908:	60fb      	str	r3, [r7, #12]
 800190a:	f7ff fee5 	bl	80016d8 <HAL_GetTick>
 800190e:	60b8      	str	r0, [r7, #8]
 8001910:	687b      	ldr	r3, [r7, #4]
 8001912:	f893 3035 	ldrb.w	r3, [r3, #53]	; 0x35
 8001916:	b2db      	uxtb	r3, r3
 8001918:	2b02      	cmp	r3, #2
 800191a:	d008      	beq.n	800192e <HAL_DMA_Abort+0x32>
 800191c:	687b      	ldr	r3, [r7, #4]
 800191e:	2280      	movs	r2, #128	; 0x80
 8001920:	655a      	str	r2, [r3, #84]	; 0x54
 8001922:	687b      	ldr	r3, [r7, #4]
 8001924:	2200      	movs	r2, #0
 8001926:	f883 2034 	strb.w	r2, [r3, #52]	; 0x34
 800192a:	2301      	movs	r3, #1
 800192c:	e052      	b.n	80019d4 <HAL_DMA_Abort+0xd8>
 800192e:	687b      	ldr	r3, [r7, #4]
 8001930:	681b      	ldr	r3, [r3, #0]
 8001932:	681a      	ldr	r2, [r3, #0]
 8001934:	687b      	ldr	r3, [r7, #4]
 8001936:	681b      	ldr	r3, [r3, #0]
 8001938:	f022 0216 	bic.w	r2, r2, #22
 800193c:	601a      	str	r2, [r3, #0]
 800193e:	687b      	ldr	r3, [r7, #4]
 8001940:	681b      	ldr	r3, [r3, #0]
 8001942:	695a      	ldr	r2, [r3, #20]
 8001944:	687b      	ldr	r3, [r7, #4]
 8001946:	681b      	ldr	r3, [r3, #0]
 8001948:	f022 0280 	bic.w	r2, r2, #128	; 0x80
 800194c:	615a      	str	r2, [r3, #20]
 800194e:	687b      	ldr	r3, [r7, #4]
 8001950:	6c1b      	ldr	r3, [r3, #64]	; 0x40
 8001952:	2b00      	cmp	r3, #0
 8001954:	d103      	bne.n	800195e <HAL_DMA_Abort+0x62>
 8001956:	687b      	ldr	r3, [r7, #4]
 8001958:	6c9b      	ldr	r3, [r3, #72]	; 0x48
 800195a:	2b00      	cmp	r3, #0
 800195c:	d007      	beq.n	800196e <HAL_DMA_Abort+0x72>
 800195e:	687b      	ldr	r3, [r7, #4]
 8001960:	681b      	ldr	r3, [r3, #0]
 8001962:	681a      	ldr	r2, [r3, #0]
 8001964:	687b      	ldr	r3, [r7, #4]
 8001966:	681b      	ldr	r3, [r3, #0]
 8001968:	f022 0208 	bic.w	r2, r2, #8
 800196c:	601a      	str	r2, [r3, #0]
 800196e:	687b      	ldr	r3, [r7, #4]
 8001970:	681b      	ldr	r3, [r3, #0]
 8001972:	681a      	ldr	r2, [r3, #0]
 8001974:	687b      	ldr	r3, [r7, #4]
 8001976:	681b      	ldr	r3, [r3, #0]
 8001978:	f022 0201 	bic.w	r2, r2, #1
 800197c:	601a      	str	r2, [r3, #0]
 800197e:	e013      	b.n	80019a8 <HAL_DMA_Abort+0xac>
 8001980:	f7ff feaa 	bl	80016d8 <HAL_GetTick>
 8001984:	4602      	mov	r2, r0
 8001986:	68bb      	ldr	r3, [r7, #8]
 8001988:	1ad3      	subs	r3, r2, r3
 800198a:	2b05      	cmp	r3, #5
 800198c:	d90c      	bls.n	80019a8 <HAL_DMA_Abort+0xac>
 800198e:	687b      	ldr	r3, [r7, #4]
 8001990:	2220      	movs	r2, #32
 8001992:	655a      	str	r2, [r3, #84]	; 0x54
 8001994:	687b      	ldr	r3, [r7, #4]
 8001996:	2203      	movs	r2, #3
 8001998:	f883 2035 	strb.w	r2, [r3, #53]	; 0x35
 800199c:	687b      	ldr	r3, [r7, #4]
 800199e:	2200      	movs	r2, #0
 80019a0:	f883 2034 	strb.w	r2, [r3, #52]	; 0x34
 80019a4:	2303      	movs	r3, #3
 80019a6:	e015      	b.n	80019d4 <HAL_DMA_Abort+0xd8>
 80019a8:	687b      	ldr	r3, [r7, #4]
 80019aa:	681b      	ldr	r3, [r3, #0]
 80019ac:	681b      	ldr	r3, [r3, #0]
 80019ae:	f003 0301 	and.w	r3, r3, #1
 80019b2:	2b00      	cmp	r3, #0
 80019b4:	d1e4      	bne.n	8001980 <HAL_DMA_Abort+0x84>
 80019b6:	687b      	ldr	r3, [r7, #4]
 80019b8:	6ddb      	ldr	r3, [r3, #92]	; 0x5c
 80019ba:	223f      	movs	r2, #63	; 0x3f
 80019bc:	409a      	lsls	r2, r3
 80019be:	68fb      	ldr	r3, [r7, #12]
 80019c0:	609a      	str	r2, [r3, #8]
 80019c2:	687b      	ldr	r3, [r7, #4]
 80019c4:	2201      	movs	r2, #1
 80019c6:	f883 2035 	strb.w	r2, [r3, #53]	; 0x35
 80019ca:	687b      	ldr	r3, [r7, #4]
 80019cc:	2200      	movs	r2, #0
 80019ce:	f883 2034 	strb.w	r2, [r3, #52]	; 0x34
 80019d2:	2300      	movs	r3, #0
 80019d4:	4618      	mov	r0, r3
 80019d6:	3710      	adds	r7, #16
 80019d8:	46bd      	mov	sp, r7
 80019da:	bd80      	pop	{r7, pc}

080019dc <HAL_DMA_Abort_IT>:
 80019dc:	b480      	push	{r7}
 80019de:	b083      	sub	sp, #12
 80019e0:	af00      	add	r7, sp, #0
 80019e2:	6078      	str	r0, [r7, #4]
 80019e4:	687b      	ldr	r3, [r7, #4]
 80019e6:	f893 3035 	ldrb.w	r3, [r3, #53]	; 0x35
 80019ea:	b2db      	uxtb	r3, r3
 80019ec:	2b02      	cmp	r3, #2
 80019ee:	d004      	beq.n	80019fa <HAL_DMA_Abort_IT+0x1e>
 80019f0:	687b      	ldr	r3, [r7, #4]
 80019f2:	2280      	movs	r2, #128	; 0x80
 80019f4:	655a      	str	r2, [r3, #84]	; 0x54
 80019f6:	2301      	movs	r3, #1
 80019f8:	e00c      	b.n	8001a14 <HAL_DMA_Abort_IT+0x38>
 80019fa:	687b      	ldr	r3, [r7, #4]
 80019fc:	2205      	movs	r2, #5
 80019fe:	f883 2035 	strb.w	r2, [r3, #53]	; 0x35
 8001a02:	687b      	ldr	r3, [r7, #4]
 8001a04:	681b      	ldr	r3, [r3, #0]
 8001a06:	681a      	ldr	r2, [r3, #0]
 8001a08:	687b      	ldr	r3, [r7, #4]
 8001a0a:	681b      	ldr	r3, [r3, #0]
 8001a0c:	f022 0201 	bic.w	r2, r2, #1
 8001a10:	601a      	str	r2, [r3, #0]
 8001a12:	2300      	movs	r3, #0
 8001a14:	4618      	mov	r0, r3
 8001a16:	370c      	adds	r7, #12
 8001a18:	46bd      	mov	sp, r7
 8001a1a:	f85d 7b04 	ldr.w	r7, [sp], #4
 8001a1e:	4770      	bx	lr

08001a20 <HAL_DMA_GetState>:
 8001a20:	b480      	push	{r7}
 8001a22:	b083      	sub	sp, #12
 8001a24:	af00      	add	r7, sp, #0
 8001a26:	6078      	str	r0, [r7, #4]
 8001a28:	687b      	ldr	r3, [r7, #4]
 8001a2a:	f893 3035 	ldrb.w	r3, [r3, #53]	; 0x35
 8001a2e:	b2db      	uxtb	r3, r3
 8001a30:	4618      	mov	r0, r3
 8001a32:	370c      	adds	r7, #12
 8001a34:	46bd      	mov	sp, r7
 8001a36:	f85d 7b04 	ldr.w	r7, [sp], #4
 8001a3a:	4770      	bx	lr

08001a3c <HAL_DMA_GetError>:
 8001a3c:	b480      	push	{r7}
 8001a3e:	b083      	sub	sp, #12
 8001a40:	af00      	add	r7, sp, #0
 8001a42:	6078      	str	r0, [r7, #4]
 8001a44:	687b      	ldr	r3, [r7, #4]
 8001a46:	6d5b      	ldr	r3, [r3, #84]	; 0x54
 8001a48:	4618      	mov	r0, r3
 8001a4a:	370c      	adds	r7, #12
 8001a4c:	46bd      	mov	sp, r7
 8001a4e:	f85d 7b04 	ldr.w	r7, [sp], #4
 8001a52:	4770      	bx	lr

08001a54 <HAL_GPIO_Init>:
 8001a54:	b480      	push	{r7}
 8001a56:	b089      	sub	sp, #36	; 0x24
 8001a58:	af00      	add	r7, sp, #0
 8001a5a:	6078      	str	r0, [r7, #4]
 8001a5c:	6039      	str	r1, [r7, #0]
 8001a5e:	2300      	movs	r3, #0
 8001a60:	617b      	str	r3, [r7, #20]
 8001a62:	2300      	movs	r3, #0
 8001a64:	613b      	str	r3, [r7, #16]
 8001a66:	2300      	movs	r3, #0
 8001a68:	61bb      	str	r3, [r7, #24]
 8001a6a:	2300      	movs	r3, #0
 8001a6c:	61fb      	str	r3, [r7, #28]
 8001a6e:	e16b      	b.n	8001d48 <HAL_GPIO_Init+0x2f4>
 8001a70:	2201      	movs	r2, #1
 8001a72:	69fb      	ldr	r3, [r7, #28]
 8001a74:	fa02 f303 	lsl.w	r3, r2, r3
 8001a78:	617b      	str	r3, [r7, #20]
 8001a7a:	683b      	ldr	r3, [r7, #0]
 8001a7c:	681b      	ldr	r3, [r3, #0]
 8001a7e:	697a      	ldr	r2, [r7, #20]
 8001a80:	4013      	ands	r3, r2
 8001a82:	613b      	str	r3, [r7, #16]
 8001a84:	693a      	ldr	r2, [r7, #16]
 8001a86:	697b      	ldr	r3, [r7, #20]
 8001a88:	429a      	cmp	r2, r3
 8001a8a:	f040 815a 	bne.w	8001d42 <HAL_GPIO_Init+0x2ee>
 8001a8e:	683b      	ldr	r3, [r7, #0]
 8001a90:	685b      	ldr	r3, [r3, #4]
 8001a92:	f003 0303 	and.w	r3, r3, #3
 8001a96:	2b01      	cmp	r3, #1
 8001a98:	d005      	beq.n	8001aa6 <HAL_GPIO_Init+0x52>
 8001a9a:	683b      	ldr	r3, [r7, #0]
 8001a9c:	685b      	ldr	r3, [r3, #4]
 8001a9e:	f003 0303 	and.w	r3, r3, #3
 8001aa2:	2b02      	cmp	r3, #2
 8001aa4:	d130      	bne.n	8001b08 <HAL_GPIO_Init+0xb4>
 8001aa6:	687b      	ldr	r3, [r7, #4]
 8001aa8:	689b      	ldr	r3, [r3, #8]
 8001aaa:	61bb      	str	r3, [r7, #24]
 8001aac:	69fb      	ldr	r3, [r7, #28]
 8001aae:	005b      	lsls	r3, r3, #1
 8001ab0:	2203      	movs	r2, #3
 8001ab2:	fa02 f303 	lsl.w	r3, r2, r3
 8001ab6:	43db      	mvns	r3, r3
 8001ab8:	69ba      	ldr	r2, [r7, #24]
 8001aba:	4013      	ands	r3, r2
 8001abc:	61bb      	str	r3, [r7, #24]
 8001abe:	683b      	ldr	r3, [r7, #0]
 8001ac0:	68da      	ldr	r2, [r3, #12]
 8001ac2:	69fb      	ldr	r3, [r7, #28]
 8001ac4:	005b      	lsls	r3, r3, #1
 8001ac6:	fa02 f303 	lsl.w	r3, r2, r3
 8001aca:	69ba      	ldr	r2, [r7, #24]
 8001acc:	4313      	orrs	r3, r2
 8001ace:	61bb      	str	r3, [r7, #24]
 8001ad0:	687b      	ldr	r3, [r7, #4]
 8001ad2:	69ba      	ldr	r2, [r7, #24]
 8001ad4:	609a      	str	r2, [r3, #8]
 8001ad6:	687b      	ldr	r3, [r7, #4]
 8001ad8:	685b      	ldr	r3, [r3, #4]
 8001ada:	61bb      	str	r3, [r7, #24]
 8001adc:	2201      	movs	r2, #1
 8001ade:	69fb      	ldr	r3, [r7, #28]
 8001ae0:	fa02 f303 	lsl.w	r3, r2, r3
 8001ae4:	43db      	mvns	r3, r3
 8001ae6:	69ba      	ldr	r2, [r7, #24]
 8001ae8:	4013      	ands	r3, r2
 8001aea:	61bb      	str	r3, [r7, #24]
 8001aec:	683b      	ldr	r3, [r7, #0]
 8001aee:	685b      	ldr	r3, [r3, #4]
 8001af0:	091b      	lsrs	r3, r3, #4
 8001af2:	f003 0201 	and.w	r2, r3, #1
 8001af6:	69fb      	ldr	r3, [r7, #28]
 8001af8:	fa02 f303 	lsl.w	r3, r2, r3
 8001afc:	69ba      	ldr	r2, [r7, #24]
 8001afe:	4313      	orrs	r3, r2
 8001b00:	61bb      	str	r3, [r7, #24]
 8001b02:	687b      	ldr	r3, [r7, #4]
 8001b04:	69ba      	ldr	r2, [r7, #24]
 8001b06:	605a      	str	r2, [r3, #4]
 8001b08:	683b      	ldr	r3, [r7, #0]
 8001b0a:	685b      	ldr	r3, [r3, #4]
 8001b0c:	f003 0303 	and.w	r3, r3, #3
 8001b10:	2b03      	cmp	r3, #3
 8001b12:	d017      	beq.n	8001b44 <HAL_GPIO_Init+0xf0>
 8001b14:	687b      	ldr	r3, [r7, #4]
 8001b16:	68db      	ldr	r3, [r3, #12]
 8001b18:	61bb      	str	r3, [r7, #24]
 8001b1a:	69fb      	ldr	r3, [r7, #28]
 8001b1c:	005b      	lsls	r3, r3, #1
 8001b1e:	2203      	movs	r2, #3
 8001b20:	fa02 f303 	lsl.w	r3, r2, r3
 8001b24:	43db      	mvns	r3, r3
 8001b26:	69ba      	ldr	r2, [r7, #24]
 8001b28:	4013      	ands	r3, r2
 8001b2a:	61bb      	str	r3, [r7, #24]
 8001b2c:	683b      	ldr	r3, [r7, #0]
 8001b2e:	689a      	ldr	r2, [r3, #8]
 8001b30:	69fb      	ldr	r3, [r7, #28]
 8001b32:	005b      	lsls	r3, r3, #1
 8001b34:	fa02 f303 	lsl.w	r3, r2, r3
 8001b38:	69ba      	ldr	r2, [r7, #24]
 8001b3a:	4313      	orrs	r3, r2
 8001b3c:	61bb      	str	r3, [r7, #24]
 8001b3e:	687b      	ldr	r3, [r7, #4]
 8001b40:	69ba      	ldr	r2, [r7, #24]
 8001b42:	60da      	str	r2, [r3, #12]
 8001b44:	683b      	ldr	r3, [r7, #0]
 8001b46:	685b      	ldr	r3, [r3, #4]
 8001b48:	f003 0303 	and.w	r3, r3, #3
 8001b4c:	2b02      	cmp	r3, #2
 8001b4e:	d123      	bne.n	8001b98 <HAL_GPIO_Init+0x144>
 8001b50:	69fb      	ldr	r3, [r7, #28]
 8001b52:	08da      	lsrs	r2, r3, #3
 8001b54:	687b      	ldr	r3, [r7, #4]
 8001b56:	3208      	adds	r2, #8
 8001b58:	f853 3022 	ldr.w	r3, [r3, r2, lsl #2]
 8001b5c:	61bb      	str	r3, [r7, #24]
 8001b5e:	69fb      	ldr	r3, [r7, #28]
 8001b60:	f003 0307 	and.w	r3, r3, #7
 8001b64:	009b      	lsls	r3, r3, #2
 8001b66:	220f      	movs	r2, #15
 8001b68:	fa02 f303 	lsl.w	r3, r2, r3
 8001b6c:	43db      	mvns	r3, r3
 8001b6e:	69ba      	ldr	r2, [r7, #24]
 8001b70:	4013      	ands	r3, r2
 8001b72:	61bb      	str	r3, [r7, #24]
 8001b74:	683b      	ldr	r3, [r7, #0]
 8001b76:	691a      	ldr	r2, [r3, #16]
 8001b78:	69fb      	ldr	r3, [r7, #28]
 8001b7a:	f003 0307 	and.w	r3, r3, #7
 8001b7e:	009b      	lsls	r3, r3, #2
 8001b80:	fa02 f303 	lsl.w	r3, r2, r3
 8001b84:	69ba      	ldr	r2, [r7, #24]
 8001b86:	4313      	orrs	r3, r2
 8001b88:	61bb      	str	r3, [r7, #24]
 8001b8a:	69fb      	ldr	r3, [r7, #28]
 8001b8c:	08da      	lsrs	r2, r3, #3
 8001b8e:	687b      	ldr	r3, [r7, #4]
 8001b90:	3208      	adds	r2, #8
 8001b92:	69b9      	ldr	r1, [r7, #24]
 8001b94:	f843 1022 	str.w	r1, [r3, r2, lsl #2]
 8001b98:	687b      	ldr	r3, [r7, #4]
 8001b9a:	681b      	ldr	r3, [r3, #0]
 8001b9c:	61bb      	str	r3, [r7, #24]
 8001b9e:	69fb      	ldr	r3, [r7, #28]
 8001ba0:	005b      	lsls	r3, r3, #1
 8001ba2:	2203      	movs	r2, #3
 8001ba4:	fa02 f303 	lsl.w	r3, r2, r3
 8001ba8:	43db      	mvns	r3, r3
 8001baa:	69ba      	ldr	r2, [r7, #24]
 8001bac:	4013      	ands	r3, r2
 8001bae:	61bb      	str	r3, [r7, #24]
 8001bb0:	683b      	ldr	r3, [r7, #0]
 8001bb2:	685b      	ldr	r3, [r3, #4]
 8001bb4:	f003 0203 	and.w	r2, r3, #3
 8001bb8:	69fb      	ldr	r3, [r7, #28]
 8001bba:	005b      	lsls	r3, r3, #1
 8001bbc:	fa02 f303 	lsl.w	r3, r2, r3
 8001bc0:	69ba      	ldr	r2, [r7, #24]
 8001bc2:	4313      	orrs	r3, r2
 8001bc4:	61bb      	str	r3, [r7, #24]
 8001bc6:	687b      	ldr	r3, [r7, #4]
 8001bc8:	69ba      	ldr	r2, [r7, #24]
 8001bca:	601a      	str	r2, [r3, #0]
 8001bcc:	683b      	ldr	r3, [r7, #0]
 8001bce:	685b      	ldr	r3, [r3, #4]
 8001bd0:	f403 3340 	and.w	r3, r3, #196608	; 0x30000
 8001bd4:	2b00      	cmp	r3, #0
 8001bd6:	f000 80b4 	beq.w	8001d42 <HAL_GPIO_Init+0x2ee>
 8001bda:	2300      	movs	r3, #0
 8001bdc:	60fb      	str	r3, [r7, #12]
 8001bde:	4b60      	ldr	r3, [pc, #384]	; (8001d60 <HAL_GPIO_Init+0x30c>)
 8001be0:	6c5b      	ldr	r3, [r3, #68]	; 0x44
 8001be2:	4a5f      	ldr	r2, [pc, #380]	; (8001d60 <HAL_GPIO_Init+0x30c>)
 8001be4:	f443 4380 	orr.w	r3, r3, #16384	; 0x4000
 8001be8:	6453      	str	r3, [r2, #68]	; 0x44
 8001bea:	4b5d      	ldr	r3, [pc, #372]	; (8001d60 <HAL_GPIO_Init+0x30c>)
 8001bec:	6c5b      	ldr	r3, [r3, #68]	; 0x44
 8001bee:	f403 4380 	and.w	r3, r3, #16384	; 0x4000
 8001bf2:	60fb      	str	r3, [r7, #12]
 8001bf4:	68fb      	ldr	r3, [r7, #12]
 8001bf6:	4a5b      	ldr	r2, [pc, #364]	; (8001d64 <HAL_GPIO_Init+0x310>)
 8001bf8:	69fb      	ldr	r3, [r7, #28]
 8001bfa:	089b      	lsrs	r3, r3, #2
 8001bfc:	3302      	adds	r3, #2
 8001bfe:	f852 3023 	ldr.w	r3, [r2, r3, lsl #2]
 8001c02:	61bb      	str	r3, [r7, #24]
 8001c04:	69fb      	ldr	r3, [r7, #28]
 8001c06:	f003 0303 	and.w	r3, r3, #3
 8001c0a:	009b      	lsls	r3, r3, #2
 8001c0c:	220f      	movs	r2, #15
 8001c0e:	fa02 f303 	lsl.w	r3, r2, r3
 8001c12:	43db      	mvns	r3, r3
 8001c14:	69ba      	ldr	r2, [r7, #24]
 8001c16:	4013      	ands	r3, r2
 8001c18:	61bb      	str	r3, [r7, #24]
 8001c1a:	687b      	ldr	r3, [r7, #4]
 8001c1c:	4a52      	ldr	r2, [pc, #328]	; (8001d68 <HAL_GPIO_Init+0x314>)
 8001c1e:	4293      	cmp	r3, r2
 8001c20:	d02b      	beq.n	8001c7a <HAL_GPIO_Init+0x226>
 8001c22:	687b      	ldr	r3, [r7, #4]
 8001c24:	4a51      	ldr	r2, [pc, #324]	; (8001d6c <HAL_GPIO_Init+0x318>)
 8001c26:	4293      	cmp	r3, r2
 8001c28:	d025      	beq.n	8001c76 <HAL_GPIO_Init+0x222>
 8001c2a:	687b      	ldr	r3, [r7, #4]
 8001c2c:	4a50      	ldr	r2, [pc, #320]	; (8001d70 <HAL_GPIO_Init+0x31c>)
 8001c2e:	4293      	cmp	r3, r2
 8001c30:	d01f      	beq.n	8001c72 <HAL_GPIO_Init+0x21e>
 8001c32:	687b      	ldr	r3, [r7, #4]
 8001c34:	4a4f      	ldr	r2, [pc, #316]	; (8001d74 <HAL_GPIO_Init+0x320>)
 8001c36:	4293      	cmp	r3, r2
 8001c38:	d019      	beq.n	8001c6e <HAL_GPIO_Init+0x21a>
 8001c3a:	687b      	ldr	r3, [r7, #4]
 8001c3c:	4a4e      	ldr	r2, [pc, #312]	; (8001d78 <HAL_GPIO_Init+0x324>)
 8001c3e:	4293      	cmp	r3, r2
 8001c40:	d013      	beq.n	8001c6a <HAL_GPIO_Init+0x216>
 8001c42:	687b      	ldr	r3, [r7, #4]
 8001c44:	4a4d      	ldr	r2, [pc, #308]	; (8001d7c <HAL_GPIO_Init+0x328>)
 8001c46:	4293      	cmp	r3, r2
 8001c48:	d00d      	beq.n	8001c66 <HAL_GPIO_Init+0x212>
 8001c4a:	687b      	ldr	r3, [r7, #4]
 8001c4c:	4a4c      	ldr	r2, [pc, #304]	; (8001d80 <HAL_GPIO_Init+0x32c>)
 8001c4e:	4293      	cmp	r3, r2
 8001c50:	d007      	beq.n	8001c62 <HAL_GPIO_Init+0x20e>
 8001c52:	687b      	ldr	r3, [r7, #4]
 8001c54:	4a4b      	ldr	r2, [pc, #300]	; (8001d84 <HAL_GPIO_Init+0x330>)
 8001c56:	4293      	cmp	r3, r2
 8001c58:	d101      	bne.n	8001c5e <HAL_GPIO_Init+0x20a>
 8001c5a:	2307      	movs	r3, #7
 8001c5c:	e00e      	b.n	8001c7c <HAL_GPIO_Init+0x228>
 8001c5e:	2308      	movs	r3, #8
 8001c60:	e00c      	b.n	8001c7c <HAL_GPIO_Init+0x228>
 8001c62:	2306      	movs	r3, #6
 8001c64:	e00a      	b.n	8001c7c <HAL_GPIO_Init+0x228>
 8001c66:	2305      	movs	r3, #5
 8001c68:	e008      	b.n	8001c7c <HAL_GPIO_Init+0x228>
 8001c6a:	2304      	movs	r3, #4
 8001c6c:	e006      	b.n	8001c7c <HAL_GPIO_Init+0x228>
 8001c6e:	2303      	movs	r3, #3
 8001c70:	e004      	b.n	8001c7c <HAL_GPIO_Init+0x228>
 8001c72:	2302      	movs	r3, #2
 8001c74:	e002      	b.n	8001c7c <HAL_GPIO_Init+0x228>
 8001c76:	2301      	movs	r3, #1
 8001c78:	e000      	b.n	8001c7c <HAL_GPIO_Init+0x228>
 8001c7a:	2300      	movs	r3, #0
 8001c7c:	69fa      	ldr	r2, [r7, #28]
 8001c7e:	f002 0203 	and.w	r2, r2, #3
 8001c82:	0092      	lsls	r2, r2, #2
 8001c84:	4093      	lsls	r3, r2
 8001c86:	69ba      	ldr	r2, [r7, #24]
 8001c88:	4313      	orrs	r3, r2
 8001c8a:	61bb      	str	r3, [r7, #24]
 8001c8c:	4935      	ldr	r1, [pc, #212]	; (8001d64 <HAL_GPIO_Init+0x310>)
 8001c8e:	69fb      	ldr	r3, [r7, #28]
 8001c90:	089b      	lsrs	r3, r3, #2
 8001c92:	3302      	adds	r3, #2
 8001c94:	69ba      	ldr	r2, [r7, #24]
 8001c96:	f841 2023 	str.w	r2, [r1, r3, lsl #2]
 8001c9a:	4b3b      	ldr	r3, [pc, #236]	; (8001d88 <HAL_GPIO_Init+0x334>)
 8001c9c:	681b      	ldr	r3, [r3, #0]
 8001c9e:	61bb      	str	r3, [r7, #24]
 8001ca0:	693b      	ldr	r3, [r7, #16]
 8001ca2:	43db      	mvns	r3, r3
 8001ca4:	69ba      	ldr	r2, [r7, #24]
 8001ca6:	4013      	ands	r3, r2
 8001ca8:	61bb      	str	r3, [r7, #24]
 8001caa:	683b      	ldr	r3, [r7, #0]
 8001cac:	685b      	ldr	r3, [r3, #4]
 8001cae:	f403 3380 	and.w	r3, r3, #65536	; 0x10000
 8001cb2:	2b00      	cmp	r3, #0
 8001cb4:	d003      	beq.n	8001cbe <HAL_GPIO_Init+0x26a>
 8001cb6:	69ba      	ldr	r2, [r7, #24]
 8001cb8:	693b      	ldr	r3, [r7, #16]
 8001cba:	4313      	orrs	r3, r2
 8001cbc:	61bb      	str	r3, [r7, #24]
 8001cbe:	4a32      	ldr	r2, [pc, #200]	; (8001d88 <HAL_GPIO_Init+0x334>)
 8001cc0:	69bb      	ldr	r3, [r7, #24]
 8001cc2:	6013      	str	r3, [r2, #0]
 8001cc4:	4b30      	ldr	r3, [pc, #192]	; (8001d88 <HAL_GPIO_Init+0x334>)
 8001cc6:	685b      	ldr	r3, [r3, #4]
 8001cc8:	61bb      	str	r3, [r7, #24]
 8001cca:	693b      	ldr	r3, [r7, #16]
 8001ccc:	43db      	mvns	r3, r3
 8001cce:	69ba      	ldr	r2, [r7, #24]
 8001cd0:	4013      	ands	r3, r2
 8001cd2:	61bb      	str	r3, [r7, #24]
 8001cd4:	683b      	ldr	r3, [r7, #0]
 8001cd6:	685b      	ldr	r3, [r3, #4]
 8001cd8:	f403 3300 	and.w	r3, r3, #131072	; 0x20000
 8001cdc:	2b00      	cmp	r3, #0
 8001cde:	d003      	beq.n	8001ce8 <HAL_GPIO_Init+0x294>
 8001ce0:	69ba      	ldr	r2, [r7, #24]
 8001ce2:	693b      	ldr	r3, [r7, #16]
 8001ce4:	4313      	orrs	r3, r2
 8001ce6:	61bb      	str	r3, [r7, #24]
 8001ce8:	4a27      	ldr	r2, [pc, #156]	; (8001d88 <HAL_GPIO_Init+0x334>)
 8001cea:	69bb      	ldr	r3, [r7, #24]
 8001cec:	6053      	str	r3, [r2, #4]
 8001cee:	4b26      	ldr	r3, [pc, #152]	; (8001d88 <HAL_GPIO_Init+0x334>)
 8001cf0:	689b      	ldr	r3, [r3, #8]
 8001cf2:	61bb      	str	r3, [r7, #24]
 8001cf4:	693b      	ldr	r3, [r7, #16]
 8001cf6:	43db      	mvns	r3, r3
 8001cf8:	69ba      	ldr	r2, [r7, #24]
 8001cfa:	4013      	ands	r3, r2
 8001cfc:	61bb      	str	r3, [r7, #24]
 8001cfe:	683b      	ldr	r3, [r7, #0]
 8001d00:	685b      	ldr	r3, [r3, #4]
 8001d02:	f403 1380 	and.w	r3, r3, #1048576	; 0x100000
 8001d06:	2b00      	cmp	r3, #0
 8001d08:	d003      	beq.n	8001d12 <HAL_GPIO_Init+0x2be>
 8001d0a:	69ba      	ldr	r2, [r7, #24]
 8001d0c:	693b      	ldr	r3, [r7, #16]
 8001d0e:	4313      	orrs	r3, r2
 8001d10:	61bb      	str	r3, [r7, #24]
 8001d12:	4a1d      	ldr	r2, [pc, #116]	; (8001d88 <HAL_GPIO_Init+0x334>)
 8001d14:	69bb      	ldr	r3, [r7, #24]
 8001d16:	6093      	str	r3, [r2, #8]
 8001d18:	4b1b      	ldr	r3, [pc, #108]	; (8001d88 <HAL_GPIO_Init+0x334>)
 8001d1a:	68db      	ldr	r3, [r3, #12]
 8001d1c:	61bb      	str	r3, [r7, #24]
 8001d1e:	693b      	ldr	r3, [r7, #16]
 8001d20:	43db      	mvns	r3, r3
 8001d22:	69ba      	ldr	r2, [r7, #24]
 8001d24:	4013      	ands	r3, r2
 8001d26:	61bb      	str	r3, [r7, #24]
 8001d28:	683b      	ldr	r3, [r7, #0]
 8001d2a:	685b      	ldr	r3, [r3, #4]
 8001d2c:	f403 1300 	and.w	r3, r3, #2097152	; 0x200000
 8001d30:	2b00      	cmp	r3, #0
 8001d32:	d003      	beq.n	8001d3c <HAL_GPIO_Init+0x2e8>
 8001d34:	69ba      	ldr	r2, [r7, #24]
 8001d36:	693b      	ldr	r3, [r7, #16]
 8001d38:	4313      	orrs	r3, r2
 8001d3a:	61bb      	str	r3, [r7, #24]
 8001d3c:	4a12      	ldr	r2, [pc, #72]	; (8001d88 <HAL_GPIO_Init+0x334>)
 8001d3e:	69bb      	ldr	r3, [r7, #24]
 8001d40:	60d3      	str	r3, [r2, #12]
 8001d42:	69fb      	ldr	r3, [r7, #28]
 8001d44:	3301      	adds	r3, #1
 8001d46:	61fb      	str	r3, [r7, #28]
 8001d48:	69fb      	ldr	r3, [r7, #28]
 8001d4a:	2b0f      	cmp	r3, #15
 8001d4c:	f67f ae90 	bls.w	8001a70 <HAL_GPIO_Init+0x1c>
 8001d50:	bf00      	nop
 8001d52:	bf00      	nop
 8001d54:	3724      	adds	r7, #36	; 0x24
 8001d56:	46bd      	mov	sp, r7
 8001d58:	f85d 7b04 	ldr.w	r7, [sp], #4
 8001d5c:	4770      	bx	lr
 8001d5e:	bf00      	nop
 8001d60:	40023800 	.word	0x40023800
 8001d64:	40013800 	.word	0x40013800
 8001d68:	40020000 	.word	0x40020000
 8001d6c:	40020400 	.word	0x40020400
 8001d70:	40020800 	.word	0x40020800
 8001d74:	40020c00 	.word	0x40020c00
 8001d78:	40021000 	.word	0x40021000
 8001d7c:	40021400 	.word	0x40021400
 8001d80:	40021800 	.word	0x40021800
 8001d84:	40021c00 	.word	0x40021c00
 8001d88:	40013c00 	.word	0x40013c00

08001d8c <HAL_GPIO_ReadPin>:
 8001d8c:	b480      	push	{r7}
 8001d8e:	b085      	sub	sp, #20
 8001d90:	af00      	add	r7, sp, #0
 8001d92:	6078      	str	r0, [r7, #4]
 8001d94:	460b      	mov	r3, r1
 8001d96:	807b      	strh	r3, [r7, #2]
 8001d98:	687b      	ldr	r3, [r7, #4]
 8001d9a:	691a      	ldr	r2, [r3, #16]
 8001d9c:	887b      	ldrh	r3, [r7, #2]
 8001d9e:	4013      	ands	r3, r2
 8001da0:	2b00      	cmp	r3, #0
 8001da2:	d002      	beq.n	8001daa <HAL_GPIO_ReadPin+0x1e>
 8001da4:	2301      	movs	r3, #1
 8001da6:	73fb      	strb	r3, [r7, #15]
 8001da8:	e001      	b.n	8001dae <HAL_GPIO_ReadPin+0x22>
 8001daa:	2300      	movs	r3, #0
 8001dac:	73fb      	strb	r3, [r7, #15]
 8001dae:	7bfb      	ldrb	r3, [r7, #15]
 8001db0:	4618      	mov	r0, r3
 8001db2:	3714      	adds	r7, #20
 8001db4:	46bd      	mov	sp, r7
 8001db6:	f85d 7b04 	ldr.w	r7, [sp], #4
 8001dba:	4770      	bx	lr

08001dbc <HAL_GPIO_WritePin>:
 8001dbc:	b480      	push	{r7}
 8001dbe:	b083      	sub	sp, #12
 8001dc0:	af00      	add	r7, sp, #0
 8001dc2:	6078      	str	r0, [r7, #4]
 8001dc4:	460b      	mov	r3, r1
 8001dc6:	807b      	strh	r3, [r7, #2]
 8001dc8:	4613      	mov	r3, r2
 8001dca:	707b      	strb	r3, [r7, #1]
 8001dcc:	787b      	ldrb	r3, [r7, #1]
 8001dce:	2b00      	cmp	r3, #0
 8001dd0:	d003      	beq.n	8001dda <HAL_GPIO_WritePin+0x1e>
 8001dd2:	887a      	ldrh	r2, [r7, #2]
 8001dd4:	687b      	ldr	r3, [r7, #4]
 8001dd6:	619a      	str	r2, [r3, #24]
 8001dd8:	e003      	b.n	8001de2 <HAL_GPIO_WritePin+0x26>
 8001dda:	887b      	ldrh	r3, [r7, #2]
 8001ddc:	041a      	lsls	r2, r3, #16
 8001dde:	687b      	ldr	r3, [r7, #4]
 8001de0:	619a      	str	r2, [r3, #24]
 8001de2:	bf00      	nop
 8001de4:	370c      	adds	r7, #12
 8001de6:	46bd      	mov	sp, r7
 8001de8:	f85d 7b04 	ldr.w	r7, [sp], #4
 8001dec:	4770      	bx	lr
	...

08001df0 <HAL_I2C_Init>:
 8001df0:	b580      	push	{r7, lr}
 8001df2:	b084      	sub	sp, #16
 8001df4:	af00      	add	r7, sp, #0
 8001df6:	6078      	str	r0, [r7, #4]
 8001df8:	687b      	ldr	r3, [r7, #4]
 8001dfa:	2b00      	cmp	r3, #0
 8001dfc:	d101      	bne.n	8001e02 <HAL_I2C_Init+0x12>
 8001dfe:	2301      	movs	r3, #1
 8001e00:	e12b      	b.n	800205a <HAL_I2C_Init+0x26a>
 8001e02:	687b      	ldr	r3, [r7, #4]
 8001e04:	f893 303d 	ldrb.w	r3, [r3, #61]	; 0x3d
 8001e08:	b2db      	uxtb	r3, r3
 8001e0a:	2b00      	cmp	r3, #0
 8001e0c:	d106      	bne.n	8001e1c <HAL_I2C_Init+0x2c>
 8001e0e:	687b      	ldr	r3, [r7, #4]
 8001e10:	2200      	movs	r2, #0
 8001e12:	f883 203c 	strb.w	r2, [r3, #60]	; 0x3c
 8001e16:	6878      	ldr	r0, [r7, #4]
 8001e18:	f7fe ff80 	bl	8000d1c <HAL_I2C_MspInit>
 8001e1c:	687b      	ldr	r3, [r7, #4]
 8001e1e:	2224      	movs	r2, #36	; 0x24
 8001e20:	f883 203d 	strb.w	r2, [r3, #61]	; 0x3d
 8001e24:	687b      	ldr	r3, [r7, #4]
 8001e26:	681b      	ldr	r3, [r3, #0]
 8001e28:	681a      	ldr	r2, [r3, #0]
 8001e2a:	687b      	ldr	r3, [r7, #4]
 8001e2c:	681b      	ldr	r3, [r3, #0]
 8001e2e:	f022 0201 	bic.w	r2, r2, #1
 8001e32:	601a      	str	r2, [r3, #0]
 8001e34:	687b      	ldr	r3, [r7, #4]
 8001e36:	681b      	ldr	r3, [r3, #0]
 8001e38:	681a      	ldr	r2, [r3, #0]
 8001e3a:	687b      	ldr	r3, [r7, #4]
 8001e3c:	681b      	ldr	r3, [r3, #0]
 8001e3e:	f442 4200 	orr.w	r2, r2, #32768	; 0x8000
 8001e42:	601a      	str	r2, [r3, #0]
 8001e44:	687b      	ldr	r3, [r7, #4]
 8001e46:	681b      	ldr	r3, [r3, #0]
 8001e48:	681a      	ldr	r2, [r3, #0]
 8001e4a:	687b      	ldr	r3, [r7, #4]
 8001e4c:	681b      	ldr	r3, [r3, #0]
 8001e4e:	f422 4200 	bic.w	r2, r2, #32768	; 0x8000
 8001e52:	601a      	str	r2, [r3, #0]
 8001e54:	f003 fa0e 	bl	8005274 <HAL_RCC_GetPCLK1Freq>
 8001e58:	60f8      	str	r0, [r7, #12]
 8001e5a:	687b      	ldr	r3, [r7, #4]
 8001e5c:	685b      	ldr	r3, [r3, #4]
 8001e5e:	4a81      	ldr	r2, [pc, #516]	; (8002064 <HAL_I2C_Init+0x274>)
 8001e60:	4293      	cmp	r3, r2
 8001e62:	d807      	bhi.n	8001e74 <HAL_I2C_Init+0x84>
 8001e64:	68fb      	ldr	r3, [r7, #12]
 8001e66:	4a80      	ldr	r2, [pc, #512]	; (8002068 <HAL_I2C_Init+0x278>)
 8001e68:	4293      	cmp	r3, r2
 8001e6a:	bf94      	ite	ls
 8001e6c:	2301      	movls	r3, #1
 8001e6e:	2300      	movhi	r3, #0
 8001e70:	b2db      	uxtb	r3, r3
 8001e72:	e006      	b.n	8001e82 <HAL_I2C_Init+0x92>
 8001e74:	68fb      	ldr	r3, [r7, #12]
 8001e76:	4a7d      	ldr	r2, [pc, #500]	; (800206c <HAL_I2C_Init+0x27c>)
 8001e78:	4293      	cmp	r3, r2
 8001e7a:	bf94      	ite	ls
 8001e7c:	2301      	movls	r3, #1
 8001e7e:	2300      	movhi	r3, #0
 8001e80:	b2db      	uxtb	r3, r3
 8001e82:	2b00      	cmp	r3, #0
 8001e84:	d001      	beq.n	8001e8a <HAL_I2C_Init+0x9a>
 8001e86:	2301      	movs	r3, #1
 8001e88:	e0e7      	b.n	800205a <HAL_I2C_Init+0x26a>
 8001e8a:	68fb      	ldr	r3, [r7, #12]
 8001e8c:	4a78      	ldr	r2, [pc, #480]	; (8002070 <HAL_I2C_Init+0x280>)
 8001e8e:	fba2 2303 	umull	r2, r3, r2, r3
 8001e92:	0c9b      	lsrs	r3, r3, #18
 8001e94:	60bb      	str	r3, [r7, #8]
 8001e96:	687b      	ldr	r3, [r7, #4]
 8001e98:	681b      	ldr	r3, [r3, #0]
 8001e9a:	685b      	ldr	r3, [r3, #4]
 8001e9c:	f023 013f 	bic.w	r1, r3, #63	; 0x3f
 8001ea0:	687b      	ldr	r3, [r7, #4]
 8001ea2:	681b      	ldr	r3, [r3, #0]
 8001ea4:	68ba      	ldr	r2, [r7, #8]
 8001ea6:	430a      	orrs	r2, r1
 8001ea8:	605a      	str	r2, [r3, #4]
 8001eaa:	687b      	ldr	r3, [r7, #4]
 8001eac:	681b      	ldr	r3, [r3, #0]
 8001eae:	6a1b      	ldr	r3, [r3, #32]
 8001eb0:	f023 013f 	bic.w	r1, r3, #63	; 0x3f
 8001eb4:	687b      	ldr	r3, [r7, #4]
 8001eb6:	685b      	ldr	r3, [r3, #4]
 8001eb8:	4a6a      	ldr	r2, [pc, #424]	; (8002064 <HAL_I2C_Init+0x274>)
 8001eba:	4293      	cmp	r3, r2
 8001ebc:	d802      	bhi.n	8001ec4 <HAL_I2C_Init+0xd4>
 8001ebe:	68bb      	ldr	r3, [r7, #8]
 8001ec0:	3301      	adds	r3, #1
 8001ec2:	e009      	b.n	8001ed8 <HAL_I2C_Init+0xe8>
 8001ec4:	68bb      	ldr	r3, [r7, #8]
 8001ec6:	f44f 7296 	mov.w	r2, #300	; 0x12c
 8001eca:	fb02 f303 	mul.w	r3, r2, r3
 8001ece:	4a69      	ldr	r2, [pc, #420]	; (8002074 <HAL_I2C_Init+0x284>)
 8001ed0:	fba2 2303 	umull	r2, r3, r2, r3
 8001ed4:	099b      	lsrs	r3, r3, #6
 8001ed6:	3301      	adds	r3, #1
 8001ed8:	687a      	ldr	r2, [r7, #4]
 8001eda:	6812      	ldr	r2, [r2, #0]
 8001edc:	430b      	orrs	r3, r1
 8001ede:	6213      	str	r3, [r2, #32]
 8001ee0:	687b      	ldr	r3, [r7, #4]
 8001ee2:	681b      	ldr	r3, [r3, #0]
 8001ee4:	69db      	ldr	r3, [r3, #28]
 8001ee6:	f423 424f 	bic.w	r2, r3, #52992	; 0xcf00
 8001eea:	f022 02ff 	bic.w	r2, r2, #255	; 0xff
 8001eee:	687b      	ldr	r3, [r7, #4]
 8001ef0:	685b      	ldr	r3, [r3, #4]
 8001ef2:	495c      	ldr	r1, [pc, #368]	; (8002064 <HAL_I2C_Init+0x274>)
 8001ef4:	428b      	cmp	r3, r1
 8001ef6:	d819      	bhi.n	8001f2c <HAL_I2C_Init+0x13c>
 8001ef8:	68fb      	ldr	r3, [r7, #12]
 8001efa:	1e59      	subs	r1, r3, #1
 8001efc:	687b      	ldr	r3, [r7, #4]
 8001efe:	685b      	ldr	r3, [r3, #4]
 8001f00:	005b      	lsls	r3, r3, #1
 8001f02:	fbb1 f3f3 	udiv	r3, r1, r3
 8001f06:	1c59      	adds	r1, r3, #1
 8001f08:	f640 73fc 	movw	r3, #4092	; 0xffc
 8001f0c:	400b      	ands	r3, r1
 8001f0e:	2b00      	cmp	r3, #0
 8001f10:	d00a      	beq.n	8001f28 <HAL_I2C_Init+0x138>
 8001f12:	68fb      	ldr	r3, [r7, #12]
 8001f14:	1e59      	subs	r1, r3, #1
 8001f16:	687b      	ldr	r3, [r7, #4]
 8001f18:	685b      	ldr	r3, [r3, #4]
 8001f1a:	005b      	lsls	r3, r3, #1
 8001f1c:	fbb1 f3f3 	udiv	r3, r1, r3
 8001f20:	3301      	adds	r3, #1
 8001f22:	f3c3 030b 	ubfx	r3, r3, #0, #12
 8001f26:	e051      	b.n	8001fcc <HAL_I2C_Init+0x1dc>
 8001f28:	2304      	movs	r3, #4
 8001f2a:	e04f      	b.n	8001fcc <HAL_I2C_Init+0x1dc>
 8001f2c:	687b      	ldr	r3, [r7, #4]
 8001f2e:	689b      	ldr	r3, [r3, #8]
 8001f30:	2b00      	cmp	r3, #0
 8001f32:	d111      	bne.n	8001f58 <HAL_I2C_Init+0x168>
 8001f34:	68fb      	ldr	r3, [r7, #12]
 8001f36:	1e58      	subs	r0, r3, #1
 8001f38:	687b      	ldr	r3, [r7, #4]
 8001f3a:	6859      	ldr	r1, [r3, #4]
 8001f3c:	460b      	mov	r3, r1
 8001f3e:	005b      	lsls	r3, r3, #1
 8001f40:	440b      	add	r3, r1
 8001f42:	fbb0 f3f3 	udiv	r3, r0, r3
 8001f46:	3301      	adds	r3, #1
 8001f48:	f3c3 030b 	ubfx	r3, r3, #0, #12
 8001f4c:	2b00      	cmp	r3, #0
 8001f4e:	bf0c      	ite	eq
 8001f50:	2301      	moveq	r3, #1
 8001f52:	2300      	movne	r3, #0
 8001f54:	b2db      	uxtb	r3, r3
 8001f56:	e012      	b.n	8001f7e <HAL_I2C_Init+0x18e>
 8001f58:	68fb      	ldr	r3, [r7, #12]
 8001f5a:	1e58      	subs	r0, r3, #1
 8001f5c:	687b      	ldr	r3, [r7, #4]
 8001f5e:	6859      	ldr	r1, [r3, #4]
 8001f60:	460b      	mov	r3, r1
 8001f62:	009b      	lsls	r3, r3, #2
 8001f64:	440b      	add	r3, r1
 8001f66:	0099      	lsls	r1, r3, #2
 8001f68:	440b      	add	r3, r1
 8001f6a:	fbb0 f3f3 	udiv	r3, r0, r3
 8001f6e:	3301      	adds	r3, #1
 8001f70:	f3c3 030b 	ubfx	r3, r3, #0, #12
 8001f74:	2b00      	cmp	r3, #0
 8001f76:	bf0c      	ite	eq
 8001f78:	2301      	moveq	r3, #1
 8001f7a:	2300      	movne	r3, #0
 8001f7c:	b2db      	uxtb	r3, r3
 8001f7e:	2b00      	cmp	r3, #0
 8001f80:	d001      	beq.n	8001f86 <HAL_I2C_Init+0x196>
 8001f82:	2301      	movs	r3, #1
 8001f84:	e022      	b.n	8001fcc <HAL_I2C_Init+0x1dc>
 8001f86:	687b      	ldr	r3, [r7, #4]
 8001f88:	689b      	ldr	r3, [r3, #8]
 8001f8a:	2b00      	cmp	r3, #0
 8001f8c:	d10e      	bne.n	8001fac <HAL_I2C_Init+0x1bc>
 8001f8e:	68fb      	ldr	r3, [r7, #12]
 8001f90:	1e58      	subs	r0, r3, #1
 8001f92:	687b      	ldr	r3, [r7, #4]
 8001f94:	6859      	ldr	r1, [r3, #4]
 8001f96:	460b      	mov	r3, r1
 8001f98:	005b      	lsls	r3, r3, #1
 8001f9a:	440b      	add	r3, r1
 8001f9c:	fbb0 f3f3 	udiv	r3, r0, r3
 8001fa0:	3301      	adds	r3, #1
 8001fa2:	f3c3 030b 	ubfx	r3, r3, #0, #12
 8001fa6:	f443 4300 	orr.w	r3, r3, #32768	; 0x8000
 8001faa:	e00f      	b.n	8001fcc <HAL_I2C_Init+0x1dc>
 8001fac:	68fb      	ldr	r3, [r7, #12]
 8001fae:	1e58      	subs	r0, r3, #1
 8001fb0:	687b      	ldr	r3, [r7, #4]
 8001fb2:	6859      	ldr	r1, [r3, #4]
 8001fb4:	460b      	mov	r3, r1
 8001fb6:	009b      	lsls	r3, r3, #2
 8001fb8:	440b      	add	r3, r1
 8001fba:	0099      	lsls	r1, r3, #2
 8001fbc:	440b      	add	r3, r1
 8001fbe:	fbb0 f3f3 	udiv	r3, r0, r3
 8001fc2:	3301      	adds	r3, #1
 8001fc4:	f3c3 030b 	ubfx	r3, r3, #0, #12
 8001fc8:	f443 4340 	orr.w	r3, r3, #49152	; 0xc000
 8001fcc:	6879      	ldr	r1, [r7, #4]
 8001fce:	6809      	ldr	r1, [r1, #0]
 8001fd0:	4313      	orrs	r3, r2
 8001fd2:	61cb      	str	r3, [r1, #28]
 8001fd4:	687b      	ldr	r3, [r7, #4]
 8001fd6:	681b      	ldr	r3, [r3, #0]
 8001fd8:	681b      	ldr	r3, [r3, #0]
 8001fda:	f023 01c0 	bic.w	r1, r3, #192	; 0xc0
 8001fde:	687b      	ldr	r3, [r7, #4]
 8001fe0:	69da      	ldr	r2, [r3, #28]
 8001fe2:	687b      	ldr	r3, [r7, #4]
 8001fe4:	6a1b      	ldr	r3, [r3, #32]
 8001fe6:	431a      	orrs	r2, r3
 8001fe8:	687b      	ldr	r3, [r7, #4]
 8001fea:	681b      	ldr	r3, [r3, #0]
 8001fec:	430a      	orrs	r2, r1
 8001fee:	601a      	str	r2, [r3, #0]
 8001ff0:	687b      	ldr	r3, [r7, #4]
 8001ff2:	681b      	ldr	r3, [r3, #0]
 8001ff4:	689b      	ldr	r3, [r3, #8]
 8001ff6:	f423 4303 	bic.w	r3, r3, #33536	; 0x8300
 8001ffa:	f023 03ff 	bic.w	r3, r3, #255	; 0xff
 8001ffe:	687a      	ldr	r2, [r7, #4]
 8002000:	6911      	ldr	r1, [r2, #16]
 8002002:	687a      	ldr	r2, [r7, #4]
 8002004:	68d2      	ldr	r2, [r2, #12]
 8002006:	4311      	orrs	r1, r2
 8002008:	687a      	ldr	r2, [r7, #4]
 800200a:	6812      	ldr	r2, [r2, #0]
 800200c:	430b      	orrs	r3, r1
 800200e:	6093      	str	r3, [r2, #8]
 8002010:	687b      	ldr	r3, [r7, #4]
 8002012:	681b      	ldr	r3, [r3, #0]
 8002014:	68db      	ldr	r3, [r3, #12]
 8002016:	f023 01ff 	bic.w	r1, r3, #255	; 0xff
 800201a:	687b      	ldr	r3, [r7, #4]
 800201c:	695a      	ldr	r2, [r3, #20]
 800201e:	687b      	ldr	r3, [r7, #4]
 8002020:	699b      	ldr	r3, [r3, #24]
 8002022:	431a      	orrs	r2, r3
 8002024:	687b      	ldr	r3, [r7, #4]
 8002026:	681b      	ldr	r3, [r3, #0]
 8002028:	430a      	orrs	r2, r1
 800202a:	60da      	str	r2, [r3, #12]
 800202c:	687b      	ldr	r3, [r7, #4]
 800202e:	681b      	ldr	r3, [r3, #0]
 8002030:	681a      	ldr	r2, [r3, #0]
 8002032:	687b      	ldr	r3, [r7, #4]
 8002034:	681b      	ldr	r3, [r3, #0]
 8002036:	f042 0201 	orr.w	r2, r2, #1
 800203a:	601a      	str	r2, [r3, #0]
 800203c:	687b      	ldr	r3, [r7, #4]
 800203e:	2200      	movs	r2, #0
 8002040:	641a      	str	r2, [r3, #64]	; 0x40
 8002042:	687b      	ldr	r3, [r7, #4]
 8002044:	2220      	movs	r2, #32
 8002046:	f883 203d 	strb.w	r2, [r3, #61]	; 0x3d
 800204a:	687b      	ldr	r3, [r7, #4]
 800204c:	2200      	movs	r2, #0
 800204e:	631a      	str	r2, [r3, #48]	; 0x30
 8002050:	687b      	ldr	r3, [r7, #4]
 8002052:	2200      	movs	r2, #0
 8002054:	f883 203e 	strb.w	r2, [r3, #62]	; 0x3e
 8002058:	2300      	movs	r3, #0
 800205a:	4618      	mov	r0, r3
 800205c:	3710      	adds	r7, #16
 800205e:	46bd      	mov	sp, r7
 8002060:	bd80      	pop	{r7, pc}
 8002062:	bf00      	nop
 8002064:	000186a0 	.word	0x000186a0
 8002068:	001e847f 	.word	0x001e847f
 800206c:	003d08ff 	.word	0x003d08ff
 8002070:	431bde83 	.word	0x431bde83
 8002074:	10624dd3 	.word	0x10624dd3

08002078 <HAL_I2C_Master_Transmit>:
 8002078:	b580      	push	{r7, lr}
 800207a:	b088      	sub	sp, #32
 800207c:	af02      	add	r7, sp, #8
 800207e:	60f8      	str	r0, [r7, #12]
 8002080:	607a      	str	r2, [r7, #4]
 8002082:	461a      	mov	r2, r3
 8002084:	460b      	mov	r3, r1
 8002086:	817b      	strh	r3, [r7, #10]
 8002088:	4613      	mov	r3, r2
 800208a:	813b      	strh	r3, [r7, #8]
 800208c:	f7ff fb24 	bl	80016d8 <HAL_GetTick>
 8002090:	6178      	str	r0, [r7, #20]
 8002092:	68fb      	ldr	r3, [r7, #12]
 8002094:	f893 303d 	ldrb.w	r3, [r3, #61]	; 0x3d
 8002098:	b2db      	uxtb	r3, r3
 800209a:	2b20      	cmp	r3, #32
 800209c:	f040 80e0 	bne.w	8002260 <HAL_I2C_Master_Transmit+0x1e8>
 80020a0:	697b      	ldr	r3, [r7, #20]
 80020a2:	9300      	str	r3, [sp, #0]
 80020a4:	2319      	movs	r3, #25
 80020a6:	2201      	movs	r2, #1
 80020a8:	4970      	ldr	r1, [pc, #448]	; (800226c <HAL_I2C_Master_Transmit+0x1f4>)
 80020aa:	68f8      	ldr	r0, [r7, #12]
 80020ac:	f002 fa6c 	bl	8004588 <I2C_WaitOnFlagUntilTimeout>
 80020b0:	4603      	mov	r3, r0
 80020b2:	2b00      	cmp	r3, #0
 80020b4:	d001      	beq.n	80020ba <HAL_I2C_Master_Transmit+0x42>
 80020b6:	2302      	movs	r3, #2
 80020b8:	e0d3      	b.n	8002262 <HAL_I2C_Master_Transmit+0x1ea>
 80020ba:	68fb      	ldr	r3, [r7, #12]
 80020bc:	f893 303c 	ldrb.w	r3, [r3, #60]	; 0x3c
 80020c0:	2b01      	cmp	r3, #1
 80020c2:	d101      	bne.n	80020c8 <HAL_I2C_Master_Transmit+0x50>
 80020c4:	2302      	movs	r3, #2
 80020c6:	e0cc      	b.n	8002262 <HAL_I2C_Master_Transmit+0x1ea>
 80020c8:	68fb      	ldr	r3, [r7, #12]
 80020ca:	2201      	movs	r2, #1
 80020cc:	f883 203c 	strb.w	r2, [r3, #60]	; 0x3c
 80020d0:	68fb      	ldr	r3, [r7, #12]
 80020d2:	681b      	ldr	r3, [r3, #0]
 80020d4:	681b      	ldr	r3, [r3, #0]
 80020d6:	f003 0301 	and.w	r3, r3, #1
 80020da:	2b01      	cmp	r3, #1
 80020dc:	d007      	beq.n	80020ee <HAL_I2C_Master_Transmit+0x76>
 80020de:	68fb      	ldr	r3, [r7, #12]
 80020e0:	681b      	ldr	r3, [r3, #0]
 80020e2:	681a      	ldr	r2, [r3, #0]
 80020e4:	68fb      	ldr	r3, [r7, #12]
 80020e6:	681b      	ldr	r3, [r3, #0]
 80020e8:	f042 0201 	orr.w	r2, r2, #1
 80020ec:	601a      	str	r2, [r3, #0]
 80020ee:	68fb      	ldr	r3, [r7, #12]
 80020f0:	681b      	ldr	r3, [r3, #0]
 80020f2:	681a      	ldr	r2, [r3, #0]
 80020f4:	68fb      	ldr	r3, [r7, #12]
 80020f6:	681b      	ldr	r3, [r3, #0]
 80020f8:	f422 6200 	bic.w	r2, r2, #2048	; 0x800
 80020fc:	601a      	str	r2, [r3, #0]
 80020fe:	68fb      	ldr	r3, [r7, #12]
 8002100:	2221      	movs	r2, #33	; 0x21
 8002102:	f883 203d 	strb.w	r2, [r3, #61]	; 0x3d
 8002106:	68fb      	ldr	r3, [r7, #12]
 8002108:	2210      	movs	r2, #16
 800210a:	f883 203e 	strb.w	r2, [r3, #62]	; 0x3e
 800210e:	68fb      	ldr	r3, [r7, #12]
 8002110:	2200      	movs	r2, #0
 8002112:	641a      	str	r2, [r3, #64]	; 0x40
 8002114:	68fb      	ldr	r3, [r7, #12]
 8002116:	687a      	ldr	r2, [r7, #4]
 8002118:	625a      	str	r2, [r3, #36]	; 0x24
 800211a:	68fb      	ldr	r3, [r7, #12]
 800211c:	893a      	ldrh	r2, [r7, #8]
 800211e:	855a      	strh	r2, [r3, #42]	; 0x2a
 8002120:	68fb      	ldr	r3, [r7, #12]
 8002122:	8d5b      	ldrh	r3, [r3, #42]	; 0x2a
 8002124:	b29a      	uxth	r2, r3
 8002126:	68fb      	ldr	r3, [r7, #12]
 8002128:	851a      	strh	r2, [r3, #40]	; 0x28
 800212a:	68fb      	ldr	r3, [r7, #12]
 800212c:	4a50      	ldr	r2, [pc, #320]	; (8002270 <HAL_I2C_Master_Transmit+0x1f8>)
 800212e:	62da      	str	r2, [r3, #44]	; 0x2c
 8002130:	8979      	ldrh	r1, [r7, #10]
 8002132:	697b      	ldr	r3, [r7, #20]
 8002134:	6a3a      	ldr	r2, [r7, #32]
 8002136:	68f8      	ldr	r0, [r7, #12]
 8002138:	f001 ff98 	bl	800406c <I2C_MasterRequestWrite>
 800213c:	4603      	mov	r3, r0
 800213e:	2b00      	cmp	r3, #0
 8002140:	d001      	beq.n	8002146 <HAL_I2C_Master_Transmit+0xce>
 8002142:	2301      	movs	r3, #1
 8002144:	e08d      	b.n	8002262 <HAL_I2C_Master_Transmit+0x1ea>
 8002146:	2300      	movs	r3, #0
 8002148:	613b      	str	r3, [r7, #16]
 800214a:	68fb      	ldr	r3, [r7, #12]
 800214c:	681b      	ldr	r3, [r3, #0]
 800214e:	695b      	ldr	r3, [r3, #20]
 8002150:	613b      	str	r3, [r7, #16]
 8002152:	68fb      	ldr	r3, [r7, #12]
 8002154:	681b      	ldr	r3, [r3, #0]
 8002156:	699b      	ldr	r3, [r3, #24]
 8002158:	613b      	str	r3, [r7, #16]
 800215a:	693b      	ldr	r3, [r7, #16]
 800215c:	e066      	b.n	800222c <HAL_I2C_Master_Transmit+0x1b4>
 800215e:	697a      	ldr	r2, [r7, #20]
 8002160:	6a39      	ldr	r1, [r7, #32]
 8002162:	68f8      	ldr	r0, [r7, #12]
 8002164:	f002 fae6 	bl	8004734 <I2C_WaitOnTXEFlagUntilTimeout>
 8002168:	4603      	mov	r3, r0
 800216a:	2b00      	cmp	r3, #0
 800216c:	d00d      	beq.n	800218a <HAL_I2C_Master_Transmit+0x112>
 800216e:	68fb      	ldr	r3, [r7, #12]
 8002170:	6c1b      	ldr	r3, [r3, #64]	; 0x40
 8002172:	2b04      	cmp	r3, #4
 8002174:	d107      	bne.n	8002186 <HAL_I2C_Master_Transmit+0x10e>
 8002176:	68fb      	ldr	r3, [r7, #12]
 8002178:	681b      	ldr	r3, [r3, #0]
 800217a:	681a      	ldr	r2, [r3, #0]
 800217c:	68fb      	ldr	r3, [r7, #12]
 800217e:	681b      	ldr	r3, [r3, #0]
 8002180:	f442 7200 	orr.w	r2, r2, #512	; 0x200
 8002184:	601a      	str	r2, [r3, #0]
 8002186:	2301      	movs	r3, #1
 8002188:	e06b      	b.n	8002262 <HAL_I2C_Master_Transmit+0x1ea>
 800218a:	68fb      	ldr	r3, [r7, #12]
 800218c:	6a5b      	ldr	r3, [r3, #36]	; 0x24
 800218e:	781a      	ldrb	r2, [r3, #0]
 8002190:	68fb      	ldr	r3, [r7, #12]
 8002192:	681b      	ldr	r3, [r3, #0]
 8002194:	611a      	str	r2, [r3, #16]
 8002196:	68fb      	ldr	r3, [r7, #12]
 8002198:	6a5b      	ldr	r3, [r3, #36]	; 0x24
 800219a:	1c5a      	adds	r2, r3, #1
 800219c:	68fb      	ldr	r3, [r7, #12]
 800219e:	625a      	str	r2, [r3, #36]	; 0x24
 80021a0:	68fb      	ldr	r3, [r7, #12]
 80021a2:	8d5b      	ldrh	r3, [r3, #42]	; 0x2a
 80021a4:	b29b      	uxth	r3, r3
 80021a6:	3b01      	subs	r3, #1
 80021a8:	b29a      	uxth	r2, r3
 80021aa:	68fb      	ldr	r3, [r7, #12]
 80021ac:	855a      	strh	r2, [r3, #42]	; 0x2a
 80021ae:	68fb      	ldr	r3, [r7, #12]
 80021b0:	8d1b      	ldrh	r3, [r3, #40]	; 0x28
 80021b2:	3b01      	subs	r3, #1
 80021b4:	b29a      	uxth	r2, r3
 80021b6:	68fb      	ldr	r3, [r7, #12]
 80021b8:	851a      	strh	r2, [r3, #40]	; 0x28
 80021ba:	68fb      	ldr	r3, [r7, #12]
 80021bc:	681b      	ldr	r3, [r3, #0]
 80021be:	695b      	ldr	r3, [r3, #20]
 80021c0:	f003 0304 	and.w	r3, r3, #4
 80021c4:	2b04      	cmp	r3, #4
 80021c6:	d11b      	bne.n	8002200 <HAL_I2C_Master_Transmit+0x188>
 80021c8:	68fb      	ldr	r3, [r7, #12]
 80021ca:	8d1b      	ldrh	r3, [r3, #40]	; 0x28
 80021cc:	2b00      	cmp	r3, #0
 80021ce:	d017      	beq.n	8002200 <HAL_I2C_Master_Transmit+0x188>
 80021d0:	68fb      	ldr	r3, [r7, #12]
 80021d2:	6a5b      	ldr	r3, [r3, #36]	; 0x24
 80021d4:	781a      	ldrb	r2, [r3, #0]
 80021d6:	68fb      	ldr	r3, [r7, #12]
 80021d8:	681b      	ldr	r3, [r3, #0]
 80021da:	611a      	str	r2, [r3, #16]
 80021dc:	68fb      	ldr	r3, [r7, #12]
 80021de:	6a5b      	ldr	r3, [r3, #36]	; 0x24
 80021e0:	1c5a      	adds	r2, r3, #1
 80021e2:	68fb      	ldr	r3, [r7, #12]
 80021e4:	625a      	str	r2, [r3, #36]	; 0x24
 80021e6:	68fb      	ldr	r3, [r7, #12]
 80021e8:	8d5b      	ldrh	r3, [r3, #42]	; 0x2a
 80021ea:	b29b      	uxth	r3, r3
 80021ec:	3b01      	subs	r3, #1
 80021ee:	b29a      	uxth	r2, r3
 80021f0:	68fb      	ldr	r3, [r7, #12]
 80021f2:	855a      	strh	r2, [r3, #42]	; 0x2a
 80021f4:	68fb      	ldr	r3, [r7, #12]
 80021f6:	8d1b      	ldrh	r3, [r3, #40]	; 0x28
 80021f8:	3b01      	subs	r3, #1
 80021fa:	b29a      	uxth	r2, r3
 80021fc:	68fb      	ldr	r3, [r7, #12]
 80021fe:	851a      	strh	r2, [r3, #40]	; 0x28
 8002200:	697a      	ldr	r2, [r7, #20]
 8002202:	6a39      	ldr	r1, [r7, #32]
 8002204:	68f8      	ldr	r0, [r7, #12]
 8002206:	f002 fad6 	bl	80047b6 <I2C_WaitOnBTFFlagUntilTimeout>
 800220a:	4603      	mov	r3, r0
 800220c:	2b00      	cmp	r3, #0
 800220e:	d00d      	beq.n	800222c <HAL_I2C_Master_Transmit+0x1b4>
 8002210:	68fb      	ldr	r3, [r7, #12]
 8002212:	6c1b      	ldr	r3, [r3, #64]	; 0x40
 8002214:	2b04      	cmp	r3, #4
 8002216:	d107      	bne.n	8002228 <HAL_I2C_Master_Transmit+0x1b0>
 8002218:	68fb      	ldr	r3, [r7, #12]
 800221a:	681b      	ldr	r3, [r3, #0]
 800221c:	681a      	ldr	r2, [r3, #0]
 800221e:	68fb      	ldr	r3, [r7, #12]
 8002220:	681b      	ldr	r3, [r3, #0]
 8002222:	f442 7200 	orr.w	r2, r2, #512	; 0x200
 8002226:	601a      	str	r2, [r3, #0]
 8002228:	2301      	movs	r3, #1
 800222a:	e01a      	b.n	8002262 <HAL_I2C_Master_Transmit+0x1ea>
 800222c:	68fb      	ldr	r3, [r7, #12]
 800222e:	8d1b      	ldrh	r3, [r3, #40]	; 0x28
 8002230:	2b00      	cmp	r3, #0
 8002232:	d194      	bne.n	800215e <HAL_I2C_Master_Transmit+0xe6>
 8002234:	68fb      	ldr	r3, [r7, #12]
 8002236:	681b      	ldr	r3, [r3, #0]
 8002238:	681a      	ldr	r2, [r3, #0]
 800223a:	68fb      	ldr	r3, [r7, #12]
 800223c:	681b      	ldr	r3, [r3, #0]
 800223e:	f442 7200 	orr.w	r2, r2, #512	; 0x200
 8002242:	601a      	str	r2, [r3, #0]
 8002244:	68fb      	ldr	r3, [r7, #12]
 8002246:	2220      	movs	r2, #32
 8002248:	f883 203d 	strb.w	r2, [r3, #61]	; 0x3d
 800224c:	68fb      	ldr	r3, [r7, #12]
 800224e:	2200      	movs	r2, #0
 8002250:	f883 203e 	strb.w	r2, [r3, #62]	; 0x3e
 8002254:	68fb      	ldr	r3, [r7, #12]
 8002256:	2200      	movs	r2, #0
 8002258:	f883 203c 	strb.w	r2, [r3, #60]	; 0x3c
 800225c:	2300      	movs	r3, #0
 800225e:	e000      	b.n	8002262 <HAL_I2C_Master_Transmit+0x1ea>
 8002260:	2302      	movs	r3, #2
 8002262:	4618      	mov	r0, r3
 8002264:	3718      	adds	r7, #24
 8002266:	46bd      	mov	sp, r7
 8002268:	bd80      	pop	{r7, pc}
 800226a:	bf00      	nop
 800226c:	00100002 	.word	0x00100002
 8002270:	ffff0000 	.word	0xffff0000

08002274 <HAL_I2C_Master_Receive>:
 8002274:	b580      	push	{r7, lr}
 8002276:	b08c      	sub	sp, #48	; 0x30
 8002278:	af02      	add	r7, sp, #8
 800227a:	60f8      	str	r0, [r7, #12]
 800227c:	607a      	str	r2, [r7, #4]
 800227e:	461a      	mov	r2, r3
 8002280:	460b      	mov	r3, r1
 8002282:	817b      	strh	r3, [r7, #10]
 8002284:	4613      	mov	r3, r2
 8002286:	813b      	strh	r3, [r7, #8]
 8002288:	f7ff fa26 	bl	80016d8 <HAL_GetTick>
 800228c:	6278      	str	r0, [r7, #36]	; 0x24
 800228e:	68fb      	ldr	r3, [r7, #12]
 8002290:	f893 303d 	ldrb.w	r3, [r3, #61]	; 0x3d
 8002294:	b2db      	uxtb	r3, r3
 8002296:	2b20      	cmp	r3, #32
 8002298:	f040 820b 	bne.w	80026b2 <HAL_I2C_Master_Receive+0x43e>
 800229c:	6a7b      	ldr	r3, [r7, #36]	; 0x24
 800229e:	9300      	str	r3, [sp, #0]
 80022a0:	2319      	movs	r3, #25
 80022a2:	2201      	movs	r2, #1
 80022a4:	497c      	ldr	r1, [pc, #496]	; (8002498 <HAL_I2C_Master_Receive+0x224>)
 80022a6:	68f8      	ldr	r0, [r7, #12]
 80022a8:	f002 f96e 	bl	8004588 <I2C_WaitOnFlagUntilTimeout>
 80022ac:	4603      	mov	r3, r0
 80022ae:	2b00      	cmp	r3, #0
 80022b0:	d001      	beq.n	80022b6 <HAL_I2C_Master_Receive+0x42>
 80022b2:	2302      	movs	r3, #2
 80022b4:	e1fe      	b.n	80026b4 <HAL_I2C_Master_Receive+0x440>
 80022b6:	68fb      	ldr	r3, [r7, #12]
 80022b8:	f893 303c 	ldrb.w	r3, [r3, #60]	; 0x3c
 80022bc:	2b01      	cmp	r3, #1
 80022be:	d101      	bne.n	80022c4 <HAL_I2C_Master_Receive+0x50>
 80022c0:	2302      	movs	r3, #2
 80022c2:	e1f7      	b.n	80026b4 <HAL_I2C_Master_Receive+0x440>
 80022c4:	68fb      	ldr	r3, [r7, #12]
 80022c6:	2201      	movs	r2, #1
 80022c8:	f883 203c 	strb.w	r2, [r3, #60]	; 0x3c
 80022cc:	68fb      	ldr	r3, [r7, #12]
 80022ce:	681b      	ldr	r3, [r3, #0]
 80022d0:	681b      	ldr	r3, [r3, #0]
 80022d2:	f003 0301 	and.w	r3, r3, #1
 80022d6:	2b01      	cmp	r3, #1
 80022d8:	d007      	beq.n	80022ea <HAL_I2C_Master_Receive+0x76>
 80022da:	68fb      	ldr	r3, [r7, #12]
 80022dc:	681b      	ldr	r3, [r3, #0]
 80022de:	681a      	ldr	r2, [r3, #0]
 80022e0:	68fb      	ldr	r3, [r7, #12]
 80022e2:	681b      	ldr	r3, [r3, #0]
 80022e4:	f042 0201 	orr.w	r2, r2, #1
 80022e8:	601a      	str	r2, [r3, #0]
 80022ea:	68fb      	ldr	r3, [r7, #12]
 80022ec:	681b      	ldr	r3, [r3, #0]
 80022ee:	681a      	ldr	r2, [r3, #0]
 80022f0:	68fb      	ldr	r3, [r7, #12]
 80022f2:	681b      	ldr	r3, [r3, #0]
 80022f4:	f422 6200 	bic.w	r2, r2, #2048	; 0x800
 80022f8:	601a      	str	r2, [r3, #0]
 80022fa:	68fb      	ldr	r3, [r7, #12]
 80022fc:	2222      	movs	r2, #34	; 0x22
 80022fe:	f883 203d 	strb.w	r2, [r3, #61]	; 0x3d
 8002302:	68fb      	ldr	r3, [r7, #12]
 8002304:	2210      	movs	r2, #16
 8002306:	f883 203e 	strb.w	r2, [r3, #62]	; 0x3e
 800230a:	68fb      	ldr	r3, [r7, #12]
 800230c:	2200      	movs	r2, #0
 800230e:	641a      	str	r2, [r3, #64]	; 0x40
 8002310:	68fb      	ldr	r3, [r7, #12]
 8002312:	687a      	ldr	r2, [r7, #4]
 8002314:	625a      	str	r2, [r3, #36]	; 0x24
 8002316:	68fb      	ldr	r3, [r7, #12]
 8002318:	893a      	ldrh	r2, [r7, #8]
 800231a:	855a      	strh	r2, [r3, #42]	; 0x2a
 800231c:	68fb      	ldr	r3, [r7, #12]
 800231e:	8d5b      	ldrh	r3, [r3, #42]	; 0x2a
 8002320:	b29a      	uxth	r2, r3
 8002322:	68fb      	ldr	r3, [r7, #12]
 8002324:	851a      	strh	r2, [r3, #40]	; 0x28
 8002326:	68fb      	ldr	r3, [r7, #12]
 8002328:	4a5c      	ldr	r2, [pc, #368]	; (800249c <HAL_I2C_Master_Receive+0x228>)
 800232a:	62da      	str	r2, [r3, #44]	; 0x2c
 800232c:	8979      	ldrh	r1, [r7, #10]
 800232e:	6a7b      	ldr	r3, [r7, #36]	; 0x24
 8002330:	6b3a      	ldr	r2, [r7, #48]	; 0x30
 8002332:	68f8      	ldr	r0, [r7, #12]
 8002334:	f001 ff1c 	bl	8004170 <I2C_MasterRequestRead>
 8002338:	4603      	mov	r3, r0
 800233a:	2b00      	cmp	r3, #0
 800233c:	d001      	beq.n	8002342 <HAL_I2C_Master_Receive+0xce>
 800233e:	2301      	movs	r3, #1
 8002340:	e1b8      	b.n	80026b4 <HAL_I2C_Master_Receive+0x440>
 8002342:	68fb      	ldr	r3, [r7, #12]
 8002344:	8d1b      	ldrh	r3, [r3, #40]	; 0x28
 8002346:	2b00      	cmp	r3, #0
 8002348:	d113      	bne.n	8002372 <HAL_I2C_Master_Receive+0xfe>
 800234a:	2300      	movs	r3, #0
 800234c:	623b      	str	r3, [r7, #32]
 800234e:	68fb      	ldr	r3, [r7, #12]
 8002350:	681b      	ldr	r3, [r3, #0]
 8002352:	695b      	ldr	r3, [r3, #20]
 8002354:	623b      	str	r3, [r7, #32]
 8002356:	68fb      	ldr	r3, [r7, #12]
 8002358:	681b      	ldr	r3, [r3, #0]
 800235a:	699b      	ldr	r3, [r3, #24]
 800235c:	623b      	str	r3, [r7, #32]
 800235e:	6a3b      	ldr	r3, [r7, #32]
 8002360:	68fb      	ldr	r3, [r7, #12]
 8002362:	681b      	ldr	r3, [r3, #0]
 8002364:	681a      	ldr	r2, [r3, #0]
 8002366:	68fb      	ldr	r3, [r7, #12]
 8002368:	681b      	ldr	r3, [r3, #0]
 800236a:	f442 7200 	orr.w	r2, r2, #512	; 0x200
 800236e:	601a      	str	r2, [r3, #0]
 8002370:	e18c      	b.n	800268c <HAL_I2C_Master_Receive+0x418>
 8002372:	68fb      	ldr	r3, [r7, #12]
 8002374:	8d1b      	ldrh	r3, [r3, #40]	; 0x28
 8002376:	2b01      	cmp	r3, #1
 8002378:	d11b      	bne.n	80023b2 <HAL_I2C_Master_Receive+0x13e>
 800237a:	68fb      	ldr	r3, [r7, #12]
 800237c:	681b      	ldr	r3, [r3, #0]
 800237e:	681a      	ldr	r2, [r3, #0]
 8002380:	68fb      	ldr	r3, [r7, #12]
 8002382:	681b      	ldr	r3, [r3, #0]
 8002384:	f422 6280 	bic.w	r2, r2, #1024	; 0x400
 8002388:	601a      	str	r2, [r3, #0]
 800238a:	2300      	movs	r3, #0
 800238c:	61fb      	str	r3, [r7, #28]
 800238e:	68fb      	ldr	r3, [r7, #12]
 8002390:	681b      	ldr	r3, [r3, #0]
 8002392:	695b      	ldr	r3, [r3, #20]
 8002394:	61fb      	str	r3, [r7, #28]
 8002396:	68fb      	ldr	r3, [r7, #12]
 8002398:	681b      	ldr	r3, [r3, #0]
 800239a:	699b      	ldr	r3, [r3, #24]
 800239c:	61fb      	str	r3, [r7, #28]
 800239e:	69fb      	ldr	r3, [r7, #28]
 80023a0:	68fb      	ldr	r3, [r7, #12]
 80023a2:	681b      	ldr	r3, [r3, #0]
 80023a4:	681a      	ldr	r2, [r3, #0]
 80023a6:	68fb      	ldr	r3, [r7, #12]
 80023a8:	681b      	ldr	r3, [r3, #0]
 80023aa:	f442 7200 	orr.w	r2, r2, #512	; 0x200
 80023ae:	601a      	str	r2, [r3, #0]
 80023b0:	e16c      	b.n	800268c <HAL_I2C_Master_Receive+0x418>
 80023b2:	68fb      	ldr	r3, [r7, #12]
 80023b4:	8d1b      	ldrh	r3, [r3, #40]	; 0x28
 80023b6:	2b02      	cmp	r3, #2
 80023b8:	d11b      	bne.n	80023f2 <HAL_I2C_Master_Receive+0x17e>
 80023ba:	68fb      	ldr	r3, [r7, #12]
 80023bc:	681b      	ldr	r3, [r3, #0]
 80023be:	681a      	ldr	r2, [r3, #0]
 80023c0:	68fb      	ldr	r3, [r7, #12]
 80023c2:	681b      	ldr	r3, [r3, #0]
 80023c4:	f422 6280 	bic.w	r2, r2, #1024	; 0x400
 80023c8:	601a      	str	r2, [r3, #0]
 80023ca:	68fb      	ldr	r3, [r7, #12]
 80023cc:	681b      	ldr	r3, [r3, #0]
 80023ce:	681a      	ldr	r2, [r3, #0]
 80023d0:	68fb      	ldr	r3, [r7, #12]
 80023d2:	681b      	ldr	r3, [r3, #0]
 80023d4:	f442 6200 	orr.w	r2, r2, #2048	; 0x800
 80023d8:	601a      	str	r2, [r3, #0]
 80023da:	2300      	movs	r3, #0
 80023dc:	61bb      	str	r3, [r7, #24]
 80023de:	68fb      	ldr	r3, [r7, #12]
 80023e0:	681b      	ldr	r3, [r3, #0]
 80023e2:	695b      	ldr	r3, [r3, #20]
 80023e4:	61bb      	str	r3, [r7, #24]
 80023e6:	68fb      	ldr	r3, [r7, #12]
 80023e8:	681b      	ldr	r3, [r3, #0]
 80023ea:	699b      	ldr	r3, [r3, #24]
 80023ec:	61bb      	str	r3, [r7, #24]
 80023ee:	69bb      	ldr	r3, [r7, #24]
 80023f0:	e14c      	b.n	800268c <HAL_I2C_Master_Receive+0x418>
 80023f2:	68fb      	ldr	r3, [r7, #12]
 80023f4:	681b      	ldr	r3, [r3, #0]
 80023f6:	681a      	ldr	r2, [r3, #0]
 80023f8:	68fb      	ldr	r3, [r7, #12]
 80023fa:	681b      	ldr	r3, [r3, #0]
 80023fc:	f442 6280 	orr.w	r2, r2, #1024	; 0x400
 8002400:	601a      	str	r2, [r3, #0]
 8002402:	2300      	movs	r3, #0
 8002404:	617b      	str	r3, [r7, #20]
 8002406:	68fb      	ldr	r3, [r7, #12]
 8002408:	681b      	ldr	r3, [r3, #0]
 800240a:	695b      	ldr	r3, [r3, #20]
 800240c:	617b      	str	r3, [r7, #20]
 800240e:	68fb      	ldr	r3, [r7, #12]
 8002410:	681b      	ldr	r3, [r3, #0]
 8002412:	699b      	ldr	r3, [r3, #24]
 8002414:	617b      	str	r3, [r7, #20]
 8002416:	697b      	ldr	r3, [r7, #20]
 8002418:	e138      	b.n	800268c <HAL_I2C_Master_Receive+0x418>
 800241a:	68fb      	ldr	r3, [r7, #12]
 800241c:	8d1b      	ldrh	r3, [r3, #40]	; 0x28
 800241e:	2b03      	cmp	r3, #3
 8002420:	f200 80f1 	bhi.w	8002606 <HAL_I2C_Master_Receive+0x392>
 8002424:	68fb      	ldr	r3, [r7, #12]
 8002426:	8d1b      	ldrh	r3, [r3, #40]	; 0x28
 8002428:	2b01      	cmp	r3, #1
 800242a:	d123      	bne.n	8002474 <HAL_I2C_Master_Receive+0x200>
 800242c:	6a7a      	ldr	r2, [r7, #36]	; 0x24
 800242e:	6b39      	ldr	r1, [r7, #48]	; 0x30
 8002430:	68f8      	ldr	r0, [r7, #12]
 8002432:	f002 fa33 	bl	800489c <I2C_WaitOnRXNEFlagUntilTimeout>
 8002436:	4603      	mov	r3, r0
 8002438:	2b00      	cmp	r3, #0
 800243a:	d001      	beq.n	8002440 <HAL_I2C_Master_Receive+0x1cc>
 800243c:	2301      	movs	r3, #1
 800243e:	e139      	b.n	80026b4 <HAL_I2C_Master_Receive+0x440>
 8002440:	68fb      	ldr	r3, [r7, #12]
 8002442:	681b      	ldr	r3, [r3, #0]
 8002444:	691a      	ldr	r2, [r3, #16]
 8002446:	68fb      	ldr	r3, [r7, #12]
 8002448:	6a5b      	ldr	r3, [r3, #36]	; 0x24
 800244a:	b2d2      	uxtb	r2, r2
 800244c:	701a      	strb	r2, [r3, #0]
 800244e:	68fb      	ldr	r3, [r7, #12]
 8002450:	6a5b      	ldr	r3, [r3, #36]	; 0x24
 8002452:	1c5a      	adds	r2, r3, #1
 8002454:	68fb      	ldr	r3, [r7, #12]
 8002456:	625a      	str	r2, [r3, #36]	; 0x24
 8002458:	68fb      	ldr	r3, [r7, #12]
 800245a:	8d1b      	ldrh	r3, [r3, #40]	; 0x28
 800245c:	3b01      	subs	r3, #1
 800245e:	b29a      	uxth	r2, r3
 8002460:	68fb      	ldr	r3, [r7, #12]
 8002462:	851a      	strh	r2, [r3, #40]	; 0x28
 8002464:	68fb      	ldr	r3, [r7, #12]
 8002466:	8d5b      	ldrh	r3, [r3, #42]	; 0x2a
 8002468:	b29b      	uxth	r3, r3
 800246a:	3b01      	subs	r3, #1
 800246c:	b29a      	uxth	r2, r3
 800246e:	68fb      	ldr	r3, [r7, #12]
 8002470:	855a      	strh	r2, [r3, #42]	; 0x2a
 8002472:	e10b      	b.n	800268c <HAL_I2C_Master_Receive+0x418>
 8002474:	68fb      	ldr	r3, [r7, #12]
 8002476:	8d1b      	ldrh	r3, [r3, #40]	; 0x28
 8002478:	2b02      	cmp	r3, #2
 800247a:	d14e      	bne.n	800251a <HAL_I2C_Master_Receive+0x2a6>
 800247c:	6a7b      	ldr	r3, [r7, #36]	; 0x24
 800247e:	9300      	str	r3, [sp, #0]
 8002480:	6b3b      	ldr	r3, [r7, #48]	; 0x30
 8002482:	2200      	movs	r2, #0
 8002484:	4906      	ldr	r1, [pc, #24]	; (80024a0 <HAL_I2C_Master_Receive+0x22c>)
 8002486:	68f8      	ldr	r0, [r7, #12]
 8002488:	f002 f87e 	bl	8004588 <I2C_WaitOnFlagUntilTimeout>
 800248c:	4603      	mov	r3, r0
 800248e:	2b00      	cmp	r3, #0
 8002490:	d008      	beq.n	80024a4 <HAL_I2C_Master_Receive+0x230>
 8002492:	2301      	movs	r3, #1
 8002494:	e10e      	b.n	80026b4 <HAL_I2C_Master_Receive+0x440>
 8002496:	bf00      	nop
 8002498:	00100002 	.word	0x00100002
 800249c:	ffff0000 	.word	0xffff0000
 80024a0:	00010004 	.word	0x00010004
 80024a4:	68fb      	ldr	r3, [r7, #12]
 80024a6:	681b      	ldr	r3, [r3, #0]
 80024a8:	681a      	ldr	r2, [r3, #0]
 80024aa:	68fb      	ldr	r3, [r7, #12]
 80024ac:	681b      	ldr	r3, [r3, #0]
 80024ae:	f442 7200 	orr.w	r2, r2, #512	; 0x200
 80024b2:	601a      	str	r2, [r3, #0]
 80024b4:	68fb      	ldr	r3, [r7, #12]
 80024b6:	681b      	ldr	r3, [r3, #0]
 80024b8:	691a      	ldr	r2, [r3, #16]
 80024ba:	68fb      	ldr	r3, [r7, #12]
 80024bc:	6a5b      	ldr	r3, [r3, #36]	; 0x24
 80024be:	b2d2      	uxtb	r2, r2
 80024c0:	701a      	strb	r2, [r3, #0]
 80024c2:	68fb      	ldr	r3, [r7, #12]
 80024c4:	6a5b      	ldr	r3, [r3, #36]	; 0x24
 80024c6:	1c5a      	adds	r2, r3, #1
 80024c8:	68fb      	ldr	r3, [r7, #12]
 80024ca:	625a      	str	r2, [r3, #36]	; 0x24
 80024cc:	68fb      	ldr	r3, [r7, #12]
 80024ce:	8d1b      	ldrh	r3, [r3, #40]	; 0x28
 80024d0:	3b01      	subs	r3, #1
 80024d2:	b29a      	uxth	r2, r3
 80024d4:	68fb      	ldr	r3, [r7, #12]
 80024d6:	851a      	strh	r2, [r3, #40]	; 0x28
 80024d8:	68fb      	ldr	r3, [r7, #12]
 80024da:	8d5b      	ldrh	r3, [r3, #42]	; 0x2a
 80024dc:	b29b      	uxth	r3, r3
 80024de:	3b01      	subs	r3, #1
 80024e0:	b29a      	uxth	r2, r3
 80024e2:	68fb      	ldr	r3, [r7, #12]
 80024e4:	855a      	strh	r2, [r3, #42]	; 0x2a
 80024e6:	68fb      	ldr	r3, [r7, #12]
 80024e8:	681b      	ldr	r3, [r3, #0]
 80024ea:	691a      	ldr	r2, [r3, #16]
 80024ec:	68fb      	ldr	r3, [r7, #12]
 80024ee:	6a5b      	ldr	r3, [r3, #36]	; 0x24
 80024f0:	b2d2      	uxtb	r2, r2
 80024f2:	701a      	strb	r2, [r3, #0]
 80024f4:	68fb      	ldr	r3, [r7, #12]
 80024f6:	6a5b      	ldr	r3, [r3, #36]	; 0x24
 80024f8:	1c5a      	adds	r2, r3, #1
 80024fa:	68fb      	ldr	r3, [r7, #12]
 80024fc:	625a      	str	r2, [r3, #36]	; 0x24
 80024fe:	68fb      	ldr	r3, [r7, #12]
 8002500:	8d1b      	ldrh	r3, [r3, #40]	; 0x28
 8002502:	3b01      	subs	r3, #1
 8002504:	b29a      	uxth	r2, r3
 8002506:	68fb      	ldr	r3, [r7, #12]
 8002508:	851a      	strh	r2, [r3, #40]	; 0x28
 800250a:	68fb      	ldr	r3, [r7, #12]
 800250c:	8d5b      	ldrh	r3, [r3, #42]	; 0x2a
 800250e:	b29b      	uxth	r3, r3
 8002510:	3b01      	subs	r3, #1
 8002512:	b29a      	uxth	r2, r3
 8002514:	68fb      	ldr	r3, [r7, #12]
 8002516:	855a      	strh	r2, [r3, #42]	; 0x2a
 8002518:	e0b8      	b.n	800268c <HAL_I2C_Master_Receive+0x418>
 800251a:	6a7b      	ldr	r3, [r7, #36]	; 0x24
 800251c:	9300      	str	r3, [sp, #0]
 800251e:	6b3b      	ldr	r3, [r7, #48]	; 0x30
 8002520:	2200      	movs	r2, #0
 8002522:	4966      	ldr	r1, [pc, #408]	; (80026bc <HAL_I2C_Master_Receive+0x448>)
 8002524:	68f8      	ldr	r0, [r7, #12]
 8002526:	f002 f82f 	bl	8004588 <I2C_WaitOnFlagUntilTimeout>
 800252a:	4603      	mov	r3, r0
 800252c:	2b00      	cmp	r3, #0
 800252e:	d001      	beq.n	8002534 <HAL_I2C_Master_Receive+0x2c0>
 8002530:	2301      	movs	r3, #1
 8002532:	e0bf      	b.n	80026b4 <HAL_I2C_Master_Receive+0x440>
 8002534:	68fb      	ldr	r3, [r7, #12]
 8002536:	681b      	ldr	r3, [r3, #0]
 8002538:	681a      	ldr	r2, [r3, #0]
 800253a:	68fb      	ldr	r3, [r7, #12]
 800253c:	681b      	ldr	r3, [r3, #0]
 800253e:	f422 6280 	bic.w	r2, r2, #1024	; 0x400
 8002542:	601a      	str	r2, [r3, #0]
 8002544:	68fb      	ldr	r3, [r7, #12]
 8002546:	681b      	ldr	r3, [r3, #0]
 8002548:	691a      	ldr	r2, [r3, #16]
 800254a:	68fb      	ldr	r3, [r7, #12]
 800254c:	6a5b      	ldr	r3, [r3, #36]	; 0x24
 800254e:	b2d2      	uxtb	r2, r2
 8002550:	701a      	strb	r2, [r3, #0]
 8002552:	68fb      	ldr	r3, [r7, #12]
 8002554:	6a5b      	ldr	r3, [r3, #36]	; 0x24
 8002556:	1c5a      	adds	r2, r3, #1
 8002558:	68fb      	ldr	r3, [r7, #12]
 800255a:	625a      	str	r2, [r3, #36]	; 0x24
 800255c:	68fb      	ldr	r3, [r7, #12]
 800255e:	8d1b      	ldrh	r3, [r3, #40]	; 0x28
 8002560:	3b01      	subs	r3, #1
 8002562:	b29a      	uxth	r2, r3
 8002564:	68fb      	ldr	r3, [r7, #12]
 8002566:	851a      	strh	r2, [r3, #40]	; 0x28
 8002568:	68fb      	ldr	r3, [r7, #12]
 800256a:	8d5b      	ldrh	r3, [r3, #42]	; 0x2a
 800256c:	b29b      	uxth	r3, r3
 800256e:	3b01      	subs	r3, #1
 8002570:	b29a      	uxth	r2, r3
 8002572:	68fb      	ldr	r3, [r7, #12]
 8002574:	855a      	strh	r2, [r3, #42]	; 0x2a
 8002576:	6a7b      	ldr	r3, [r7, #36]	; 0x24
 8002578:	9300      	str	r3, [sp, #0]
 800257a:	6b3b      	ldr	r3, [r7, #48]	; 0x30
 800257c:	2200      	movs	r2, #0
 800257e:	494f      	ldr	r1, [pc, #316]	; (80026bc <HAL_I2C_Master_Receive+0x448>)
 8002580:	68f8      	ldr	r0, [r7, #12]
 8002582:	f002 f801 	bl	8004588 <I2C_WaitOnFlagUntilTimeout>
 8002586:	4603      	mov	r3, r0
 8002588:	2b00      	cmp	r3, #0
 800258a:	d001      	beq.n	8002590 <HAL_I2C_Master_Receive+0x31c>
 800258c:	2301      	movs	r3, #1
 800258e:	e091      	b.n	80026b4 <HAL_I2C_Master_Receive+0x440>
 8002590:	68fb      	ldr	r3, [r7, #12]
 8002592:	681b      	ldr	r3, [r3, #0]
 8002594:	681a      	ldr	r2, [r3, #0]
 8002596:	68fb      	ldr	r3, [r7, #12]
 8002598:	681b      	ldr	r3, [r3, #0]
 800259a:	f442 7200 	orr.w	r2, r2, #512	; 0x200
 800259e:	601a      	str	r2, [r3, #0]
 80025a0:	68fb      	ldr	r3, [r7, #12]
 80025a2:	681b      	ldr	r3, [r3, #0]
 80025a4:	691a      	ldr	r2, [r3, #16]
 80025a6:	68fb      	ldr	r3, [r7, #12]
 80025a8:	6a5b      	ldr	r3, [r3, #36]	; 0x24
 80025aa:	b2d2      	uxtb	r2, r2
 80025ac:	701a      	strb	r2, [r3, #0]
 80025ae:	68fb      	ldr	r3, [r7, #12]
 80025b0:	6a5b      	ldr	r3, [r3, #36]	; 0x24
 80025b2:	1c5a      	adds	r2, r3, #1
 80025b4:	68fb      	ldr	r3, [r7, #12]
 80025b6:	625a      	str	r2, [r3, #36]	; 0x24
 80025b8:	68fb      	ldr	r3, [r7, #12]
 80025ba:	8d1b      	ldrh	r3, [r3, #40]	; 0x28
 80025bc:	3b01      	subs	r3, #1
 80025be:	b29a      	uxth	r2, r3
 80025c0:	68fb      	ldr	r3, [r7, #12]
 80025c2:	851a      	strh	r2, [r3, #40]	; 0x28
 80025c4:	68fb      	ldr	r3, [r7, #12]
 80025c6:	8d5b      	ldrh	r3, [r3, #42]	; 0x2a
 80025c8:	b29b      	uxth	r3, r3
 80025ca:	3b01      	subs	r3, #1
 80025cc:	b29a      	uxth	r2, r3
 80025ce:	68fb      	ldr	r3, [r7, #12]
 80025d0:	855a      	strh	r2, [r3, #42]	; 0x2a
 80025d2:	68fb      	ldr	r3, [r7, #12]
 80025d4:	681b      	ldr	r3, [r3, #0]
 80025d6:	691a      	ldr	r2, [r3, #16]
 80025d8:	68fb      	ldr	r3, [r7, #12]
 80025da:	6a5b      	ldr	r3, [r3, #36]	; 0x24
 80025dc:	b2d2      	uxtb	r2, r2
 80025de:	701a      	strb	r2, [r3, #0]
 80025e0:	68fb      	ldr	r3, [r7, #12]
 80025e2:	6a5b      	ldr	r3, [r3, #36]	; 0x24
 80025e4:	1c5a      	adds	r2, r3, #1
 80025e6:	68fb      	ldr	r3, [r7, #12]
 80025e8:	625a      	str	r2, [r3, #36]	; 0x24
 80025ea:	68fb      	ldr	r3, [r7, #12]
 80025ec:	8d1b      	ldrh	r3, [r3, #40]	; 0x28
 80025ee:	3b01      	subs	r3, #1
 80025f0:	b29a      	uxth	r2, r3
 80025f2:	68fb      	ldr	r3, [r7, #12]
 80025f4:	851a      	strh	r2, [r3, #40]	; 0x28
 80025f6:	68fb      	ldr	r3, [r7, #12]
 80025f8:	8d5b      	ldrh	r3, [r3, #42]	; 0x2a
 80025fa:	b29b      	uxth	r3, r3
 80025fc:	3b01      	subs	r3, #1
 80025fe:	b29a      	uxth	r2, r3
 8002600:	68fb      	ldr	r3, [r7, #12]
 8002602:	855a      	strh	r2, [r3, #42]	; 0x2a
 8002604:	e042      	b.n	800268c <HAL_I2C_Master_Receive+0x418>
 8002606:	6a7a      	ldr	r2, [r7, #36]	; 0x24
 8002608:	6b39      	ldr	r1, [r7, #48]	; 0x30
 800260a:	68f8      	ldr	r0, [r7, #12]
 800260c:	f002 f946 	bl	800489c <I2C_WaitOnRXNEFlagUntilTimeout>
 8002610:	4603      	mov	r3, r0
 8002612:	2b00      	cmp	r3, #0
 8002614:	d001      	beq.n	800261a <HAL_I2C_Master_Receive+0x3a6>
 8002616:	2301      	movs	r3, #1
 8002618:	e04c      	b.n	80026b4 <HAL_I2C_Master_Receive+0x440>
 800261a:	68fb      	ldr	r3, [r7, #12]
 800261c:	681b      	ldr	r3, [r3, #0]
 800261e:	691a      	ldr	r2, [r3, #16]
 8002620:	68fb      	ldr	r3, [r7, #12]
 8002622:	6a5b      	ldr	r3, [r3, #36]	; 0x24
 8002624:	b2d2      	uxtb	r2, r2
 8002626:	701a      	strb	r2, [r3, #0]
 8002628:	68fb      	ldr	r3, [r7, #12]
 800262a:	6a5b      	ldr	r3, [r3, #36]	; 0x24
 800262c:	1c5a      	adds	r2, r3, #1
 800262e:	68fb      	ldr	r3, [r7, #12]
 8002630:	625a      	str	r2, [r3, #36]	; 0x24
 8002632:	68fb      	ldr	r3, [r7, #12]
 8002634:	8d1b      	ldrh	r3, [r3, #40]	; 0x28
 8002636:	3b01      	subs	r3, #1
 8002638:	b29a      	uxth	r2, r3
 800263a:	68fb      	ldr	r3, [r7, #12]
 800263c:	851a      	strh	r2, [r3, #40]	; 0x28
 800263e:	68fb      	ldr	r3, [r7, #12]
 8002640:	8d5b      	ldrh	r3, [r3, #42]	; 0x2a
 8002642:	b29b      	uxth	r3, r3
 8002644:	3b01      	subs	r3, #1
 8002646:	b29a      	uxth	r2, r3
 8002648:	68fb      	ldr	r3, [r7, #12]
 800264a:	855a      	strh	r2, [r3, #42]	; 0x2a
 800264c:	68fb      	ldr	r3, [r7, #12]
 800264e:	681b      	ldr	r3, [r3, #0]
 8002650:	695b      	ldr	r3, [r3, #20]
 8002652:	f003 0304 	and.w	r3, r3, #4
 8002656:	2b04      	cmp	r3, #4
 8002658:	d118      	bne.n	800268c <HAL_I2C_Master_Receive+0x418>
 800265a:	68fb      	ldr	r3, [r7, #12]
 800265c:	681b      	ldr	r3, [r3, #0]
 800265e:	691a      	ldr	r2, [r3, #16]
 8002660:	68fb      	ldr	r3, [r7, #12]
 8002662:	6a5b      	ldr	r3, [r3, #36]	; 0x24
 8002664:	b2d2      	uxtb	r2, r2
 8002666:	701a      	strb	r2, [r3, #0]
 8002668:	68fb      	ldr	r3, [r7, #12]
 800266a:	6a5b      	ldr	r3, [r3, #36]	; 0x24
 800266c:	1c5a      	adds	r2, r3, #1
 800266e:	68fb      	ldr	r3, [r7, #12]
 8002670:	625a      	str	r2, [r3, #36]	; 0x24
 8002672:	68fb      	ldr	r3, [r7, #12]
 8002674:	8d1b      	ldrh	r3, [r3, #40]	; 0x28
 8002676:	3b01      	subs	r3, #1
 8002678:	b29a      	uxth	r2, r3
 800267a:	68fb      	ldr	r3, [r7, #12]
 800267c:	851a      	strh	r2, [r3, #40]	; 0x28
 800267e:	68fb      	ldr	r3, [r7, #12]
 8002680:	8d5b      	ldrh	r3, [r3, #42]	; 0x2a
 8002682:	b29b      	uxth	r3, r3
 8002684:	3b01      	subs	r3, #1
 8002686:	b29a      	uxth	r2, r3
 8002688:	68fb      	ldr	r3, [r7, #12]
 800268a:	855a      	strh	r2, [r3, #42]	; 0x2a
 800268c:	68fb      	ldr	r3, [r7, #12]
 800268e:	8d1b      	ldrh	r3, [r3, #40]	; 0x28
 8002690:	2b00      	cmp	r3, #0
 8002692:	f47f aec2 	bne.w	800241a <HAL_I2C_Master_Receive+0x1a6>
 8002696:	68fb      	ldr	r3, [r7, #12]
 8002698:	2220      	movs	r2, #32
 800269a:	f883 203d 	strb.w	r2, [r3, #61]	; 0x3d
 800269e:	68fb      	ldr	r3, [r7, #12]
 80026a0:	2200      	movs	r2, #0
 80026a2:	f883 203e 	strb.w	r2, [r3, #62]	; 0x3e
 80026a6:	68fb      	ldr	r3, [r7, #12]
 80026a8:	2200      	movs	r2, #0
 80026aa:	f883 203c 	strb.w	r2, [r3, #60]	; 0x3c
 80026ae:	2300      	movs	r3, #0
 80026b0:	e000      	b.n	80026b4 <HAL_I2C_Master_Receive+0x440>
 80026b2:	2302      	movs	r3, #2
 80026b4:	4618      	mov	r0, r3
 80026b6:	3728      	adds	r7, #40	; 0x28
 80026b8:	46bd      	mov	sp, r7
 80026ba:	bd80      	pop	{r7, pc}
 80026bc:	00010004 	.word	0x00010004

080026c0 <HAL_I2C_Mem_Write>:
 80026c0:	b580      	push	{r7, lr}
 80026c2:	b088      	sub	sp, #32
 80026c4:	af02      	add	r7, sp, #8
 80026c6:	60f8      	str	r0, [r7, #12]
 80026c8:	4608      	mov	r0, r1
 80026ca:	4611      	mov	r1, r2
 80026cc:	461a      	mov	r2, r3
 80026ce:	4603      	mov	r3, r0
 80026d0:	817b      	strh	r3, [r7, #10]
 80026d2:	460b      	mov	r3, r1
 80026d4:	813b      	strh	r3, [r7, #8]
 80026d6:	4613      	mov	r3, r2
 80026d8:	80fb      	strh	r3, [r7, #6]
 80026da:	f7fe fffd 	bl	80016d8 <HAL_GetTick>
 80026de:	6178      	str	r0, [r7, #20]
 80026e0:	68fb      	ldr	r3, [r7, #12]
 80026e2:	f893 303d 	ldrb.w	r3, [r3, #61]	; 0x3d
 80026e6:	b2db      	uxtb	r3, r3
 80026e8:	2b20      	cmp	r3, #32
 80026ea:	f040 80d9 	bne.w	80028a0 <HAL_I2C_Mem_Write+0x1e0>
 80026ee:	697b      	ldr	r3, [r7, #20]
 80026f0:	9300      	str	r3, [sp, #0]
 80026f2:	2319      	movs	r3, #25
 80026f4:	2201      	movs	r2, #1
 80026f6:	496d      	ldr	r1, [pc, #436]	; (80028ac <HAL_I2C_Mem_Write+0x1ec>)
 80026f8:	68f8      	ldr	r0, [r7, #12]
 80026fa:	f001 ff45 	bl	8004588 <I2C_WaitOnFlagUntilTimeout>
 80026fe:	4603      	mov	r3, r0
 8002700:	2b00      	cmp	r3, #0
 8002702:	d001      	beq.n	8002708 <HAL_I2C_Mem_Write+0x48>
 8002704:	2302      	movs	r3, #2
 8002706:	e0cc      	b.n	80028a2 <HAL_I2C_Mem_Write+0x1e2>
 8002708:	68fb      	ldr	r3, [r7, #12]
 800270a:	f893 303c 	ldrb.w	r3, [r3, #60]	; 0x3c
 800270e:	2b01      	cmp	r3, #1
 8002710:	d101      	bne.n	8002716 <HAL_I2C_Mem_Write+0x56>
 8002712:	2302      	movs	r3, #2
 8002714:	e0c5      	b.n	80028a2 <HAL_I2C_Mem_Write+0x1e2>
 8002716:	68fb      	ldr	r3, [r7, #12]
 8002718:	2201      	movs	r2, #1
 800271a:	f883 203c 	strb.w	r2, [r3, #60]	; 0x3c
 800271e:	68fb      	ldr	r3, [r7, #12]
 8002720:	681b      	ldr	r3, [r3, #0]
 8002722:	681b      	ldr	r3, [r3, #0]
 8002724:	f003 0301 	and.w	r3, r3, #1
 8002728:	2b01      	cmp	r3, #1
 800272a:	d007      	beq.n	800273c <HAL_I2C_Mem_Write+0x7c>
 800272c:	68fb      	ldr	r3, [r7, #12]
 800272e:	681b      	ldr	r3, [r3, #0]
 8002730:	681a      	ldr	r2, [r3, #0]
 8002732:	68fb      	ldr	r3, [r7, #12]
 8002734:	681b      	ldr	r3, [r3, #0]
 8002736:	f042 0201 	orr.w	r2, r2, #1
 800273a:	601a      	str	r2, [r3, #0]
 800273c:	68fb      	ldr	r3, [r7, #12]
 800273e:	681b      	ldr	r3, [r3, #0]
 8002740:	681a      	ldr	r2, [r3, #0]
 8002742:	68fb      	ldr	r3, [r7, #12]
 8002744:	681b      	ldr	r3, [r3, #0]
 8002746:	f422 6200 	bic.w	r2, r2, #2048	; 0x800
 800274a:	601a      	str	r2, [r3, #0]
 800274c:	68fb      	ldr	r3, [r7, #12]
 800274e:	2221      	movs	r2, #33	; 0x21
 8002750:	f883 203d 	strb.w	r2, [r3, #61]	; 0x3d
 8002754:	68fb      	ldr	r3, [r7, #12]
 8002756:	2240      	movs	r2, #64	; 0x40
 8002758:	f883 203e 	strb.w	r2, [r3, #62]	; 0x3e
 800275c:	68fb      	ldr	r3, [r7, #12]
 800275e:	2200      	movs	r2, #0
 8002760:	641a      	str	r2, [r3, #64]	; 0x40
 8002762:	68fb      	ldr	r3, [r7, #12]
 8002764:	6a3a      	ldr	r2, [r7, #32]
 8002766:	625a      	str	r2, [r3, #36]	; 0x24
 8002768:	68fb      	ldr	r3, [r7, #12]
 800276a:	8cba      	ldrh	r2, [r7, #36]	; 0x24
 800276c:	855a      	strh	r2, [r3, #42]	; 0x2a
 800276e:	68fb      	ldr	r3, [r7, #12]
 8002770:	8d5b      	ldrh	r3, [r3, #42]	; 0x2a
 8002772:	b29a      	uxth	r2, r3
 8002774:	68fb      	ldr	r3, [r7, #12]
 8002776:	851a      	strh	r2, [r3, #40]	; 0x28
 8002778:	68fb      	ldr	r3, [r7, #12]
 800277a:	4a4d      	ldr	r2, [pc, #308]	; (80028b0 <HAL_I2C_Mem_Write+0x1f0>)
 800277c:	62da      	str	r2, [r3, #44]	; 0x2c
 800277e:	88f8      	ldrh	r0, [r7, #6]
 8002780:	893a      	ldrh	r2, [r7, #8]
 8002782:	8979      	ldrh	r1, [r7, #10]
 8002784:	697b      	ldr	r3, [r7, #20]
 8002786:	9301      	str	r3, [sp, #4]
 8002788:	6abb      	ldr	r3, [r7, #40]	; 0x28
 800278a:	9300      	str	r3, [sp, #0]
 800278c:	4603      	mov	r3, r0
 800278e:	68f8      	ldr	r0, [r7, #12]
 8002790:	f001 fdbc 	bl	800430c <I2C_RequestMemoryWrite>
 8002794:	4603      	mov	r3, r0
 8002796:	2b00      	cmp	r3, #0
 8002798:	d052      	beq.n	8002840 <HAL_I2C_Mem_Write+0x180>
 800279a:	2301      	movs	r3, #1
 800279c:	e081      	b.n	80028a2 <HAL_I2C_Mem_Write+0x1e2>
 800279e:	697a      	ldr	r2, [r7, #20]
 80027a0:	6ab9      	ldr	r1, [r7, #40]	; 0x28
 80027a2:	68f8      	ldr	r0, [r7, #12]
 80027a4:	f001 ffc6 	bl	8004734 <I2C_WaitOnTXEFlagUntilTimeout>
 80027a8:	4603      	mov	r3, r0
 80027aa:	2b00      	cmp	r3, #0
 80027ac:	d00d      	beq.n	80027ca <HAL_I2C_Mem_Write+0x10a>
 80027ae:	68fb      	ldr	r3, [r7, #12]
 80027b0:	6c1b      	ldr	r3, [r3, #64]	; 0x40
 80027b2:	2b04      	cmp	r3, #4
 80027b4:	d107      	bne.n	80027c6 <HAL_I2C_Mem_Write+0x106>
 80027b6:	68fb      	ldr	r3, [r7, #12]
 80027b8:	681b      	ldr	r3, [r3, #0]
 80027ba:	681a      	ldr	r2, [r3, #0]
 80027bc:	68fb      	ldr	r3, [r7, #12]
 80027be:	681b      	ldr	r3, [r3, #0]
 80027c0:	f442 7200 	orr.w	r2, r2, #512	; 0x200
 80027c4:	601a      	str	r2, [r3, #0]
 80027c6:	2301      	movs	r3, #1
 80027c8:	e06b      	b.n	80028a2 <HAL_I2C_Mem_Write+0x1e2>
 80027ca:	68fb      	ldr	r3, [r7, #12]
 80027cc:	6a5b      	ldr	r3, [r3, #36]	; 0x24
 80027ce:	781a      	ldrb	r2, [r3, #0]
 80027d0:	68fb      	ldr	r3, [r7, #12]
 80027d2:	681b      	ldr	r3, [r3, #0]
 80027d4:	611a      	str	r2, [r3, #16]
 80027d6:	68fb      	ldr	r3, [r7, #12]
 80027d8:	6a5b      	ldr	r3, [r3, #36]	; 0x24
 80027da:	1c5a      	adds	r2, r3, #1
 80027dc:	68fb      	ldr	r3, [r7, #12]
 80027de:	625a      	str	r2, [r3, #36]	; 0x24
 80027e0:	68fb      	ldr	r3, [r7, #12]
 80027e2:	8d1b      	ldrh	r3, [r3, #40]	; 0x28
 80027e4:	3b01      	subs	r3, #1
 80027e6:	b29a      	uxth	r2, r3
 80027e8:	68fb      	ldr	r3, [r7, #12]
 80027ea:	851a      	strh	r2, [r3, #40]	; 0x28
 80027ec:	68fb      	ldr	r3, [r7, #12]
 80027ee:	8d5b      	ldrh	r3, [r3, #42]	; 0x2a
 80027f0:	b29b      	uxth	r3, r3
 80027f2:	3b01      	subs	r3, #1
 80027f4:	b29a      	uxth	r2, r3
 80027f6:	68fb      	ldr	r3, [r7, #12]
 80027f8:	855a      	strh	r2, [r3, #42]	; 0x2a
 80027fa:	68fb      	ldr	r3, [r7, #12]
 80027fc:	681b      	ldr	r3, [r3, #0]
 80027fe:	695b      	ldr	r3, [r3, #20]
 8002800:	f003 0304 	and.w	r3, r3, #4
 8002804:	2b04      	cmp	r3, #4
 8002806:	d11b      	bne.n	8002840 <HAL_I2C_Mem_Write+0x180>
 8002808:	68fb      	ldr	r3, [r7, #12]
 800280a:	8d1b      	ldrh	r3, [r3, #40]	; 0x28
 800280c:	2b00      	cmp	r3, #0
 800280e:	d017      	beq.n	8002840 <HAL_I2C_Mem_Write+0x180>
 8002810:	68fb      	ldr	r3, [r7, #12]
 8002812:	6a5b      	ldr	r3, [r3, #36]	; 0x24
 8002814:	781a      	ldrb	r2, [r3, #0]
 8002816:	68fb      	ldr	r3, [r7, #12]
 8002818:	681b      	ldr	r3, [r3, #0]
 800281a:	611a      	str	r2, [r3, #16]
 800281c:	68fb      	ldr	r3, [r7, #12]
 800281e:	6a5b      	ldr	r3, [r3, #36]	; 0x24
 8002820:	1c5a      	adds	r2, r3, #1
 8002822:	68fb      	ldr	r3, [r7, #12]
 8002824:	625a      	str	r2, [r3, #36]	; 0x24
 8002826:	68fb      	ldr	r3, [r7, #12]
 8002828:	8d1b      	ldrh	r3, [r3, #40]	; 0x28
 800282a:	3b01      	subs	r3, #1
 800282c:	b29a      	uxth	r2, r3
 800282e:	68fb      	ldr	r3, [r7, #12]
 8002830:	851a      	strh	r2, [r3, #40]	; 0x28
 8002832:	68fb      	ldr	r3, [r7, #12]
 8002834:	8d5b      	ldrh	r3, [r3, #42]	; 0x2a
 8002836:	b29b      	uxth	r3, r3
 8002838:	3b01      	subs	r3, #1
 800283a:	b29a      	uxth	r2, r3
 800283c:	68fb      	ldr	r3, [r7, #12]
 800283e:	855a      	strh	r2, [r3, #42]	; 0x2a
 8002840:	68fb      	ldr	r3, [r7, #12]
 8002842:	8d1b      	ldrh	r3, [r3, #40]	; 0x28
 8002844:	2b00      	cmp	r3, #0
 8002846:	d1aa      	bne.n	800279e <HAL_I2C_Mem_Write+0xde>
 8002848:	697a      	ldr	r2, [r7, #20]
 800284a:	6ab9      	ldr	r1, [r7, #40]	; 0x28
 800284c:	68f8      	ldr	r0, [r7, #12]
 800284e:	f001 ffb2 	bl	80047b6 <I2C_WaitOnBTFFlagUntilTimeout>
 8002852:	4603      	mov	r3, r0
 8002854:	2b00      	cmp	r3, #0
 8002856:	d00d      	beq.n	8002874 <HAL_I2C_Mem_Write+0x1b4>
 8002858:	68fb      	ldr	r3, [r7, #12]
 800285a:	6c1b      	ldr	r3, [r3, #64]	; 0x40
 800285c:	2b04      	cmp	r3, #4
 800285e:	d107      	bne.n	8002870 <HAL_I2C_Mem_Write+0x1b0>
 8002860:	68fb      	ldr	r3, [r7, #12]
 8002862:	681b      	ldr	r3, [r3, #0]
 8002864:	681a      	ldr	r2, [r3, #0]
 8002866:	68fb      	ldr	r3, [r7, #12]
 8002868:	681b      	ldr	r3, [r3, #0]
 800286a:	f442 7200 	orr.w	r2, r2, #512	; 0x200
 800286e:	601a      	str	r2, [r3, #0]
 8002870:	2301      	movs	r3, #1
 8002872:	e016      	b.n	80028a2 <HAL_I2C_Mem_Write+0x1e2>
 8002874:	68fb      	ldr	r3, [r7, #12]
 8002876:	681b      	ldr	r3, [r3, #0]
 8002878:	681a      	ldr	r2, [r3, #0]
 800287a:	68fb      	ldr	r3, [r7, #12]
 800287c:	681b      	ldr	r3, [r3, #0]
 800287e:	f442 7200 	orr.w	r2, r2, #512	; 0x200
 8002882:	601a      	str	r2, [r3, #0]
 8002884:	68fb      	ldr	r3, [r7, #12]
 8002886:	2220      	movs	r2, #32
 8002888:	f883 203d 	strb.w	r2, [r3, #61]	; 0x3d
 800288c:	68fb      	ldr	r3, [r7, #12]
 800288e:	2200      	movs	r2, #0
 8002890:	f883 203e 	strb.w	r2, [r3, #62]	; 0x3e
 8002894:	68fb      	ldr	r3, [r7, #12]
 8002896:	2200      	movs	r2, #0
 8002898:	f883 203c 	strb.w	r2, [r3, #60]	; 0x3c
 800289c:	2300      	movs	r3, #0
 800289e:	e000      	b.n	80028a2 <HAL_I2C_Mem_Write+0x1e2>
 80028a0:	2302      	movs	r3, #2
 80028a2:	4618      	mov	r0, r3
 80028a4:	3718      	adds	r7, #24
 80028a6:	46bd      	mov	sp, r7
 80028a8:	bd80      	pop	{r7, pc}
 80028aa:	bf00      	nop
 80028ac:	00100002 	.word	0x00100002
 80028b0:	ffff0000 	.word	0xffff0000

080028b4 <HAL_I2C_EV_IRQHandler>:
 80028b4:	b580      	push	{r7, lr}
 80028b6:	b088      	sub	sp, #32
 80028b8:	af00      	add	r7, sp, #0
 80028ba:	6078      	str	r0, [r7, #4]
 80028bc:	2300      	movs	r3, #0
 80028be:	61bb      	str	r3, [r7, #24]
 80028c0:	687b      	ldr	r3, [r7, #4]
 80028c2:	681b      	ldr	r3, [r3, #0]
 80028c4:	685b      	ldr	r3, [r3, #4]
 80028c6:	617b      	str	r3, [r7, #20]
 80028c8:	687b      	ldr	r3, [r7, #4]
 80028ca:	6adb      	ldr	r3, [r3, #44]	; 0x2c
 80028cc:	613b      	str	r3, [r7, #16]
 80028ce:	687b      	ldr	r3, [r7, #4]
 80028d0:	f893 303e 	ldrb.w	r3, [r3, #62]	; 0x3e
 80028d4:	73fb      	strb	r3, [r7, #15]
 80028d6:	687b      	ldr	r3, [r7, #4]
 80028d8:	f893 303d 	ldrb.w	r3, [r3, #61]	; 0x3d
 80028dc:	73bb      	strb	r3, [r7, #14]
 80028de:	7bfb      	ldrb	r3, [r7, #15]
 80028e0:	2b10      	cmp	r3, #16
 80028e2:	d003      	beq.n	80028ec <HAL_I2C_EV_IRQHandler+0x38>
 80028e4:	7bfb      	ldrb	r3, [r7, #15]
 80028e6:	2b40      	cmp	r3, #64	; 0x40
 80028e8:	f040 80c1 	bne.w	8002a6e <HAL_I2C_EV_IRQHandler+0x1ba>
 80028ec:	687b      	ldr	r3, [r7, #4]
 80028ee:	681b      	ldr	r3, [r3, #0]
 80028f0:	699b      	ldr	r3, [r3, #24]
 80028f2:	61bb      	str	r3, [r7, #24]
 80028f4:	687b      	ldr	r3, [r7, #4]
 80028f6:	681b      	ldr	r3, [r3, #0]
 80028f8:	695b      	ldr	r3, [r3, #20]
 80028fa:	61fb      	str	r3, [r7, #28]
 80028fc:	69fb      	ldr	r3, [r7, #28]
 80028fe:	f003 0301 	and.w	r3, r3, #1
 8002902:	2b00      	cmp	r3, #0
 8002904:	d10d      	bne.n	8002922 <HAL_I2C_EV_IRQHandler+0x6e>
 8002906:	693b      	ldr	r3, [r7, #16]
 8002908:	f5b3 0f2a 	cmp.w	r3, #11141120	; 0xaa0000
 800290c:	d003      	beq.n	8002916 <HAL_I2C_EV_IRQHandler+0x62>
 800290e:	693b      	ldr	r3, [r7, #16]
 8002910:	f1b3 4f2a 	cmp.w	r3, #2852126720	; 0xaa000000
 8002914:	d101      	bne.n	800291a <HAL_I2C_EV_IRQHandler+0x66>
 8002916:	2301      	movs	r3, #1
 8002918:	e000      	b.n	800291c <HAL_I2C_EV_IRQHandler+0x68>
 800291a:	2300      	movs	r3, #0
 800291c:	2b01      	cmp	r3, #1
 800291e:	f000 8132 	beq.w	8002b86 <HAL_I2C_EV_IRQHandler+0x2d2>
 8002922:	69fb      	ldr	r3, [r7, #28]
 8002924:	f003 0301 	and.w	r3, r3, #1
 8002928:	2b00      	cmp	r3, #0
 800292a:	d00c      	beq.n	8002946 <HAL_I2C_EV_IRQHandler+0x92>
 800292c:	697b      	ldr	r3, [r7, #20]
 800292e:	0a5b      	lsrs	r3, r3, #9
 8002930:	f003 0301 	and.w	r3, r3, #1
 8002934:	2b00      	cmp	r3, #0
 8002936:	d006      	beq.n	8002946 <HAL_I2C_EV_IRQHandler+0x92>
 8002938:	6878      	ldr	r0, [r7, #4]
 800293a:	f002 f834 	bl	80049a6 <I2C_ConvertOtherXferOptions>
 800293e:	6878      	ldr	r0, [r7, #4]
 8002940:	f000 fd79 	bl	8003436 <I2C_Master_SB>
 8002944:	e092      	b.n	8002a6c <HAL_I2C_EV_IRQHandler+0x1b8>
 8002946:	69fb      	ldr	r3, [r7, #28]
 8002948:	08db      	lsrs	r3, r3, #3
 800294a:	f003 0301 	and.w	r3, r3, #1
 800294e:	2b00      	cmp	r3, #0
 8002950:	d009      	beq.n	8002966 <HAL_I2C_EV_IRQHandler+0xb2>
 8002952:	697b      	ldr	r3, [r7, #20]
 8002954:	0a5b      	lsrs	r3, r3, #9
 8002956:	f003 0301 	and.w	r3, r3, #1
 800295a:	2b00      	cmp	r3, #0
 800295c:	d003      	beq.n	8002966 <HAL_I2C_EV_IRQHandler+0xb2>
 800295e:	6878      	ldr	r0, [r7, #4]
 8002960:	f000 fdef 	bl	8003542 <I2C_Master_ADD10>
 8002964:	e082      	b.n	8002a6c <HAL_I2C_EV_IRQHandler+0x1b8>
 8002966:	69fb      	ldr	r3, [r7, #28]
 8002968:	085b      	lsrs	r3, r3, #1
 800296a:	f003 0301 	and.w	r3, r3, #1
 800296e:	2b00      	cmp	r3, #0
 8002970:	d009      	beq.n	8002986 <HAL_I2C_EV_IRQHandler+0xd2>
 8002972:	697b      	ldr	r3, [r7, #20]
 8002974:	0a5b      	lsrs	r3, r3, #9
 8002976:	f003 0301 	and.w	r3, r3, #1
 800297a:	2b00      	cmp	r3, #0
 800297c:	d003      	beq.n	8002986 <HAL_I2C_EV_IRQHandler+0xd2>
 800297e:	6878      	ldr	r0, [r7, #4]
 8002980:	f000 fe09 	bl	8003596 <I2C_Master_ADDR>
 8002984:	e072      	b.n	8002a6c <HAL_I2C_EV_IRQHandler+0x1b8>
 8002986:	69bb      	ldr	r3, [r7, #24]
 8002988:	089b      	lsrs	r3, r3, #2
 800298a:	f003 0301 	and.w	r3, r3, #1
 800298e:	2b00      	cmp	r3, #0
 8002990:	d03b      	beq.n	8002a0a <HAL_I2C_EV_IRQHandler+0x156>
 8002992:	687b      	ldr	r3, [r7, #4]
 8002994:	681b      	ldr	r3, [r3, #0]
 8002996:	685b      	ldr	r3, [r3, #4]
 8002998:	f403 6300 	and.w	r3, r3, #2048	; 0x800
 800299c:	f5b3 6f00 	cmp.w	r3, #2048	; 0x800
 80029a0:	f000 80f3 	beq.w	8002b8a <HAL_I2C_EV_IRQHandler+0x2d6>
 80029a4:	69fb      	ldr	r3, [r7, #28]
 80029a6:	09db      	lsrs	r3, r3, #7
 80029a8:	f003 0301 	and.w	r3, r3, #1
 80029ac:	2b00      	cmp	r3, #0
 80029ae:	d00f      	beq.n	80029d0 <HAL_I2C_EV_IRQHandler+0x11c>
 80029b0:	697b      	ldr	r3, [r7, #20]
 80029b2:	0a9b      	lsrs	r3, r3, #10
 80029b4:	f003 0301 	and.w	r3, r3, #1
 80029b8:	2b00      	cmp	r3, #0
 80029ba:	d009      	beq.n	80029d0 <HAL_I2C_EV_IRQHandler+0x11c>
 80029bc:	69fb      	ldr	r3, [r7, #28]
 80029be:	089b      	lsrs	r3, r3, #2
 80029c0:	f003 0301 	and.w	r3, r3, #1
 80029c4:	2b00      	cmp	r3, #0
 80029c6:	d103      	bne.n	80029d0 <HAL_I2C_EV_IRQHandler+0x11c>
 80029c8:	6878      	ldr	r0, [r7, #4]
 80029ca:	f000 f9f3 	bl	8002db4 <I2C_MasterTransmit_TXE>
 80029ce:	e04d      	b.n	8002a6c <HAL_I2C_EV_IRQHandler+0x1b8>
 80029d0:	69fb      	ldr	r3, [r7, #28]
 80029d2:	089b      	lsrs	r3, r3, #2
 80029d4:	f003 0301 	and.w	r3, r3, #1
 80029d8:	2b00      	cmp	r3, #0
 80029da:	f000 80d6 	beq.w	8002b8a <HAL_I2C_EV_IRQHandler+0x2d6>
 80029de:	697b      	ldr	r3, [r7, #20]
 80029e0:	0a5b      	lsrs	r3, r3, #9
 80029e2:	f003 0301 	and.w	r3, r3, #1
 80029e6:	2b00      	cmp	r3, #0
 80029e8:	f000 80cf 	beq.w	8002b8a <HAL_I2C_EV_IRQHandler+0x2d6>
 80029ec:	7bbb      	ldrb	r3, [r7, #14]
 80029ee:	2b21      	cmp	r3, #33	; 0x21
 80029f0:	d103      	bne.n	80029fa <HAL_I2C_EV_IRQHandler+0x146>
 80029f2:	6878      	ldr	r0, [r7, #4]
 80029f4:	f000 fa7a 	bl	8002eec <I2C_MasterTransmit_BTF>
 80029f8:	e0c7      	b.n	8002b8a <HAL_I2C_EV_IRQHandler+0x2d6>
 80029fa:	7bfb      	ldrb	r3, [r7, #15]
 80029fc:	2b40      	cmp	r3, #64	; 0x40
 80029fe:	f040 80c4 	bne.w	8002b8a <HAL_I2C_EV_IRQHandler+0x2d6>
 8002a02:	6878      	ldr	r0, [r7, #4]
 8002a04:	f000 fae8 	bl	8002fd8 <I2C_MemoryTransmit_TXE_BTF>
 8002a08:	e0bf      	b.n	8002b8a <HAL_I2C_EV_IRQHandler+0x2d6>
 8002a0a:	687b      	ldr	r3, [r7, #4]
 8002a0c:	681b      	ldr	r3, [r3, #0]
 8002a0e:	685b      	ldr	r3, [r3, #4]
 8002a10:	f403 6300 	and.w	r3, r3, #2048	; 0x800
 8002a14:	f5b3 6f00 	cmp.w	r3, #2048	; 0x800
 8002a18:	f000 80b7 	beq.w	8002b8a <HAL_I2C_EV_IRQHandler+0x2d6>
 8002a1c:	69fb      	ldr	r3, [r7, #28]
 8002a1e:	099b      	lsrs	r3, r3, #6
 8002a20:	f003 0301 	and.w	r3, r3, #1
 8002a24:	2b00      	cmp	r3, #0
 8002a26:	d00f      	beq.n	8002a48 <HAL_I2C_EV_IRQHandler+0x194>
 8002a28:	697b      	ldr	r3, [r7, #20]
 8002a2a:	0a9b      	lsrs	r3, r3, #10
 8002a2c:	f003 0301 	and.w	r3, r3, #1
 8002a30:	2b00      	cmp	r3, #0
 8002a32:	d009      	beq.n	8002a48 <HAL_I2C_EV_IRQHandler+0x194>
 8002a34:	69fb      	ldr	r3, [r7, #28]
 8002a36:	089b      	lsrs	r3, r3, #2
 8002a38:	f003 0301 	and.w	r3, r3, #1
 8002a3c:	2b00      	cmp	r3, #0
 8002a3e:	d103      	bne.n	8002a48 <HAL_I2C_EV_IRQHandler+0x194>
 8002a40:	6878      	ldr	r0, [r7, #4]
 8002a42:	f000 fb5d 	bl	8003100 <I2C_MasterReceive_RXNE>
 8002a46:	e011      	b.n	8002a6c <HAL_I2C_EV_IRQHandler+0x1b8>
 8002a48:	69fb      	ldr	r3, [r7, #28]
 8002a4a:	089b      	lsrs	r3, r3, #2
 8002a4c:	f003 0301 	and.w	r3, r3, #1
 8002a50:	2b00      	cmp	r3, #0
 8002a52:	f000 809a 	beq.w	8002b8a <HAL_I2C_EV_IRQHandler+0x2d6>
 8002a56:	697b      	ldr	r3, [r7, #20]
 8002a58:	0a5b      	lsrs	r3, r3, #9
 8002a5a:	f003 0301 	and.w	r3, r3, #1
 8002a5e:	2b00      	cmp	r3, #0
 8002a60:	f000 8093 	beq.w	8002b8a <HAL_I2C_EV_IRQHandler+0x2d6>
 8002a64:	6878      	ldr	r0, [r7, #4]
 8002a66:	f000 fbfc 	bl	8003262 <I2C_MasterReceive_BTF>
 8002a6a:	e08e      	b.n	8002b8a <HAL_I2C_EV_IRQHandler+0x2d6>
 8002a6c:	e08d      	b.n	8002b8a <HAL_I2C_EV_IRQHandler+0x2d6>
 8002a6e:	687b      	ldr	r3, [r7, #4]
 8002a70:	6c1b      	ldr	r3, [r3, #64]	; 0x40
 8002a72:	2b00      	cmp	r3, #0
 8002a74:	d004      	beq.n	8002a80 <HAL_I2C_EV_IRQHandler+0x1cc>
 8002a76:	687b      	ldr	r3, [r7, #4]
 8002a78:	681b      	ldr	r3, [r3, #0]
 8002a7a:	695b      	ldr	r3, [r3, #20]
 8002a7c:	61fb      	str	r3, [r7, #28]
 8002a7e:	e007      	b.n	8002a90 <HAL_I2C_EV_IRQHandler+0x1dc>
 8002a80:	687b      	ldr	r3, [r7, #4]
 8002a82:	681b      	ldr	r3, [r3, #0]
 8002a84:	699b      	ldr	r3, [r3, #24]
 8002a86:	61bb      	str	r3, [r7, #24]
 8002a88:	687b      	ldr	r3, [r7, #4]
 8002a8a:	681b      	ldr	r3, [r3, #0]
 8002a8c:	695b      	ldr	r3, [r3, #20]
 8002a8e:	61fb      	str	r3, [r7, #28]
 8002a90:	69fb      	ldr	r3, [r7, #28]
 8002a92:	085b      	lsrs	r3, r3, #1
 8002a94:	f003 0301 	and.w	r3, r3, #1
 8002a98:	2b00      	cmp	r3, #0
 8002a9a:	d012      	beq.n	8002ac2 <HAL_I2C_EV_IRQHandler+0x20e>
 8002a9c:	697b      	ldr	r3, [r7, #20]
 8002a9e:	0a5b      	lsrs	r3, r3, #9
 8002aa0:	f003 0301 	and.w	r3, r3, #1
 8002aa4:	2b00      	cmp	r3, #0
 8002aa6:	d00c      	beq.n	8002ac2 <HAL_I2C_EV_IRQHandler+0x20e>
 8002aa8:	687b      	ldr	r3, [r7, #4]
 8002aaa:	6c1b      	ldr	r3, [r3, #64]	; 0x40
 8002aac:	2b00      	cmp	r3, #0
 8002aae:	d003      	beq.n	8002ab8 <HAL_I2C_EV_IRQHandler+0x204>
 8002ab0:	687b      	ldr	r3, [r7, #4]
 8002ab2:	681b      	ldr	r3, [r3, #0]
 8002ab4:	699b      	ldr	r3, [r3, #24]
 8002ab6:	61bb      	str	r3, [r7, #24]
 8002ab8:	69b9      	ldr	r1, [r7, #24]
 8002aba:	6878      	ldr	r0, [r7, #4]
 8002abc:	f000 ffba 	bl	8003a34 <I2C_Slave_ADDR>
 8002ac0:	e066      	b.n	8002b90 <HAL_I2C_EV_IRQHandler+0x2dc>
 8002ac2:	69fb      	ldr	r3, [r7, #28]
 8002ac4:	091b      	lsrs	r3, r3, #4
 8002ac6:	f003 0301 	and.w	r3, r3, #1
 8002aca:	2b00      	cmp	r3, #0
 8002acc:	d009      	beq.n	8002ae2 <HAL_I2C_EV_IRQHandler+0x22e>
 8002ace:	697b      	ldr	r3, [r7, #20]
 8002ad0:	0a5b      	lsrs	r3, r3, #9
 8002ad2:	f003 0301 	and.w	r3, r3, #1
 8002ad6:	2b00      	cmp	r3, #0
 8002ad8:	d003      	beq.n	8002ae2 <HAL_I2C_EV_IRQHandler+0x22e>
 8002ada:	6878      	ldr	r0, [r7, #4]
 8002adc:	f000 fff4 	bl	8003ac8 <I2C_Slave_STOPF>
 8002ae0:	e056      	b.n	8002b90 <HAL_I2C_EV_IRQHandler+0x2dc>
 8002ae2:	7bbb      	ldrb	r3, [r7, #14]
 8002ae4:	2b21      	cmp	r3, #33	; 0x21
 8002ae6:	d002      	beq.n	8002aee <HAL_I2C_EV_IRQHandler+0x23a>
 8002ae8:	7bbb      	ldrb	r3, [r7, #14]
 8002aea:	2b29      	cmp	r3, #41	; 0x29
 8002aec:	d125      	bne.n	8002b3a <HAL_I2C_EV_IRQHandler+0x286>
 8002aee:	69fb      	ldr	r3, [r7, #28]
 8002af0:	09db      	lsrs	r3, r3, #7
 8002af2:	f003 0301 	and.w	r3, r3, #1
 8002af6:	2b00      	cmp	r3, #0
 8002af8:	d00f      	beq.n	8002b1a <HAL_I2C_EV_IRQHandler+0x266>
 8002afa:	697b      	ldr	r3, [r7, #20]
 8002afc:	0a9b      	lsrs	r3, r3, #10
 8002afe:	f003 0301 	and.w	r3, r3, #1
 8002b02:	2b00      	cmp	r3, #0
 8002b04:	d009      	beq.n	8002b1a <HAL_I2C_EV_IRQHandler+0x266>
 8002b06:	69fb      	ldr	r3, [r7, #28]
 8002b08:	089b      	lsrs	r3, r3, #2
 8002b0a:	f003 0301 	and.w	r3, r3, #1
 8002b0e:	2b00      	cmp	r3, #0
 8002b10:	d103      	bne.n	8002b1a <HAL_I2C_EV_IRQHandler+0x266>
 8002b12:	6878      	ldr	r0, [r7, #4]
 8002b14:	f000 fed0 	bl	80038b8 <I2C_SlaveTransmit_TXE>
 8002b18:	e039      	b.n	8002b8e <HAL_I2C_EV_IRQHandler+0x2da>
 8002b1a:	69fb      	ldr	r3, [r7, #28]
 8002b1c:	089b      	lsrs	r3, r3, #2
 8002b1e:	f003 0301 	and.w	r3, r3, #1
 8002b22:	2b00      	cmp	r3, #0
 8002b24:	d033      	beq.n	8002b8e <HAL_I2C_EV_IRQHandler+0x2da>
 8002b26:	697b      	ldr	r3, [r7, #20]
 8002b28:	0a5b      	lsrs	r3, r3, #9
 8002b2a:	f003 0301 	and.w	r3, r3, #1
 8002b2e:	2b00      	cmp	r3, #0
 8002b30:	d02d      	beq.n	8002b8e <HAL_I2C_EV_IRQHandler+0x2da>
 8002b32:	6878      	ldr	r0, [r7, #4]
 8002b34:	f000 fefd 	bl	8003932 <I2C_SlaveTransmit_BTF>
 8002b38:	e029      	b.n	8002b8e <HAL_I2C_EV_IRQHandler+0x2da>
 8002b3a:	69fb      	ldr	r3, [r7, #28]
 8002b3c:	099b      	lsrs	r3, r3, #6
 8002b3e:	f003 0301 	and.w	r3, r3, #1
 8002b42:	2b00      	cmp	r3, #0
 8002b44:	d00f      	beq.n	8002b66 <HAL_I2C_EV_IRQHandler+0x2b2>
 8002b46:	697b      	ldr	r3, [r7, #20]
 8002b48:	0a9b      	lsrs	r3, r3, #10
 8002b4a:	f003 0301 	and.w	r3, r3, #1
 8002b4e:	2b00      	cmp	r3, #0
 8002b50:	d009      	beq.n	8002b66 <HAL_I2C_EV_IRQHandler+0x2b2>
 8002b52:	69fb      	ldr	r3, [r7, #28]
 8002b54:	089b      	lsrs	r3, r3, #2
 8002b56:	f003 0301 	and.w	r3, r3, #1
 8002b5a:	2b00      	cmp	r3, #0
 8002b5c:	d103      	bne.n	8002b66 <HAL_I2C_EV_IRQHandler+0x2b2>
 8002b5e:	6878      	ldr	r0, [r7, #4]
 8002b60:	f000 ff08 	bl	8003974 <I2C_SlaveReceive_RXNE>
 8002b64:	e014      	b.n	8002b90 <HAL_I2C_EV_IRQHandler+0x2dc>
 8002b66:	69fb      	ldr	r3, [r7, #28]
 8002b68:	089b      	lsrs	r3, r3, #2
 8002b6a:	f003 0301 	and.w	r3, r3, #1
 8002b6e:	2b00      	cmp	r3, #0
 8002b70:	d00e      	beq.n	8002b90 <HAL_I2C_EV_IRQHandler+0x2dc>
 8002b72:	697b      	ldr	r3, [r7, #20]
 8002b74:	0a5b      	lsrs	r3, r3, #9
 8002b76:	f003 0301 	and.w	r3, r3, #1
 8002b7a:	2b00      	cmp	r3, #0
 8002b7c:	d008      	beq.n	8002b90 <HAL_I2C_EV_IRQHandler+0x2dc>
 8002b7e:	6878      	ldr	r0, [r7, #4]
 8002b80:	f000 ff36 	bl	80039f0 <I2C_SlaveReceive_BTF>
 8002b84:	e004      	b.n	8002b90 <HAL_I2C_EV_IRQHandler+0x2dc>
 8002b86:	bf00      	nop
 8002b88:	e002      	b.n	8002b90 <HAL_I2C_EV_IRQHandler+0x2dc>
 8002b8a:	bf00      	nop
 8002b8c:	e000      	b.n	8002b90 <HAL_I2C_EV_IRQHandler+0x2dc>
 8002b8e:	bf00      	nop
 8002b90:	3720      	adds	r7, #32
 8002b92:	46bd      	mov	sp, r7
 8002b94:	bd80      	pop	{r7, pc}

08002b96 <HAL_I2C_ER_IRQHandler>:
 8002b96:	b580      	push	{r7, lr}
 8002b98:	b08a      	sub	sp, #40	; 0x28
 8002b9a:	af00      	add	r7, sp, #0
 8002b9c:	6078      	str	r0, [r7, #4]
 8002b9e:	687b      	ldr	r3, [r7, #4]
 8002ba0:	681b      	ldr	r3, [r3, #0]
 8002ba2:	695b      	ldr	r3, [r3, #20]
 8002ba4:	623b      	str	r3, [r7, #32]
 8002ba6:	687b      	ldr	r3, [r7, #4]
 8002ba8:	681b      	ldr	r3, [r3, #0]
 8002baa:	685b      	ldr	r3, [r3, #4]
 8002bac:	61fb      	str	r3, [r7, #28]
 8002bae:	2300      	movs	r3, #0
 8002bb0:	627b      	str	r3, [r7, #36]	; 0x24
 8002bb2:	687b      	ldr	r3, [r7, #4]
 8002bb4:	f893 303e 	ldrb.w	r3, [r3, #62]	; 0x3e
 8002bb8:	76fb      	strb	r3, [r7, #27]
 8002bba:	6a3b      	ldr	r3, [r7, #32]
 8002bbc:	0a1b      	lsrs	r3, r3, #8
 8002bbe:	f003 0301 	and.w	r3, r3, #1
 8002bc2:	2b00      	cmp	r3, #0
 8002bc4:	d00e      	beq.n	8002be4 <HAL_I2C_ER_IRQHandler+0x4e>
 8002bc6:	69fb      	ldr	r3, [r7, #28]
 8002bc8:	0a1b      	lsrs	r3, r3, #8
 8002bca:	f003 0301 	and.w	r3, r3, #1
 8002bce:	2b00      	cmp	r3, #0
 8002bd0:	d008      	beq.n	8002be4 <HAL_I2C_ER_IRQHandler+0x4e>
 8002bd2:	6a7b      	ldr	r3, [r7, #36]	; 0x24
 8002bd4:	f043 0301 	orr.w	r3, r3, #1
 8002bd8:	627b      	str	r3, [r7, #36]	; 0x24
 8002bda:	687b      	ldr	r3, [r7, #4]
 8002bdc:	681b      	ldr	r3, [r3, #0]
 8002bde:	f46f 7280 	mvn.w	r2, #256	; 0x100
 8002be2:	615a      	str	r2, [r3, #20]
 8002be4:	6a3b      	ldr	r3, [r7, #32]
 8002be6:	0a5b      	lsrs	r3, r3, #9
 8002be8:	f003 0301 	and.w	r3, r3, #1
 8002bec:	2b00      	cmp	r3, #0
 8002bee:	d00e      	beq.n	8002c0e <HAL_I2C_ER_IRQHandler+0x78>
 8002bf0:	69fb      	ldr	r3, [r7, #28]
 8002bf2:	0a1b      	lsrs	r3, r3, #8
 8002bf4:	f003 0301 	and.w	r3, r3, #1
 8002bf8:	2b00      	cmp	r3, #0
 8002bfa:	d008      	beq.n	8002c0e <HAL_I2C_ER_IRQHandler+0x78>
 8002bfc:	6a7b      	ldr	r3, [r7, #36]	; 0x24
 8002bfe:	f043 0302 	orr.w	r3, r3, #2
 8002c02:	627b      	str	r3, [r7, #36]	; 0x24
 8002c04:	687b      	ldr	r3, [r7, #4]
 8002c06:	681b      	ldr	r3, [r3, #0]
 8002c08:	f46f 7200 	mvn.w	r2, #512	; 0x200
 8002c0c:	615a      	str	r2, [r3, #20]
 8002c0e:	6a3b      	ldr	r3, [r7, #32]
 8002c10:	0a9b      	lsrs	r3, r3, #10
 8002c12:	f003 0301 	and.w	r3, r3, #1
 8002c16:	2b00      	cmp	r3, #0
 8002c18:	d03f      	beq.n	8002c9a <HAL_I2C_ER_IRQHandler+0x104>
 8002c1a:	69fb      	ldr	r3, [r7, #28]
 8002c1c:	0a1b      	lsrs	r3, r3, #8
 8002c1e:	f003 0301 	and.w	r3, r3, #1
 8002c22:	2b00      	cmp	r3, #0
 8002c24:	d039      	beq.n	8002c9a <HAL_I2C_ER_IRQHandler+0x104>
 8002c26:	7efb      	ldrb	r3, [r7, #27]
 8002c28:	76bb      	strb	r3, [r7, #26]
 8002c2a:	687b      	ldr	r3, [r7, #4]
 8002c2c:	8d5b      	ldrh	r3, [r3, #42]	; 0x2a
 8002c2e:	b29b      	uxth	r3, r3
 8002c30:	617b      	str	r3, [r7, #20]
 8002c32:	687b      	ldr	r3, [r7, #4]
 8002c34:	f893 303d 	ldrb.w	r3, [r3, #61]	; 0x3d
 8002c38:	74fb      	strb	r3, [r7, #19]
 8002c3a:	687b      	ldr	r3, [r7, #4]
 8002c3c:	6b1b      	ldr	r3, [r3, #48]	; 0x30
 8002c3e:	60fb      	str	r3, [r7, #12]
 8002c40:	7ebb      	ldrb	r3, [r7, #26]
 8002c42:	2b20      	cmp	r3, #32
 8002c44:	d112      	bne.n	8002c6c <HAL_I2C_ER_IRQHandler+0xd6>
 8002c46:	697b      	ldr	r3, [r7, #20]
 8002c48:	2b00      	cmp	r3, #0
 8002c4a:	d10f      	bne.n	8002c6c <HAL_I2C_ER_IRQHandler+0xd6>
 8002c4c:	7cfb      	ldrb	r3, [r7, #19]
 8002c4e:	2b21      	cmp	r3, #33	; 0x21
 8002c50:	d008      	beq.n	8002c64 <HAL_I2C_ER_IRQHandler+0xce>
 8002c52:	7cfb      	ldrb	r3, [r7, #19]
 8002c54:	2b29      	cmp	r3, #41	; 0x29
 8002c56:	d005      	beq.n	8002c64 <HAL_I2C_ER_IRQHandler+0xce>
 8002c58:	7cfb      	ldrb	r3, [r7, #19]
 8002c5a:	2b28      	cmp	r3, #40	; 0x28
 8002c5c:	d106      	bne.n	8002c6c <HAL_I2C_ER_IRQHandler+0xd6>
 8002c5e:	68fb      	ldr	r3, [r7, #12]
 8002c60:	2b21      	cmp	r3, #33	; 0x21
 8002c62:	d103      	bne.n	8002c6c <HAL_I2C_ER_IRQHandler+0xd6>
 8002c64:	6878      	ldr	r0, [r7, #4]
 8002c66:	f001 f85f 	bl	8003d28 <I2C_Slave_AF>
 8002c6a:	e016      	b.n	8002c9a <HAL_I2C_ER_IRQHandler+0x104>
 8002c6c:	687b      	ldr	r3, [r7, #4]
 8002c6e:	681b      	ldr	r3, [r3, #0]
 8002c70:	f46f 6280 	mvn.w	r2, #1024	; 0x400
 8002c74:	615a      	str	r2, [r3, #20]
 8002c76:	6a7b      	ldr	r3, [r7, #36]	; 0x24
 8002c78:	f043 0304 	orr.w	r3, r3, #4
 8002c7c:	627b      	str	r3, [r7, #36]	; 0x24
 8002c7e:	7efb      	ldrb	r3, [r7, #27]
 8002c80:	2b10      	cmp	r3, #16
 8002c82:	d002      	beq.n	8002c8a <HAL_I2C_ER_IRQHandler+0xf4>
 8002c84:	7efb      	ldrb	r3, [r7, #27]
 8002c86:	2b40      	cmp	r3, #64	; 0x40
 8002c88:	d107      	bne.n	8002c9a <HAL_I2C_ER_IRQHandler+0x104>
 8002c8a:	687b      	ldr	r3, [r7, #4]
 8002c8c:	681b      	ldr	r3, [r3, #0]
 8002c8e:	681a      	ldr	r2, [r3, #0]
 8002c90:	687b      	ldr	r3, [r7, #4]
 8002c92:	681b      	ldr	r3, [r3, #0]
 8002c94:	f442 7200 	orr.w	r2, r2, #512	; 0x200
 8002c98:	601a      	str	r2, [r3, #0]
 8002c9a:	6a3b      	ldr	r3, [r7, #32]
 8002c9c:	0adb      	lsrs	r3, r3, #11
 8002c9e:	f003 0301 	and.w	r3, r3, #1
 8002ca2:	2b00      	cmp	r3, #0
 8002ca4:	d00e      	beq.n	8002cc4 <HAL_I2C_ER_IRQHandler+0x12e>
 8002ca6:	69fb      	ldr	r3, [r7, #28]
 8002ca8:	0a1b      	lsrs	r3, r3, #8
 8002caa:	f003 0301 	and.w	r3, r3, #1
 8002cae:	2b00      	cmp	r3, #0
 8002cb0:	d008      	beq.n	8002cc4 <HAL_I2C_ER_IRQHandler+0x12e>
 8002cb2:	6a7b      	ldr	r3, [r7, #36]	; 0x24
 8002cb4:	f043 0308 	orr.w	r3, r3, #8
 8002cb8:	627b      	str	r3, [r7, #36]	; 0x24
 8002cba:	687b      	ldr	r3, [r7, #4]
 8002cbc:	681b      	ldr	r3, [r3, #0]
 8002cbe:	f46f 6200 	mvn.w	r2, #2048	; 0x800
 8002cc2:	615a      	str	r2, [r3, #20]
 8002cc4:	6a7b      	ldr	r3, [r7, #36]	; 0x24
 8002cc6:	2b00      	cmp	r3, #0
 8002cc8:	d008      	beq.n	8002cdc <HAL_I2C_ER_IRQHandler+0x146>
 8002cca:	687b      	ldr	r3, [r7, #4]
 8002ccc:	6c1a      	ldr	r2, [r3, #64]	; 0x40
 8002cce:	6a7b      	ldr	r3, [r7, #36]	; 0x24
 8002cd0:	431a      	orrs	r2, r3
 8002cd2:	687b      	ldr	r3, [r7, #4]
 8002cd4:	641a      	str	r2, [r3, #64]	; 0x40
 8002cd6:	6878      	ldr	r0, [r7, #4]
 8002cd8:	f001 f896 	bl	8003e08 <I2C_ITError>
 8002cdc:	bf00      	nop
 8002cde:	3728      	adds	r7, #40	; 0x28
 8002ce0:	46bd      	mov	sp, r7
 8002ce2:	bd80      	pop	{r7, pc}

08002ce4 <HAL_I2C_MasterTxCpltCallback>:
 8002ce4:	b480      	push	{r7}
 8002ce6:	b083      	sub	sp, #12
 8002ce8:	af00      	add	r7, sp, #0
 8002cea:	6078      	str	r0, [r7, #4]
 8002cec:	bf00      	nop
 8002cee:	370c      	adds	r7, #12
 8002cf0:	46bd      	mov	sp, r7
 8002cf2:	f85d 7b04 	ldr.w	r7, [sp], #4
 8002cf6:	4770      	bx	lr

08002cf8 <HAL_I2C_MasterRxCpltCallback>:
 8002cf8:	b480      	push	{r7}
 8002cfa:	b083      	sub	sp, #12
 8002cfc:	af00      	add	r7, sp, #0
 8002cfe:	6078      	str	r0, [r7, #4]
 8002d00:	bf00      	nop
 8002d02:	370c      	adds	r7, #12
 8002d04:	46bd      	mov	sp, r7
 8002d06:	f85d 7b04 	ldr.w	r7, [sp], #4
 8002d0a:	4770      	bx	lr

08002d0c <HAL_I2C_SlaveTxCpltCallback>:
 8002d0c:	b480      	push	{r7}
 8002d0e:	b083      	sub	sp, #12
 8002d10:	af00      	add	r7, sp, #0
 8002d12:	6078      	str	r0, [r7, #4]
 8002d14:	bf00      	nop
 8002d16:	370c      	adds	r7, #12
 8002d18:	46bd      	mov	sp, r7
 8002d1a:	f85d 7b04 	ldr.w	r7, [sp], #4
 8002d1e:	4770      	bx	lr

08002d20 <HAL_I2C_SlaveRxCpltCallback>:
 8002d20:	b480      	push	{r7}
 8002d22:	b083      	sub	sp, #12
 8002d24:	af00      	add	r7, sp, #0
 8002d26:	6078      	str	r0, [r7, #4]
 8002d28:	bf00      	nop
 8002d2a:	370c      	adds	r7, #12
 8002d2c:	46bd      	mov	sp, r7
 8002d2e:	f85d 7b04 	ldr.w	r7, [sp], #4
 8002d32:	4770      	bx	lr

08002d34 <HAL_I2C_AddrCallback>:
 8002d34:	b480      	push	{r7}
 8002d36:	b083      	sub	sp, #12
 8002d38:	af00      	add	r7, sp, #0
 8002d3a:	6078      	str	r0, [r7, #4]
 8002d3c:	460b      	mov	r3, r1
 8002d3e:	70fb      	strb	r3, [r7, #3]
 8002d40:	4613      	mov	r3, r2
 8002d42:	803b      	strh	r3, [r7, #0]
 8002d44:	bf00      	nop
 8002d46:	370c      	adds	r7, #12
 8002d48:	46bd      	mov	sp, r7
 8002d4a:	f85d 7b04 	ldr.w	r7, [sp], #4
 8002d4e:	4770      	bx	lr

08002d50 <HAL_I2C_ListenCpltCallback>:
 8002d50:	b480      	push	{r7}
 8002d52:	b083      	sub	sp, #12
 8002d54:	af00      	add	r7, sp, #0
 8002d56:	6078      	str	r0, [r7, #4]
 8002d58:	bf00      	nop
 8002d5a:	370c      	adds	r7, #12
 8002d5c:	46bd      	mov	sp, r7
 8002d5e:	f85d 7b04 	ldr.w	r7, [sp], #4
 8002d62:	4770      	bx	lr

08002d64 <HAL_I2C_MemTxCpltCallback>:
 8002d64:	b480      	push	{r7}
 8002d66:	b083      	sub	sp, #12
 8002d68:	af00      	add	r7, sp, #0
 8002d6a:	6078      	str	r0, [r7, #4]
 8002d6c:	bf00      	nop
 8002d6e:	370c      	adds	r7, #12
 8002d70:	46bd      	mov	sp, r7
 8002d72:	f85d 7b04 	ldr.w	r7, [sp], #4
 8002d76:	4770      	bx	lr

08002d78 <HAL_I2C_MemRxCpltCallback>:
 8002d78:	b480      	push	{r7}
 8002d7a:	b083      	sub	sp, #12
 8002d7c:	af00      	add	r7, sp, #0
 8002d7e:	6078      	str	r0, [r7, #4]
 8002d80:	bf00      	nop
 8002d82:	370c      	adds	r7, #12
 8002d84:	46bd      	mov	sp, r7
 8002d86:	f85d 7b04 	ldr.w	r7, [sp], #4
 8002d8a:	4770      	bx	lr

08002d8c <HAL_I2C_ErrorCallback>:
 8002d8c:	b480      	push	{r7}
 8002d8e:	b083      	sub	sp, #12
 8002d90:	af00      	add	r7, sp, #0
 8002d92:	6078      	str	r0, [r7, #4]
 8002d94:	bf00      	nop
 8002d96:	370c      	adds	r7, #12
 8002d98:	46bd      	mov	sp, r7
 8002d9a:	f85d 7b04 	ldr.w	r7, [sp], #4
 8002d9e:	4770      	bx	lr

08002da0 <HAL_I2C_AbortCpltCallback>:
 8002da0:	b480      	push	{r7}
 8002da2:	b083      	sub	sp, #12
 8002da4:	af00      	add	r7, sp, #0
 8002da6:	6078      	str	r0, [r7, #4]
 8002da8:	bf00      	nop
 8002daa:	370c      	adds	r7, #12
 8002dac:	46bd      	mov	sp, r7
 8002dae:	f85d 7b04 	ldr.w	r7, [sp], #4
 8002db2:	4770      	bx	lr

08002db4 <I2C_MasterTransmit_TXE>:
 8002db4:	b580      	push	{r7, lr}
 8002db6:	b084      	sub	sp, #16
 8002db8:	af00      	add	r7, sp, #0
 8002dba:	6078      	str	r0, [r7, #4]
 8002dbc:	687b      	ldr	r3, [r7, #4]
 8002dbe:	f893 303d 	ldrb.w	r3, [r3, #61]	; 0x3d
 8002dc2:	73fb      	strb	r3, [r7, #15]
 8002dc4:	687b      	ldr	r3, [r7, #4]
 8002dc6:	f893 303e 	ldrb.w	r3, [r3, #62]	; 0x3e
 8002dca:	73bb      	strb	r3, [r7, #14]
 8002dcc:	687b      	ldr	r3, [r7, #4]
 8002dce:	6adb      	ldr	r3, [r3, #44]	; 0x2c
 8002dd0:	60bb      	str	r3, [r7, #8]
 8002dd2:	687b      	ldr	r3, [r7, #4]
 8002dd4:	8d1b      	ldrh	r3, [r3, #40]	; 0x28
 8002dd6:	2b00      	cmp	r3, #0
 8002dd8:	d150      	bne.n	8002e7c <I2C_MasterTransmit_TXE+0xc8>
 8002dda:	7bfb      	ldrb	r3, [r7, #15]
 8002ddc:	2b21      	cmp	r3, #33	; 0x21
 8002dde:	d14d      	bne.n	8002e7c <I2C_MasterTransmit_TXE+0xc8>
 8002de0:	68bb      	ldr	r3, [r7, #8]
 8002de2:	2b08      	cmp	r3, #8
 8002de4:	d01d      	beq.n	8002e22 <I2C_MasterTransmit_TXE+0x6e>
 8002de6:	68bb      	ldr	r3, [r7, #8]
 8002de8:	2b20      	cmp	r3, #32
 8002dea:	d01a      	beq.n	8002e22 <I2C_MasterTransmit_TXE+0x6e>
 8002dec:	68bb      	ldr	r3, [r7, #8]
 8002dee:	f513 3f80 	cmn.w	r3, #65536	; 0x10000
 8002df2:	d016      	beq.n	8002e22 <I2C_MasterTransmit_TXE+0x6e>
 8002df4:	687b      	ldr	r3, [r7, #4]
 8002df6:	681b      	ldr	r3, [r3, #0]
 8002df8:	685a      	ldr	r2, [r3, #4]
 8002dfa:	687b      	ldr	r3, [r7, #4]
 8002dfc:	681b      	ldr	r3, [r3, #0]
 8002dfe:	f422 62e0 	bic.w	r2, r2, #1792	; 0x700
 8002e02:	605a      	str	r2, [r3, #4]
 8002e04:	687b      	ldr	r3, [r7, #4]
 8002e06:	2211      	movs	r2, #17
 8002e08:	631a      	str	r2, [r3, #48]	; 0x30
 8002e0a:	687b      	ldr	r3, [r7, #4]
 8002e0c:	2200      	movs	r2, #0
 8002e0e:	f883 203e 	strb.w	r2, [r3, #62]	; 0x3e
 8002e12:	687b      	ldr	r3, [r7, #4]
 8002e14:	2220      	movs	r2, #32
 8002e16:	f883 203d 	strb.w	r2, [r3, #61]	; 0x3d
 8002e1a:	6878      	ldr	r0, [r7, #4]
 8002e1c:	f7ff ff62 	bl	8002ce4 <HAL_I2C_MasterTxCpltCallback>
 8002e20:	e060      	b.n	8002ee4 <I2C_MasterTransmit_TXE+0x130>
 8002e22:	687b      	ldr	r3, [r7, #4]
 8002e24:	681b      	ldr	r3, [r3, #0]
 8002e26:	685a      	ldr	r2, [r3, #4]
 8002e28:	687b      	ldr	r3, [r7, #4]
 8002e2a:	681b      	ldr	r3, [r3, #0]
 8002e2c:	f422 62e0 	bic.w	r2, r2, #1792	; 0x700
 8002e30:	605a      	str	r2, [r3, #4]
 8002e32:	687b      	ldr	r3, [r7, #4]
 8002e34:	681b      	ldr	r3, [r3, #0]
 8002e36:	681a      	ldr	r2, [r3, #0]
 8002e38:	687b      	ldr	r3, [r7, #4]
 8002e3a:	681b      	ldr	r3, [r3, #0]
 8002e3c:	f442 7200 	orr.w	r2, r2, #512	; 0x200
 8002e40:	601a      	str	r2, [r3, #0]
 8002e42:	687b      	ldr	r3, [r7, #4]
 8002e44:	2200      	movs	r2, #0
 8002e46:	631a      	str	r2, [r3, #48]	; 0x30
 8002e48:	687b      	ldr	r3, [r7, #4]
 8002e4a:	2220      	movs	r2, #32
 8002e4c:	f883 203d 	strb.w	r2, [r3, #61]	; 0x3d
 8002e50:	687b      	ldr	r3, [r7, #4]
 8002e52:	f893 303e 	ldrb.w	r3, [r3, #62]	; 0x3e
 8002e56:	b2db      	uxtb	r3, r3
 8002e58:	2b40      	cmp	r3, #64	; 0x40
 8002e5a:	d107      	bne.n	8002e6c <I2C_MasterTransmit_TXE+0xb8>
 8002e5c:	687b      	ldr	r3, [r7, #4]
 8002e5e:	2200      	movs	r2, #0
 8002e60:	f883 203e 	strb.w	r2, [r3, #62]	; 0x3e
 8002e64:	6878      	ldr	r0, [r7, #4]
 8002e66:	f7ff ff7d 	bl	8002d64 <HAL_I2C_MemTxCpltCallback>
 8002e6a:	e03b      	b.n	8002ee4 <I2C_MasterTransmit_TXE+0x130>
 8002e6c:	687b      	ldr	r3, [r7, #4]
 8002e6e:	2200      	movs	r2, #0
 8002e70:	f883 203e 	strb.w	r2, [r3, #62]	; 0x3e
 8002e74:	6878      	ldr	r0, [r7, #4]
 8002e76:	f7ff ff35 	bl	8002ce4 <HAL_I2C_MasterTxCpltCallback>
 8002e7a:	e033      	b.n	8002ee4 <I2C_MasterTransmit_TXE+0x130>
 8002e7c:	7bfb      	ldrb	r3, [r7, #15]
 8002e7e:	2b21      	cmp	r3, #33	; 0x21
 8002e80:	d005      	beq.n	8002e8e <I2C_MasterTransmit_TXE+0xda>
 8002e82:	7bbb      	ldrb	r3, [r7, #14]
 8002e84:	2b40      	cmp	r3, #64	; 0x40
 8002e86:	d12d      	bne.n	8002ee4 <I2C_MasterTransmit_TXE+0x130>
 8002e88:	7bfb      	ldrb	r3, [r7, #15]
 8002e8a:	2b22      	cmp	r3, #34	; 0x22
 8002e8c:	d12a      	bne.n	8002ee4 <I2C_MasterTransmit_TXE+0x130>
 8002e8e:	687b      	ldr	r3, [r7, #4]
 8002e90:	8d5b      	ldrh	r3, [r3, #42]	; 0x2a
 8002e92:	b29b      	uxth	r3, r3
 8002e94:	2b00      	cmp	r3, #0
 8002e96:	d108      	bne.n	8002eaa <I2C_MasterTransmit_TXE+0xf6>
 8002e98:	687b      	ldr	r3, [r7, #4]
 8002e9a:	681b      	ldr	r3, [r3, #0]
 8002e9c:	685a      	ldr	r2, [r3, #4]
 8002e9e:	687b      	ldr	r3, [r7, #4]
 8002ea0:	681b      	ldr	r3, [r3, #0]
 8002ea2:	f422 6280 	bic.w	r2, r2, #1024	; 0x400
 8002ea6:	605a      	str	r2, [r3, #4]
 8002ea8:	e01c      	b.n	8002ee4 <I2C_MasterTransmit_TXE+0x130>
 8002eaa:	687b      	ldr	r3, [r7, #4]
 8002eac:	f893 303e 	ldrb.w	r3, [r3, #62]	; 0x3e
 8002eb0:	b2db      	uxtb	r3, r3
 8002eb2:	2b40      	cmp	r3, #64	; 0x40
 8002eb4:	d103      	bne.n	8002ebe <I2C_MasterTransmit_TXE+0x10a>
 8002eb6:	6878      	ldr	r0, [r7, #4]
 8002eb8:	f000 f88e 	bl	8002fd8 <I2C_MemoryTransmit_TXE_BTF>
 8002ebc:	e012      	b.n	8002ee4 <I2C_MasterTransmit_TXE+0x130>
 8002ebe:	687b      	ldr	r3, [r7, #4]
 8002ec0:	6a5b      	ldr	r3, [r3, #36]	; 0x24
 8002ec2:	781a      	ldrb	r2, [r3, #0]
 8002ec4:	687b      	ldr	r3, [r7, #4]
 8002ec6:	681b      	ldr	r3, [r3, #0]
 8002ec8:	611a      	str	r2, [r3, #16]
 8002eca:	687b      	ldr	r3, [r7, #4]
 8002ecc:	6a5b      	ldr	r3, [r3, #36]	; 0x24
 8002ece:	1c5a      	adds	r2, r3, #1
 8002ed0:	687b      	ldr	r3, [r7, #4]
 8002ed2:	625a      	str	r2, [r3, #36]	; 0x24
 8002ed4:	687b      	ldr	r3, [r7, #4]
 8002ed6:	8d5b      	ldrh	r3, [r3, #42]	; 0x2a
 8002ed8:	b29b      	uxth	r3, r3
 8002eda:	3b01      	subs	r3, #1
 8002edc:	b29a      	uxth	r2, r3
 8002ede:	687b      	ldr	r3, [r7, #4]
 8002ee0:	855a      	strh	r2, [r3, #42]	; 0x2a
 8002ee2:	e7ff      	b.n	8002ee4 <I2C_MasterTransmit_TXE+0x130>
 8002ee4:	bf00      	nop
 8002ee6:	3710      	adds	r7, #16
 8002ee8:	46bd      	mov	sp, r7
 8002eea:	bd80      	pop	{r7, pc}

08002eec <I2C_MasterTransmit_BTF>:
 8002eec:	b580      	push	{r7, lr}
 8002eee:	b084      	sub	sp, #16
 8002ef0:	af00      	add	r7, sp, #0
 8002ef2:	6078      	str	r0, [r7, #4]
 8002ef4:	687b      	ldr	r3, [r7, #4]
 8002ef6:	6adb      	ldr	r3, [r3, #44]	; 0x2c
 8002ef8:	60fb      	str	r3, [r7, #12]
 8002efa:	687b      	ldr	r3, [r7, #4]
 8002efc:	f893 303d 	ldrb.w	r3, [r3, #61]	; 0x3d
 8002f00:	b2db      	uxtb	r3, r3
 8002f02:	2b21      	cmp	r3, #33	; 0x21
 8002f04:	d164      	bne.n	8002fd0 <I2C_MasterTransmit_BTF+0xe4>
 8002f06:	687b      	ldr	r3, [r7, #4]
 8002f08:	8d5b      	ldrh	r3, [r3, #42]	; 0x2a
 8002f0a:	b29b      	uxth	r3, r3
 8002f0c:	2b00      	cmp	r3, #0
 8002f0e:	d012      	beq.n	8002f36 <I2C_MasterTransmit_BTF+0x4a>
 8002f10:	687b      	ldr	r3, [r7, #4]
 8002f12:	6a5b      	ldr	r3, [r3, #36]	; 0x24
 8002f14:	781a      	ldrb	r2, [r3, #0]
 8002f16:	687b      	ldr	r3, [r7, #4]
 8002f18:	681b      	ldr	r3, [r3, #0]
 8002f1a:	611a      	str	r2, [r3, #16]
 8002f1c:	687b      	ldr	r3, [r7, #4]
 8002f1e:	6a5b      	ldr	r3, [r3, #36]	; 0x24
 8002f20:	1c5a      	adds	r2, r3, #1
 8002f22:	687b      	ldr	r3, [r7, #4]
 8002f24:	625a      	str	r2, [r3, #36]	; 0x24
 8002f26:	687b      	ldr	r3, [r7, #4]
 8002f28:	8d5b      	ldrh	r3, [r3, #42]	; 0x2a
 8002f2a:	b29b      	uxth	r3, r3
 8002f2c:	3b01      	subs	r3, #1
 8002f2e:	b29a      	uxth	r2, r3
 8002f30:	687b      	ldr	r3, [r7, #4]
 8002f32:	855a      	strh	r2, [r3, #42]	; 0x2a
 8002f34:	e04c      	b.n	8002fd0 <I2C_MasterTransmit_BTF+0xe4>
 8002f36:	68fb      	ldr	r3, [r7, #12]
 8002f38:	2b08      	cmp	r3, #8
 8002f3a:	d01d      	beq.n	8002f78 <I2C_MasterTransmit_BTF+0x8c>
 8002f3c:	68fb      	ldr	r3, [r7, #12]
 8002f3e:	2b20      	cmp	r3, #32
 8002f40:	d01a      	beq.n	8002f78 <I2C_MasterTransmit_BTF+0x8c>
 8002f42:	68fb      	ldr	r3, [r7, #12]
 8002f44:	f513 3f80 	cmn.w	r3, #65536	; 0x10000
 8002f48:	d016      	beq.n	8002f78 <I2C_MasterTransmit_BTF+0x8c>
 8002f4a:	687b      	ldr	r3, [r7, #4]
 8002f4c:	681b      	ldr	r3, [r3, #0]
 8002f4e:	685a      	ldr	r2, [r3, #4]
 8002f50:	687b      	ldr	r3, [r7, #4]
 8002f52:	681b      	ldr	r3, [r3, #0]
 8002f54:	f422 62e0 	bic.w	r2, r2, #1792	; 0x700
 8002f58:	605a      	str	r2, [r3, #4]
 8002f5a:	687b      	ldr	r3, [r7, #4]
 8002f5c:	2211      	movs	r2, #17
 8002f5e:	631a      	str	r2, [r3, #48]	; 0x30
 8002f60:	687b      	ldr	r3, [r7, #4]
 8002f62:	2200      	movs	r2, #0
 8002f64:	f883 203e 	strb.w	r2, [r3, #62]	; 0x3e
 8002f68:	687b      	ldr	r3, [r7, #4]
 8002f6a:	2220      	movs	r2, #32
 8002f6c:	f883 203d 	strb.w	r2, [r3, #61]	; 0x3d
 8002f70:	6878      	ldr	r0, [r7, #4]
 8002f72:	f7ff feb7 	bl	8002ce4 <HAL_I2C_MasterTxCpltCallback>
 8002f76:	e02b      	b.n	8002fd0 <I2C_MasterTransmit_BTF+0xe4>
 8002f78:	687b      	ldr	r3, [r7, #4]
 8002f7a:	681b      	ldr	r3, [r3, #0]
 8002f7c:	685a      	ldr	r2, [r3, #4]
 8002f7e:	687b      	ldr	r3, [r7, #4]
 8002f80:	681b      	ldr	r3, [r3, #0]
 8002f82:	f422 62e0 	bic.w	r2, r2, #1792	; 0x700
 8002f86:	605a      	str	r2, [r3, #4]
 8002f88:	687b      	ldr	r3, [r7, #4]
 8002f8a:	681b      	ldr	r3, [r3, #0]
 8002f8c:	681a      	ldr	r2, [r3, #0]
 8002f8e:	687b      	ldr	r3, [r7, #4]
 8002f90:	681b      	ldr	r3, [r3, #0]
 8002f92:	f442 7200 	orr.w	r2, r2, #512	; 0x200
 8002f96:	601a      	str	r2, [r3, #0]
 8002f98:	687b      	ldr	r3, [r7, #4]
 8002f9a:	2200      	movs	r2, #0
 8002f9c:	631a      	str	r2, [r3, #48]	; 0x30
 8002f9e:	687b      	ldr	r3, [r7, #4]
 8002fa0:	2220      	movs	r2, #32
 8002fa2:	f883 203d 	strb.w	r2, [r3, #61]	; 0x3d
 8002fa6:	687b      	ldr	r3, [r7, #4]
 8002fa8:	f893 303e 	ldrb.w	r3, [r3, #62]	; 0x3e
 8002fac:	b2db      	uxtb	r3, r3
 8002fae:	2b40      	cmp	r3, #64	; 0x40
 8002fb0:	d107      	bne.n	8002fc2 <I2C_MasterTransmit_BTF+0xd6>
 8002fb2:	687b      	ldr	r3, [r7, #4]
 8002fb4:	2200      	movs	r2, #0
 8002fb6:	f883 203e 	strb.w	r2, [r3, #62]	; 0x3e
 8002fba:	6878      	ldr	r0, [r7, #4]
 8002fbc:	f7ff fed2 	bl	8002d64 <HAL_I2C_MemTxCpltCallback>
 8002fc0:	e006      	b.n	8002fd0 <I2C_MasterTransmit_BTF+0xe4>
 8002fc2:	687b      	ldr	r3, [r7, #4]
 8002fc4:	2200      	movs	r2, #0
 8002fc6:	f883 203e 	strb.w	r2, [r3, #62]	; 0x3e
 8002fca:	6878      	ldr	r0, [r7, #4]
 8002fcc:	f7ff fe8a 	bl	8002ce4 <HAL_I2C_MasterTxCpltCallback>
 8002fd0:	bf00      	nop
 8002fd2:	3710      	adds	r7, #16
 8002fd4:	46bd      	mov	sp, r7
 8002fd6:	bd80      	pop	{r7, pc}

08002fd8 <I2C_MemoryTransmit_TXE_BTF>:
 8002fd8:	b580      	push	{r7, lr}
 8002fda:	b084      	sub	sp, #16
 8002fdc:	af00      	add	r7, sp, #0
 8002fde:	6078      	str	r0, [r7, #4]
 8002fe0:	687b      	ldr	r3, [r7, #4]
 8002fe2:	f893 303d 	ldrb.w	r3, [r3, #61]	; 0x3d
 8002fe6:	73fb      	strb	r3, [r7, #15]
 8002fe8:	687b      	ldr	r3, [r7, #4]
 8002fea:	6d1b      	ldr	r3, [r3, #80]	; 0x50
 8002fec:	2b00      	cmp	r3, #0
 8002fee:	d11d      	bne.n	800302c <I2C_MemoryTransmit_TXE_BTF+0x54>
 8002ff0:	687b      	ldr	r3, [r7, #4]
 8002ff2:	6cdb      	ldr	r3, [r3, #76]	; 0x4c
 8002ff4:	2b01      	cmp	r3, #1
 8002ff6:	d10b      	bne.n	8003010 <I2C_MemoryTransmit_TXE_BTF+0x38>
 8002ff8:	687b      	ldr	r3, [r7, #4]
 8002ffa:	6c9b      	ldr	r3, [r3, #72]	; 0x48
 8002ffc:	b2da      	uxtb	r2, r3
 8002ffe:	687b      	ldr	r3, [r7, #4]
 8003000:	681b      	ldr	r3, [r3, #0]
 8003002:	611a      	str	r2, [r3, #16]
 8003004:	687b      	ldr	r3, [r7, #4]
 8003006:	6d1b      	ldr	r3, [r3, #80]	; 0x50
 8003008:	1c9a      	adds	r2, r3, #2
 800300a:	687b      	ldr	r3, [r7, #4]
 800300c:	651a      	str	r2, [r3, #80]	; 0x50
 800300e:	e073      	b.n	80030f8 <I2C_MemoryTransmit_TXE_BTF+0x120>
 8003010:	687b      	ldr	r3, [r7, #4]
 8003012:	6c9b      	ldr	r3, [r3, #72]	; 0x48
 8003014:	b29b      	uxth	r3, r3
 8003016:	121b      	asrs	r3, r3, #8
 8003018:	b2da      	uxtb	r2, r3
 800301a:	687b      	ldr	r3, [r7, #4]
 800301c:	681b      	ldr	r3, [r3, #0]
 800301e:	611a      	str	r2, [r3, #16]
 8003020:	687b      	ldr	r3, [r7, #4]
 8003022:	6d1b      	ldr	r3, [r3, #80]	; 0x50
 8003024:	1c5a      	adds	r2, r3, #1
 8003026:	687b      	ldr	r3, [r7, #4]
 8003028:	651a      	str	r2, [r3, #80]	; 0x50
 800302a:	e065      	b.n	80030f8 <I2C_MemoryTransmit_TXE_BTF+0x120>
 800302c:	687b      	ldr	r3, [r7, #4]
 800302e:	6d1b      	ldr	r3, [r3, #80]	; 0x50
 8003030:	2b01      	cmp	r3, #1
 8003032:	d10b      	bne.n	800304c <I2C_MemoryTransmit_TXE_BTF+0x74>
 8003034:	687b      	ldr	r3, [r7, #4]
 8003036:	6c9b      	ldr	r3, [r3, #72]	; 0x48
 8003038:	b2da      	uxtb	r2, r3
 800303a:	687b      	ldr	r3, [r7, #4]
 800303c:	681b      	ldr	r3, [r3, #0]
 800303e:	611a      	str	r2, [r3, #16]
 8003040:	687b      	ldr	r3, [r7, #4]
 8003042:	6d1b      	ldr	r3, [r3, #80]	; 0x50
 8003044:	1c5a      	adds	r2, r3, #1
 8003046:	687b      	ldr	r3, [r7, #4]
 8003048:	651a      	str	r2, [r3, #80]	; 0x50
 800304a:	e055      	b.n	80030f8 <I2C_MemoryTransmit_TXE_BTF+0x120>
 800304c:	687b      	ldr	r3, [r7, #4]
 800304e:	6d1b      	ldr	r3, [r3, #80]	; 0x50
 8003050:	2b02      	cmp	r3, #2
 8003052:	d151      	bne.n	80030f8 <I2C_MemoryTransmit_TXE_BTF+0x120>
 8003054:	7bfb      	ldrb	r3, [r7, #15]
 8003056:	2b22      	cmp	r3, #34	; 0x22
 8003058:	d10d      	bne.n	8003076 <I2C_MemoryTransmit_TXE_BTF+0x9e>
 800305a:	687b      	ldr	r3, [r7, #4]
 800305c:	681b      	ldr	r3, [r3, #0]
 800305e:	681a      	ldr	r2, [r3, #0]
 8003060:	687b      	ldr	r3, [r7, #4]
 8003062:	681b      	ldr	r3, [r3, #0]
 8003064:	f442 7280 	orr.w	r2, r2, #256	; 0x100
 8003068:	601a      	str	r2, [r3, #0]
 800306a:	687b      	ldr	r3, [r7, #4]
 800306c:	6d1b      	ldr	r3, [r3, #80]	; 0x50
 800306e:	1c5a      	adds	r2, r3, #1
 8003070:	687b      	ldr	r3, [r7, #4]
 8003072:	651a      	str	r2, [r3, #80]	; 0x50
 8003074:	e040      	b.n	80030f8 <I2C_MemoryTransmit_TXE_BTF+0x120>
 8003076:	687b      	ldr	r3, [r7, #4]
 8003078:	8d5b      	ldrh	r3, [r3, #42]	; 0x2a
 800307a:	b29b      	uxth	r3, r3
 800307c:	2b00      	cmp	r3, #0
 800307e:	d015      	beq.n	80030ac <I2C_MemoryTransmit_TXE_BTF+0xd4>
 8003080:	7bfb      	ldrb	r3, [r7, #15]
 8003082:	2b21      	cmp	r3, #33	; 0x21
 8003084:	d112      	bne.n	80030ac <I2C_MemoryTransmit_TXE_BTF+0xd4>
 8003086:	687b      	ldr	r3, [r7, #4]
 8003088:	6a5b      	ldr	r3, [r3, #36]	; 0x24
 800308a:	781a      	ldrb	r2, [r3, #0]
 800308c:	687b      	ldr	r3, [r7, #4]
 800308e:	681b      	ldr	r3, [r3, #0]
 8003090:	611a      	str	r2, [r3, #16]
 8003092:	687b      	ldr	r3, [r7, #4]
 8003094:	6a5b      	ldr	r3, [r3, #36]	; 0x24
 8003096:	1c5a      	adds	r2, r3, #1
 8003098:	687b      	ldr	r3, [r7, #4]
 800309a:	625a      	str	r2, [r3, #36]	; 0x24
 800309c:	687b      	ldr	r3, [r7, #4]
 800309e:	8d5b      	ldrh	r3, [r3, #42]	; 0x2a
 80030a0:	b29b      	uxth	r3, r3
 80030a2:	3b01      	subs	r3, #1
 80030a4:	b29a      	uxth	r2, r3
 80030a6:	687b      	ldr	r3, [r7, #4]
 80030a8:	855a      	strh	r2, [r3, #42]	; 0x2a
 80030aa:	e025      	b.n	80030f8 <I2C_MemoryTransmit_TXE_BTF+0x120>
 80030ac:	687b      	ldr	r3, [r7, #4]
 80030ae:	8d5b      	ldrh	r3, [r3, #42]	; 0x2a
 80030b0:	b29b      	uxth	r3, r3
 80030b2:	2b00      	cmp	r3, #0
 80030b4:	d120      	bne.n	80030f8 <I2C_MemoryTransmit_TXE_BTF+0x120>
 80030b6:	7bfb      	ldrb	r3, [r7, #15]
 80030b8:	2b21      	cmp	r3, #33	; 0x21
 80030ba:	d11d      	bne.n	80030f8 <I2C_MemoryTransmit_TXE_BTF+0x120>
 80030bc:	687b      	ldr	r3, [r7, #4]
 80030be:	681b      	ldr	r3, [r3, #0]
 80030c0:	685a      	ldr	r2, [r3, #4]
 80030c2:	687b      	ldr	r3, [r7, #4]
 80030c4:	681b      	ldr	r3, [r3, #0]
 80030c6:	f422 62e0 	bic.w	r2, r2, #1792	; 0x700
 80030ca:	605a      	str	r2, [r3, #4]
 80030cc:	687b      	ldr	r3, [r7, #4]
 80030ce:	681b      	ldr	r3, [r3, #0]
 80030d0:	681a      	ldr	r2, [r3, #0]
 80030d2:	687b      	ldr	r3, [r7, #4]
 80030d4:	681b      	ldr	r3, [r3, #0]
 80030d6:	f442 7200 	orr.w	r2, r2, #512	; 0x200
 80030da:	601a      	str	r2, [r3, #0]
 80030dc:	687b      	ldr	r3, [r7, #4]
 80030de:	2200      	movs	r2, #0
 80030e0:	631a      	str	r2, [r3, #48]	; 0x30
 80030e2:	687b      	ldr	r3, [r7, #4]
 80030e4:	2220      	movs	r2, #32
 80030e6:	f883 203d 	strb.w	r2, [r3, #61]	; 0x3d
 80030ea:	687b      	ldr	r3, [r7, #4]
 80030ec:	2200      	movs	r2, #0
 80030ee:	f883 203e 	strb.w	r2, [r3, #62]	; 0x3e
 80030f2:	6878      	ldr	r0, [r7, #4]
 80030f4:	f7ff fe36 	bl	8002d64 <HAL_I2C_MemTxCpltCallback>
 80030f8:	bf00      	nop
 80030fa:	3710      	adds	r7, #16
 80030fc:	46bd      	mov	sp, r7
 80030fe:	bd80      	pop	{r7, pc}

08003100 <I2C_MasterReceive_RXNE>:
 8003100:	b580      	push	{r7, lr}
 8003102:	b084      	sub	sp, #16
 8003104:	af00      	add	r7, sp, #0
 8003106:	6078      	str	r0, [r7, #4]
 8003108:	687b      	ldr	r3, [r7, #4]
 800310a:	f893 303d 	ldrb.w	r3, [r3, #61]	; 0x3d
 800310e:	b2db      	uxtb	r3, r3
 8003110:	2b22      	cmp	r3, #34	; 0x22
 8003112:	f040 80a2 	bne.w	800325a <I2C_MasterReceive_RXNE+0x15a>
 8003116:	687b      	ldr	r3, [r7, #4]
 8003118:	8d5b      	ldrh	r3, [r3, #42]	; 0x2a
 800311a:	b29b      	uxth	r3, r3
 800311c:	60fb      	str	r3, [r7, #12]
 800311e:	68fb      	ldr	r3, [r7, #12]
 8003120:	2b03      	cmp	r3, #3
 8003122:	d921      	bls.n	8003168 <I2C_MasterReceive_RXNE+0x68>
 8003124:	687b      	ldr	r3, [r7, #4]
 8003126:	681b      	ldr	r3, [r3, #0]
 8003128:	691a      	ldr	r2, [r3, #16]
 800312a:	687b      	ldr	r3, [r7, #4]
 800312c:	6a5b      	ldr	r3, [r3, #36]	; 0x24
 800312e:	b2d2      	uxtb	r2, r2
 8003130:	701a      	strb	r2, [r3, #0]
 8003132:	687b      	ldr	r3, [r7, #4]
 8003134:	6a5b      	ldr	r3, [r3, #36]	; 0x24
 8003136:	1c5a      	adds	r2, r3, #1
 8003138:	687b      	ldr	r3, [r7, #4]
 800313a:	625a      	str	r2, [r3, #36]	; 0x24
 800313c:	687b      	ldr	r3, [r7, #4]
 800313e:	8d5b      	ldrh	r3, [r3, #42]	; 0x2a
 8003140:	b29b      	uxth	r3, r3
 8003142:	3b01      	subs	r3, #1
 8003144:	b29a      	uxth	r2, r3
 8003146:	687b      	ldr	r3, [r7, #4]
 8003148:	855a      	strh	r2, [r3, #42]	; 0x2a
 800314a:	687b      	ldr	r3, [r7, #4]
 800314c:	8d5b      	ldrh	r3, [r3, #42]	; 0x2a
 800314e:	b29b      	uxth	r3, r3
 8003150:	2b03      	cmp	r3, #3
 8003152:	f040 8082 	bne.w	800325a <I2C_MasterReceive_RXNE+0x15a>
 8003156:	687b      	ldr	r3, [r7, #4]
 8003158:	681b      	ldr	r3, [r3, #0]
 800315a:	685a      	ldr	r2, [r3, #4]
 800315c:	687b      	ldr	r3, [r7, #4]
 800315e:	681b      	ldr	r3, [r3, #0]
 8003160:	f422 6280 	bic.w	r2, r2, #1024	; 0x400
 8003164:	605a      	str	r2, [r3, #4]
 8003166:	e078      	b.n	800325a <I2C_MasterReceive_RXNE+0x15a>
 8003168:	687b      	ldr	r3, [r7, #4]
 800316a:	6adb      	ldr	r3, [r3, #44]	; 0x2c
 800316c:	2b02      	cmp	r3, #2
 800316e:	d074      	beq.n	800325a <I2C_MasterReceive_RXNE+0x15a>
 8003170:	68fb      	ldr	r3, [r7, #12]
 8003172:	2b01      	cmp	r3, #1
 8003174:	d002      	beq.n	800317c <I2C_MasterReceive_RXNE+0x7c>
 8003176:	68fb      	ldr	r3, [r7, #12]
 8003178:	2b00      	cmp	r3, #0
 800317a:	d16e      	bne.n	800325a <I2C_MasterReceive_RXNE+0x15a>
 800317c:	6878      	ldr	r0, [r7, #4]
 800317e:	f001 fb5b 	bl	8004838 <I2C_WaitOnSTOPRequestThroughIT>
 8003182:	4603      	mov	r3, r0
 8003184:	2b00      	cmp	r3, #0
 8003186:	d142      	bne.n	800320e <I2C_MasterReceive_RXNE+0x10e>
 8003188:	687b      	ldr	r3, [r7, #4]
 800318a:	681b      	ldr	r3, [r3, #0]
 800318c:	681a      	ldr	r2, [r3, #0]
 800318e:	687b      	ldr	r3, [r7, #4]
 8003190:	681b      	ldr	r3, [r3, #0]
 8003192:	f422 6280 	bic.w	r2, r2, #1024	; 0x400
 8003196:	601a      	str	r2, [r3, #0]
 8003198:	687b      	ldr	r3, [r7, #4]
 800319a:	681b      	ldr	r3, [r3, #0]
 800319c:	685a      	ldr	r2, [r3, #4]
 800319e:	687b      	ldr	r3, [r7, #4]
 80031a0:	681b      	ldr	r3, [r3, #0]
 80031a2:	f422 62e0 	bic.w	r2, r2, #1792	; 0x700
 80031a6:	605a      	str	r2, [r3, #4]
 80031a8:	687b      	ldr	r3, [r7, #4]
 80031aa:	681b      	ldr	r3, [r3, #0]
 80031ac:	691a      	ldr	r2, [r3, #16]
 80031ae:	687b      	ldr	r3, [r7, #4]
 80031b0:	6a5b      	ldr	r3, [r3, #36]	; 0x24
 80031b2:	b2d2      	uxtb	r2, r2
 80031b4:	701a      	strb	r2, [r3, #0]
 80031b6:	687b      	ldr	r3, [r7, #4]
 80031b8:	6a5b      	ldr	r3, [r3, #36]	; 0x24
 80031ba:	1c5a      	adds	r2, r3, #1
 80031bc:	687b      	ldr	r3, [r7, #4]
 80031be:	625a      	str	r2, [r3, #36]	; 0x24
 80031c0:	687b      	ldr	r3, [r7, #4]
 80031c2:	8d5b      	ldrh	r3, [r3, #42]	; 0x2a
 80031c4:	b29b      	uxth	r3, r3
 80031c6:	3b01      	subs	r3, #1
 80031c8:	b29a      	uxth	r2, r3
 80031ca:	687b      	ldr	r3, [r7, #4]
 80031cc:	855a      	strh	r2, [r3, #42]	; 0x2a
 80031ce:	687b      	ldr	r3, [r7, #4]
 80031d0:	2220      	movs	r2, #32
 80031d2:	f883 203d 	strb.w	r2, [r3, #61]	; 0x3d
 80031d6:	687b      	ldr	r3, [r7, #4]
 80031d8:	f893 303e 	ldrb.w	r3, [r3, #62]	; 0x3e
 80031dc:	b2db      	uxtb	r3, r3
 80031de:	2b40      	cmp	r3, #64	; 0x40
 80031e0:	d10a      	bne.n	80031f8 <I2C_MasterReceive_RXNE+0xf8>
 80031e2:	687b      	ldr	r3, [r7, #4]
 80031e4:	2200      	movs	r2, #0
 80031e6:	f883 203e 	strb.w	r2, [r3, #62]	; 0x3e
 80031ea:	687b      	ldr	r3, [r7, #4]
 80031ec:	2200      	movs	r2, #0
 80031ee:	631a      	str	r2, [r3, #48]	; 0x30
 80031f0:	6878      	ldr	r0, [r7, #4]
 80031f2:	f7ff fdc1 	bl	8002d78 <HAL_I2C_MemRxCpltCallback>
 80031f6:	e030      	b.n	800325a <I2C_MasterReceive_RXNE+0x15a>
 80031f8:	687b      	ldr	r3, [r7, #4]
 80031fa:	2200      	movs	r2, #0
 80031fc:	f883 203e 	strb.w	r2, [r3, #62]	; 0x3e
 8003200:	687b      	ldr	r3, [r7, #4]
 8003202:	2212      	movs	r2, #18
 8003204:	631a      	str	r2, [r3, #48]	; 0x30
 8003206:	6878      	ldr	r0, [r7, #4]
 8003208:	f7ff fd76 	bl	8002cf8 <HAL_I2C_MasterRxCpltCallback>
 800320c:	e025      	b.n	800325a <I2C_MasterReceive_RXNE+0x15a>
 800320e:	687b      	ldr	r3, [r7, #4]
 8003210:	681b      	ldr	r3, [r3, #0]
 8003212:	685a      	ldr	r2, [r3, #4]
 8003214:	687b      	ldr	r3, [r7, #4]
 8003216:	681b      	ldr	r3, [r3, #0]
 8003218:	f422 62e0 	bic.w	r2, r2, #1792	; 0x700
 800321c:	605a      	str	r2, [r3, #4]
 800321e:	687b      	ldr	r3, [r7, #4]
 8003220:	681b      	ldr	r3, [r3, #0]
 8003222:	691a      	ldr	r2, [r3, #16]
 8003224:	687b      	ldr	r3, [r7, #4]
 8003226:	6a5b      	ldr	r3, [r3, #36]	; 0x24
 8003228:	b2d2      	uxtb	r2, r2
 800322a:	701a      	strb	r2, [r3, #0]
 800322c:	687b      	ldr	r3, [r7, #4]
 800322e:	6a5b      	ldr	r3, [r3, #36]	; 0x24
 8003230:	1c5a      	adds	r2, r3, #1
 8003232:	687b      	ldr	r3, [r7, #4]
 8003234:	625a      	str	r2, [r3, #36]	; 0x24
 8003236:	687b      	ldr	r3, [r7, #4]
 8003238:	8d5b      	ldrh	r3, [r3, #42]	; 0x2a
 800323a:	b29b      	uxth	r3, r3
 800323c:	3b01      	subs	r3, #1
 800323e:	b29a      	uxth	r2, r3
 8003240:	687b      	ldr	r3, [r7, #4]
 8003242:	855a      	strh	r2, [r3, #42]	; 0x2a
 8003244:	687b      	ldr	r3, [r7, #4]
 8003246:	2220      	movs	r2, #32
 8003248:	f883 203d 	strb.w	r2, [r3, #61]	; 0x3d
 800324c:	687b      	ldr	r3, [r7, #4]
 800324e:	2200      	movs	r2, #0
 8003250:	f883 203e 	strb.w	r2, [r3, #62]	; 0x3e
 8003254:	6878      	ldr	r0, [r7, #4]
 8003256:	f7ff fd99 	bl	8002d8c <HAL_I2C_ErrorCallback>
 800325a:	bf00      	nop
 800325c:	3710      	adds	r7, #16
 800325e:	46bd      	mov	sp, r7
 8003260:	bd80      	pop	{r7, pc}

08003262 <I2C_MasterReceive_BTF>:
 8003262:	b580      	push	{r7, lr}
 8003264:	b084      	sub	sp, #16
 8003266:	af00      	add	r7, sp, #0
 8003268:	6078      	str	r0, [r7, #4]
 800326a:	687b      	ldr	r3, [r7, #4]
 800326c:	6adb      	ldr	r3, [r3, #44]	; 0x2c
 800326e:	60fb      	str	r3, [r7, #12]
 8003270:	687b      	ldr	r3, [r7, #4]
 8003272:	8d5b      	ldrh	r3, [r3, #42]	; 0x2a
 8003274:	b29b      	uxth	r3, r3
 8003276:	2b04      	cmp	r3, #4
 8003278:	d11b      	bne.n	80032b2 <I2C_MasterReceive_BTF+0x50>
 800327a:	687b      	ldr	r3, [r7, #4]
 800327c:	681b      	ldr	r3, [r3, #0]
 800327e:	685a      	ldr	r2, [r3, #4]
 8003280:	687b      	ldr	r3, [r7, #4]
 8003282:	681b      	ldr	r3, [r3, #0]
 8003284:	f422 6280 	bic.w	r2, r2, #1024	; 0x400
 8003288:	605a      	str	r2, [r3, #4]
 800328a:	687b      	ldr	r3, [r7, #4]
 800328c:	681b      	ldr	r3, [r3, #0]
 800328e:	691a      	ldr	r2, [r3, #16]
 8003290:	687b      	ldr	r3, [r7, #4]
 8003292:	6a5b      	ldr	r3, [r3, #36]	; 0x24
 8003294:	b2d2      	uxtb	r2, r2
 8003296:	701a      	strb	r2, [r3, #0]
 8003298:	687b      	ldr	r3, [r7, #4]
 800329a:	6a5b      	ldr	r3, [r3, #36]	; 0x24
 800329c:	1c5a      	adds	r2, r3, #1
 800329e:	687b      	ldr	r3, [r7, #4]
 80032a0:	625a      	str	r2, [r3, #36]	; 0x24
 80032a2:	687b      	ldr	r3, [r7, #4]
 80032a4:	8d5b      	ldrh	r3, [r3, #42]	; 0x2a
 80032a6:	b29b      	uxth	r3, r3
 80032a8:	3b01      	subs	r3, #1
 80032aa:	b29a      	uxth	r2, r3
 80032ac:	687b      	ldr	r3, [r7, #4]
 80032ae:	855a      	strh	r2, [r3, #42]	; 0x2a
 80032b0:	e0bd      	b.n	800342e <I2C_MasterReceive_BTF+0x1cc>
 80032b2:	687b      	ldr	r3, [r7, #4]
 80032b4:	8d5b      	ldrh	r3, [r3, #42]	; 0x2a
 80032b6:	b29b      	uxth	r3, r3
 80032b8:	2b03      	cmp	r3, #3
 80032ba:	d129      	bne.n	8003310 <I2C_MasterReceive_BTF+0xae>
 80032bc:	687b      	ldr	r3, [r7, #4]
 80032be:	681b      	ldr	r3, [r3, #0]
 80032c0:	685a      	ldr	r2, [r3, #4]
 80032c2:	687b      	ldr	r3, [r7, #4]
 80032c4:	681b      	ldr	r3, [r3, #0]
 80032c6:	f422 6280 	bic.w	r2, r2, #1024	; 0x400
 80032ca:	605a      	str	r2, [r3, #4]
 80032cc:	68fb      	ldr	r3, [r7, #12]
 80032ce:	2b04      	cmp	r3, #4
 80032d0:	d00a      	beq.n	80032e8 <I2C_MasterReceive_BTF+0x86>
 80032d2:	68fb      	ldr	r3, [r7, #12]
 80032d4:	2b02      	cmp	r3, #2
 80032d6:	d007      	beq.n	80032e8 <I2C_MasterReceive_BTF+0x86>
 80032d8:	687b      	ldr	r3, [r7, #4]
 80032da:	681b      	ldr	r3, [r3, #0]
 80032dc:	681a      	ldr	r2, [r3, #0]
 80032de:	687b      	ldr	r3, [r7, #4]
 80032e0:	681b      	ldr	r3, [r3, #0]
 80032e2:	f422 6280 	bic.w	r2, r2, #1024	; 0x400
 80032e6:	601a      	str	r2, [r3, #0]
 80032e8:	687b      	ldr	r3, [r7, #4]
 80032ea:	681b      	ldr	r3, [r3, #0]
 80032ec:	691a      	ldr	r2, [r3, #16]
 80032ee:	687b      	ldr	r3, [r7, #4]
 80032f0:	6a5b      	ldr	r3, [r3, #36]	; 0x24
 80032f2:	b2d2      	uxtb	r2, r2
 80032f4:	701a      	strb	r2, [r3, #0]
 80032f6:	687b      	ldr	r3, [r7, #4]
 80032f8:	6a5b      	ldr	r3, [r3, #36]	; 0x24
 80032fa:	1c5a      	adds	r2, r3, #1
 80032fc:	687b      	ldr	r3, [r7, #4]
 80032fe:	625a      	str	r2, [r3, #36]	; 0x24
 8003300:	687b      	ldr	r3, [r7, #4]
 8003302:	8d5b      	ldrh	r3, [r3, #42]	; 0x2a
 8003304:	b29b      	uxth	r3, r3
 8003306:	3b01      	subs	r3, #1
 8003308:	b29a      	uxth	r2, r3
 800330a:	687b      	ldr	r3, [r7, #4]
 800330c:	855a      	strh	r2, [r3, #42]	; 0x2a
 800330e:	e08e      	b.n	800342e <I2C_MasterReceive_BTF+0x1cc>
 8003310:	687b      	ldr	r3, [r7, #4]
 8003312:	8d5b      	ldrh	r3, [r3, #42]	; 0x2a
 8003314:	b29b      	uxth	r3, r3
 8003316:	2b02      	cmp	r3, #2
 8003318:	d176      	bne.n	8003408 <I2C_MasterReceive_BTF+0x1a6>
 800331a:	68fb      	ldr	r3, [r7, #12]
 800331c:	2b01      	cmp	r3, #1
 800331e:	d002      	beq.n	8003326 <I2C_MasterReceive_BTF+0xc4>
 8003320:	68fb      	ldr	r3, [r7, #12]
 8003322:	2b10      	cmp	r3, #16
 8003324:	d108      	bne.n	8003338 <I2C_MasterReceive_BTF+0xd6>
 8003326:	687b      	ldr	r3, [r7, #4]
 8003328:	681b      	ldr	r3, [r3, #0]
 800332a:	681a      	ldr	r2, [r3, #0]
 800332c:	687b      	ldr	r3, [r7, #4]
 800332e:	681b      	ldr	r3, [r3, #0]
 8003330:	f422 6280 	bic.w	r2, r2, #1024	; 0x400
 8003334:	601a      	str	r2, [r3, #0]
 8003336:	e019      	b.n	800336c <I2C_MasterReceive_BTF+0x10a>
 8003338:	68fb      	ldr	r3, [r7, #12]
 800333a:	2b04      	cmp	r3, #4
 800333c:	d002      	beq.n	8003344 <I2C_MasterReceive_BTF+0xe2>
 800333e:	68fb      	ldr	r3, [r7, #12]
 8003340:	2b02      	cmp	r3, #2
 8003342:	d108      	bne.n	8003356 <I2C_MasterReceive_BTF+0xf4>
 8003344:	687b      	ldr	r3, [r7, #4]
 8003346:	681b      	ldr	r3, [r3, #0]
 8003348:	681a      	ldr	r2, [r3, #0]
 800334a:	687b      	ldr	r3, [r7, #4]
 800334c:	681b      	ldr	r3, [r3, #0]
 800334e:	f442 6280 	orr.w	r2, r2, #1024	; 0x400
 8003352:	601a      	str	r2, [r3, #0]
 8003354:	e00a      	b.n	800336c <I2C_MasterReceive_BTF+0x10a>
 8003356:	68fb      	ldr	r3, [r7, #12]
 8003358:	2b10      	cmp	r3, #16
 800335a:	d007      	beq.n	800336c <I2C_MasterReceive_BTF+0x10a>
 800335c:	687b      	ldr	r3, [r7, #4]
 800335e:	681b      	ldr	r3, [r3, #0]
 8003360:	681a      	ldr	r2, [r3, #0]
 8003362:	687b      	ldr	r3, [r7, #4]
 8003364:	681b      	ldr	r3, [r3, #0]
 8003366:	f442 7200 	orr.w	r2, r2, #512	; 0x200
 800336a:	601a      	str	r2, [r3, #0]
 800336c:	687b      	ldr	r3, [r7, #4]
 800336e:	681b      	ldr	r3, [r3, #0]
 8003370:	691a      	ldr	r2, [r3, #16]
 8003372:	687b      	ldr	r3, [r7, #4]
 8003374:	6a5b      	ldr	r3, [r3, #36]	; 0x24
 8003376:	b2d2      	uxtb	r2, r2
 8003378:	701a      	strb	r2, [r3, #0]
 800337a:	687b      	ldr	r3, [r7, #4]
 800337c:	6a5b      	ldr	r3, [r3, #36]	; 0x24
 800337e:	1c5a      	adds	r2, r3, #1
 8003380:	687b      	ldr	r3, [r7, #4]
 8003382:	625a      	str	r2, [r3, #36]	; 0x24
 8003384:	687b      	ldr	r3, [r7, #4]
 8003386:	8d5b      	ldrh	r3, [r3, #42]	; 0x2a
 8003388:	b29b      	uxth	r3, r3
 800338a:	3b01      	subs	r3, #1
 800338c:	b29a      	uxth	r2, r3
 800338e:	687b      	ldr	r3, [r7, #4]
 8003390:	855a      	strh	r2, [r3, #42]	; 0x2a
 8003392:	687b      	ldr	r3, [r7, #4]
 8003394:	681b      	ldr	r3, [r3, #0]
 8003396:	691a      	ldr	r2, [r3, #16]
 8003398:	687b      	ldr	r3, [r7, #4]
 800339a:	6a5b      	ldr	r3, [r3, #36]	; 0x24
 800339c:	b2d2      	uxtb	r2, r2
 800339e:	701a      	strb	r2, [r3, #0]
 80033a0:	687b      	ldr	r3, [r7, #4]
 80033a2:	6a5b      	ldr	r3, [r3, #36]	; 0x24
 80033a4:	1c5a      	adds	r2, r3, #1
 80033a6:	687b      	ldr	r3, [r7, #4]
 80033a8:	625a      	str	r2, [r3, #36]	; 0x24
 80033aa:	687b      	ldr	r3, [r7, #4]
 80033ac:	8d5b      	ldrh	r3, [r3, #42]	; 0x2a
 80033ae:	b29b      	uxth	r3, r3
 80033b0:	3b01      	subs	r3, #1
 80033b2:	b29a      	uxth	r2, r3
 80033b4:	687b      	ldr	r3, [r7, #4]
 80033b6:	855a      	strh	r2, [r3, #42]	; 0x2a
 80033b8:	687b      	ldr	r3, [r7, #4]
 80033ba:	681b      	ldr	r3, [r3, #0]
 80033bc:	685a      	ldr	r2, [r3, #4]
 80033be:	687b      	ldr	r3, [r7, #4]
 80033c0:	681b      	ldr	r3, [r3, #0]
 80033c2:	f422 7240 	bic.w	r2, r2, #768	; 0x300
 80033c6:	605a      	str	r2, [r3, #4]
 80033c8:	687b      	ldr	r3, [r7, #4]
 80033ca:	2220      	movs	r2, #32
 80033cc:	f883 203d 	strb.w	r2, [r3, #61]	; 0x3d
 80033d0:	687b      	ldr	r3, [r7, #4]
 80033d2:	f893 303e 	ldrb.w	r3, [r3, #62]	; 0x3e
 80033d6:	b2db      	uxtb	r3, r3
 80033d8:	2b40      	cmp	r3, #64	; 0x40
 80033da:	d10a      	bne.n	80033f2 <I2C_MasterReceive_BTF+0x190>
 80033dc:	687b      	ldr	r3, [r7, #4]
 80033de:	2200      	movs	r2, #0
 80033e0:	f883 203e 	strb.w	r2, [r3, #62]	; 0x3e
 80033e4:	687b      	ldr	r3, [r7, #4]
 80033e6:	2200      	movs	r2, #0
 80033e8:	631a      	str	r2, [r3, #48]	; 0x30
 80033ea:	6878      	ldr	r0, [r7, #4]
 80033ec:	f7ff fcc4 	bl	8002d78 <HAL_I2C_MemRxCpltCallback>
 80033f0:	e01d      	b.n	800342e <I2C_MasterReceive_BTF+0x1cc>
 80033f2:	687b      	ldr	r3, [r7, #4]
 80033f4:	2200      	movs	r2, #0
 80033f6:	f883 203e 	strb.w	r2, [r3, #62]	; 0x3e
 80033fa:	687b      	ldr	r3, [r7, #4]
 80033fc:	2212      	movs	r2, #18
 80033fe:	631a      	str	r2, [r3, #48]	; 0x30
 8003400:	6878      	ldr	r0, [r7, #4]
 8003402:	f7ff fc79 	bl	8002cf8 <HAL_I2C_MasterRxCpltCallback>
 8003406:	e012      	b.n	800342e <I2C_MasterReceive_BTF+0x1cc>
 8003408:	687b      	ldr	r3, [r7, #4]
 800340a:	681b      	ldr	r3, [r3, #0]
 800340c:	691a      	ldr	r2, [r3, #16]
 800340e:	687b      	ldr	r3, [r7, #4]
 8003410:	6a5b      	ldr	r3, [r3, #36]	; 0x24
 8003412:	b2d2      	uxtb	r2, r2
 8003414:	701a      	strb	r2, [r3, #0]
 8003416:	687b      	ldr	r3, [r7, #4]
 8003418:	6a5b      	ldr	r3, [r3, #36]	; 0x24
 800341a:	1c5a      	adds	r2, r3, #1
 800341c:	687b      	ldr	r3, [r7, #4]
 800341e:	625a      	str	r2, [r3, #36]	; 0x24
 8003420:	687b      	ldr	r3, [r7, #4]
 8003422:	8d5b      	ldrh	r3, [r3, #42]	; 0x2a
 8003424:	b29b      	uxth	r3, r3
 8003426:	3b01      	subs	r3, #1
 8003428:	b29a      	uxth	r2, r3
 800342a:	687b      	ldr	r3, [r7, #4]
 800342c:	855a      	strh	r2, [r3, #42]	; 0x2a
 800342e:	bf00      	nop
 8003430:	3710      	adds	r7, #16
 8003432:	46bd      	mov	sp, r7
 8003434:	bd80      	pop	{r7, pc}

08003436 <I2C_Master_SB>:
 8003436:	b480      	push	{r7}
 8003438:	b083      	sub	sp, #12
 800343a:	af00      	add	r7, sp, #0
 800343c:	6078      	str	r0, [r7, #4]
 800343e:	687b      	ldr	r3, [r7, #4]
 8003440:	f893 303e 	ldrb.w	r3, [r3, #62]	; 0x3e
 8003444:	b2db      	uxtb	r3, r3
 8003446:	2b40      	cmp	r3, #64	; 0x40
 8003448:	d117      	bne.n	800347a <I2C_Master_SB+0x44>
 800344a:	687b      	ldr	r3, [r7, #4]
 800344c:	6d1b      	ldr	r3, [r3, #80]	; 0x50
 800344e:	2b00      	cmp	r3, #0
 8003450:	d109      	bne.n	8003466 <I2C_Master_SB+0x30>
 8003452:	687b      	ldr	r3, [r7, #4]
 8003454:	6c5b      	ldr	r3, [r3, #68]	; 0x44
 8003456:	b2db      	uxtb	r3, r3
 8003458:	461a      	mov	r2, r3
 800345a:	687b      	ldr	r3, [r7, #4]
 800345c:	681b      	ldr	r3, [r3, #0]
 800345e:	f002 02fe 	and.w	r2, r2, #254	; 0xfe
 8003462:	611a      	str	r2, [r3, #16]
 8003464:	e067      	b.n	8003536 <I2C_Master_SB+0x100>
 8003466:	687b      	ldr	r3, [r7, #4]
 8003468:	6c5b      	ldr	r3, [r3, #68]	; 0x44
 800346a:	b2db      	uxtb	r3, r3
 800346c:	f043 0301 	orr.w	r3, r3, #1
 8003470:	b2da      	uxtb	r2, r3
 8003472:	687b      	ldr	r3, [r7, #4]
 8003474:	681b      	ldr	r3, [r3, #0]
 8003476:	611a      	str	r2, [r3, #16]
 8003478:	e05d      	b.n	8003536 <I2C_Master_SB+0x100>
 800347a:	687b      	ldr	r3, [r7, #4]
 800347c:	691b      	ldr	r3, [r3, #16]
 800347e:	f5b3 4f80 	cmp.w	r3, #16384	; 0x4000
 8003482:	d133      	bne.n	80034ec <I2C_Master_SB+0xb6>
 8003484:	687b      	ldr	r3, [r7, #4]
 8003486:	f893 303d 	ldrb.w	r3, [r3, #61]	; 0x3d
 800348a:	b2db      	uxtb	r3, r3
 800348c:	2b21      	cmp	r3, #33	; 0x21
 800348e:	d109      	bne.n	80034a4 <I2C_Master_SB+0x6e>
 8003490:	687b      	ldr	r3, [r7, #4]
 8003492:	6c5b      	ldr	r3, [r3, #68]	; 0x44
 8003494:	b2db      	uxtb	r3, r3
 8003496:	461a      	mov	r2, r3
 8003498:	687b      	ldr	r3, [r7, #4]
 800349a:	681b      	ldr	r3, [r3, #0]
 800349c:	f002 02fe 	and.w	r2, r2, #254	; 0xfe
 80034a0:	611a      	str	r2, [r3, #16]
 80034a2:	e008      	b.n	80034b6 <I2C_Master_SB+0x80>
 80034a4:	687b      	ldr	r3, [r7, #4]
 80034a6:	6c5b      	ldr	r3, [r3, #68]	; 0x44
 80034a8:	b2db      	uxtb	r3, r3
 80034aa:	f043 0301 	orr.w	r3, r3, #1
 80034ae:	b2da      	uxtb	r2, r3
 80034b0:	687b      	ldr	r3, [r7, #4]
 80034b2:	681b      	ldr	r3, [r3, #0]
 80034b4:	611a      	str	r2, [r3, #16]
 80034b6:	687b      	ldr	r3, [r7, #4]
 80034b8:	6b5b      	ldr	r3, [r3, #52]	; 0x34
 80034ba:	2b00      	cmp	r3, #0
 80034bc:	d004      	beq.n	80034c8 <I2C_Master_SB+0x92>
 80034be:	687b      	ldr	r3, [r7, #4]
 80034c0:	6b5b      	ldr	r3, [r3, #52]	; 0x34
 80034c2:	6bdb      	ldr	r3, [r3, #60]	; 0x3c
 80034c4:	2b00      	cmp	r3, #0
 80034c6:	d108      	bne.n	80034da <I2C_Master_SB+0xa4>
 80034c8:	687b      	ldr	r3, [r7, #4]
 80034ca:	6b9b      	ldr	r3, [r3, #56]	; 0x38
 80034cc:	2b00      	cmp	r3, #0
 80034ce:	d032      	beq.n	8003536 <I2C_Master_SB+0x100>
 80034d0:	687b      	ldr	r3, [r7, #4]
 80034d2:	6b9b      	ldr	r3, [r3, #56]	; 0x38
 80034d4:	6bdb      	ldr	r3, [r3, #60]	; 0x3c
 80034d6:	2b00      	cmp	r3, #0
 80034d8:	d02d      	beq.n	8003536 <I2C_Master_SB+0x100>
 80034da:	687b      	ldr	r3, [r7, #4]
 80034dc:	681b      	ldr	r3, [r3, #0]
 80034de:	685a      	ldr	r2, [r3, #4]
 80034e0:	687b      	ldr	r3, [r7, #4]
 80034e2:	681b      	ldr	r3, [r3, #0]
 80034e4:	f442 6200 	orr.w	r2, r2, #2048	; 0x800
 80034e8:	605a      	str	r2, [r3, #4]
 80034ea:	e024      	b.n	8003536 <I2C_Master_SB+0x100>
 80034ec:	687b      	ldr	r3, [r7, #4]
 80034ee:	6d1b      	ldr	r3, [r3, #80]	; 0x50
 80034f0:	2b00      	cmp	r3, #0
 80034f2:	d10e      	bne.n	8003512 <I2C_Master_SB+0xdc>
 80034f4:	687b      	ldr	r3, [r7, #4]
 80034f6:	6c5b      	ldr	r3, [r3, #68]	; 0x44
 80034f8:	b29b      	uxth	r3, r3
 80034fa:	11db      	asrs	r3, r3, #7
 80034fc:	b2db      	uxtb	r3, r3
 80034fe:	f003 0306 	and.w	r3, r3, #6
 8003502:	b2db      	uxtb	r3, r3
 8003504:	f063 030f 	orn	r3, r3, #15
 8003508:	b2da      	uxtb	r2, r3
 800350a:	687b      	ldr	r3, [r7, #4]
 800350c:	681b      	ldr	r3, [r3, #0]
 800350e:	611a      	str	r2, [r3, #16]
 8003510:	e011      	b.n	8003536 <I2C_Master_SB+0x100>
 8003512:	687b      	ldr	r3, [r7, #4]
 8003514:	6d1b      	ldr	r3, [r3, #80]	; 0x50
 8003516:	2b01      	cmp	r3, #1
 8003518:	d10d      	bne.n	8003536 <I2C_Master_SB+0x100>
 800351a:	687b      	ldr	r3, [r7, #4]
 800351c:	6c5b      	ldr	r3, [r3, #68]	; 0x44
 800351e:	b29b      	uxth	r3, r3
 8003520:	11db      	asrs	r3, r3, #7
 8003522:	b2db      	uxtb	r3, r3
 8003524:	f003 0306 	and.w	r3, r3, #6
 8003528:	b2db      	uxtb	r3, r3
 800352a:	f063 030e 	orn	r3, r3, #14
 800352e:	b2da      	uxtb	r2, r3
 8003530:	687b      	ldr	r3, [r7, #4]
 8003532:	681b      	ldr	r3, [r3, #0]
 8003534:	611a      	str	r2, [r3, #16]
 8003536:	bf00      	nop
 8003538:	370c      	adds	r7, #12
 800353a:	46bd      	mov	sp, r7
 800353c:	f85d 7b04 	ldr.w	r7, [sp], #4
 8003540:	4770      	bx	lr

08003542 <I2C_Master_ADD10>:
 8003542:	b480      	push	{r7}
 8003544:	b083      	sub	sp, #12
 8003546:	af00      	add	r7, sp, #0
 8003548:	6078      	str	r0, [r7, #4]
 800354a:	687b      	ldr	r3, [r7, #4]
 800354c:	6c5b      	ldr	r3, [r3, #68]	; 0x44
 800354e:	b2da      	uxtb	r2, r3
 8003550:	687b      	ldr	r3, [r7, #4]
 8003552:	681b      	ldr	r3, [r3, #0]
 8003554:	611a      	str	r2, [r3, #16]
 8003556:	687b      	ldr	r3, [r7, #4]
 8003558:	6b5b      	ldr	r3, [r3, #52]	; 0x34
 800355a:	2b00      	cmp	r3, #0
 800355c:	d004      	beq.n	8003568 <I2C_Master_ADD10+0x26>
 800355e:	687b      	ldr	r3, [r7, #4]
 8003560:	6b5b      	ldr	r3, [r3, #52]	; 0x34
 8003562:	6bdb      	ldr	r3, [r3, #60]	; 0x3c
 8003564:	2b00      	cmp	r3, #0
 8003566:	d108      	bne.n	800357a <I2C_Master_ADD10+0x38>
 8003568:	687b      	ldr	r3, [r7, #4]
 800356a:	6b9b      	ldr	r3, [r3, #56]	; 0x38
 800356c:	2b00      	cmp	r3, #0
 800356e:	d00c      	beq.n	800358a <I2C_Master_ADD10+0x48>
 8003570:	687b      	ldr	r3, [r7, #4]
 8003572:	6b9b      	ldr	r3, [r3, #56]	; 0x38
 8003574:	6bdb      	ldr	r3, [r3, #60]	; 0x3c
 8003576:	2b00      	cmp	r3, #0
 8003578:	d007      	beq.n	800358a <I2C_Master_ADD10+0x48>
 800357a:	687b      	ldr	r3, [r7, #4]
 800357c:	681b      	ldr	r3, [r3, #0]
 800357e:	685a      	ldr	r2, [r3, #4]
 8003580:	687b      	ldr	r3, [r7, #4]
 8003582:	681b      	ldr	r3, [r3, #0]
 8003584:	f442 6200 	orr.w	r2, r2, #2048	; 0x800
 8003588:	605a      	str	r2, [r3, #4]
 800358a:	bf00      	nop
 800358c:	370c      	adds	r7, #12
 800358e:	46bd      	mov	sp, r7
 8003590:	f85d 7b04 	ldr.w	r7, [sp], #4
 8003594:	4770      	bx	lr

08003596 <I2C_Master_ADDR>:
 8003596:	b480      	push	{r7}
 8003598:	b091      	sub	sp, #68	; 0x44
 800359a:	af00      	add	r7, sp, #0
 800359c:	6078      	str	r0, [r7, #4]
 800359e:	687b      	ldr	r3, [r7, #4]
 80035a0:	f893 303e 	ldrb.w	r3, [r3, #62]	; 0x3e
 80035a4:	f887 303f 	strb.w	r3, [r7, #63]	; 0x3f
 80035a8:	687b      	ldr	r3, [r7, #4]
 80035aa:	6adb      	ldr	r3, [r3, #44]	; 0x2c
 80035ac:	63bb      	str	r3, [r7, #56]	; 0x38
 80035ae:	687b      	ldr	r3, [r7, #4]
 80035b0:	6b1b      	ldr	r3, [r3, #48]	; 0x30
 80035b2:	637b      	str	r3, [r7, #52]	; 0x34
 80035b4:	687b      	ldr	r3, [r7, #4]
 80035b6:	f893 303d 	ldrb.w	r3, [r3, #61]	; 0x3d
 80035ba:	b2db      	uxtb	r3, r3
 80035bc:	2b22      	cmp	r3, #34	; 0x22
 80035be:	f040 8169 	bne.w	8003894 <I2C_Master_ADDR+0x2fe>
 80035c2:	687b      	ldr	r3, [r7, #4]
 80035c4:	6d1b      	ldr	r3, [r3, #80]	; 0x50
 80035c6:	2b00      	cmp	r3, #0
 80035c8:	d10f      	bne.n	80035ea <I2C_Master_ADDR+0x54>
 80035ca:	f897 303f 	ldrb.w	r3, [r7, #63]	; 0x3f
 80035ce:	2b40      	cmp	r3, #64	; 0x40
 80035d0:	d10b      	bne.n	80035ea <I2C_Master_ADDR+0x54>
 80035d2:	2300      	movs	r3, #0
 80035d4:	633b      	str	r3, [r7, #48]	; 0x30
 80035d6:	687b      	ldr	r3, [r7, #4]
 80035d8:	681b      	ldr	r3, [r3, #0]
 80035da:	695b      	ldr	r3, [r3, #20]
 80035dc:	633b      	str	r3, [r7, #48]	; 0x30
 80035de:	687b      	ldr	r3, [r7, #4]
 80035e0:	681b      	ldr	r3, [r3, #0]
 80035e2:	699b      	ldr	r3, [r3, #24]
 80035e4:	633b      	str	r3, [r7, #48]	; 0x30
 80035e6:	6b3b      	ldr	r3, [r7, #48]	; 0x30
 80035e8:	e160      	b.n	80038ac <I2C_Master_ADDR+0x316>
 80035ea:	687b      	ldr	r3, [r7, #4]
 80035ec:	6d1b      	ldr	r3, [r3, #80]	; 0x50
 80035ee:	2b00      	cmp	r3, #0
 80035f0:	d11d      	bne.n	800362e <I2C_Master_ADDR+0x98>
 80035f2:	687b      	ldr	r3, [r7, #4]
 80035f4:	691b      	ldr	r3, [r3, #16]
 80035f6:	f5b3 4f40 	cmp.w	r3, #49152	; 0xc000
 80035fa:	d118      	bne.n	800362e <I2C_Master_ADDR+0x98>
 80035fc:	2300      	movs	r3, #0
 80035fe:	62fb      	str	r3, [r7, #44]	; 0x2c
 8003600:	687b      	ldr	r3, [r7, #4]
 8003602:	681b      	ldr	r3, [r3, #0]
 8003604:	695b      	ldr	r3, [r3, #20]
 8003606:	62fb      	str	r3, [r7, #44]	; 0x2c
 8003608:	687b      	ldr	r3, [r7, #4]
 800360a:	681b      	ldr	r3, [r3, #0]
 800360c:	699b      	ldr	r3, [r3, #24]
 800360e:	62fb      	str	r3, [r7, #44]	; 0x2c
 8003610:	6afb      	ldr	r3, [r7, #44]	; 0x2c
 8003612:	687b      	ldr	r3, [r7, #4]
 8003614:	681b      	ldr	r3, [r3, #0]
 8003616:	681a      	ldr	r2, [r3, #0]
 8003618:	687b      	ldr	r3, [r7, #4]
 800361a:	681b      	ldr	r3, [r3, #0]
 800361c:	f442 7280 	orr.w	r2, r2, #256	; 0x100
 8003620:	601a      	str	r2, [r3, #0]
 8003622:	687b      	ldr	r3, [r7, #4]
 8003624:	6d1b      	ldr	r3, [r3, #80]	; 0x50
 8003626:	1c5a      	adds	r2, r3, #1
 8003628:	687b      	ldr	r3, [r7, #4]
 800362a:	651a      	str	r2, [r3, #80]	; 0x50
 800362c:	e13e      	b.n	80038ac <I2C_Master_ADDR+0x316>
 800362e:	687b      	ldr	r3, [r7, #4]
 8003630:	8d5b      	ldrh	r3, [r3, #42]	; 0x2a
 8003632:	b29b      	uxth	r3, r3
 8003634:	2b00      	cmp	r3, #0
 8003636:	d113      	bne.n	8003660 <I2C_Master_ADDR+0xca>
 8003638:	2300      	movs	r3, #0
 800363a:	62bb      	str	r3, [r7, #40]	; 0x28
 800363c:	687b      	ldr	r3, [r7, #4]
 800363e:	681b      	ldr	r3, [r3, #0]
 8003640:	695b      	ldr	r3, [r3, #20]
 8003642:	62bb      	str	r3, [r7, #40]	; 0x28
 8003644:	687b      	ldr	r3, [r7, #4]
 8003646:	681b      	ldr	r3, [r3, #0]
 8003648:	699b      	ldr	r3, [r3, #24]
 800364a:	62bb      	str	r3, [r7, #40]	; 0x28
 800364c:	6abb      	ldr	r3, [r7, #40]	; 0x28
 800364e:	687b      	ldr	r3, [r7, #4]
 8003650:	681b      	ldr	r3, [r3, #0]
 8003652:	681a      	ldr	r2, [r3, #0]
 8003654:	687b      	ldr	r3, [r7, #4]
 8003656:	681b      	ldr	r3, [r3, #0]
 8003658:	f442 7200 	orr.w	r2, r2, #512	; 0x200
 800365c:	601a      	str	r2, [r3, #0]
 800365e:	e115      	b.n	800388c <I2C_Master_ADDR+0x2f6>
 8003660:	687b      	ldr	r3, [r7, #4]
 8003662:	8d5b      	ldrh	r3, [r3, #42]	; 0x2a
 8003664:	b29b      	uxth	r3, r3
 8003666:	2b01      	cmp	r3, #1
 8003668:	f040 808a 	bne.w	8003780 <I2C_Master_ADDR+0x1ea>
 800366c:	6bbb      	ldr	r3, [r7, #56]	; 0x38
 800366e:	f513 3f80 	cmn.w	r3, #65536	; 0x10000
 8003672:	d137      	bne.n	80036e4 <I2C_Master_ADDR+0x14e>
 8003674:	687b      	ldr	r3, [r7, #4]
 8003676:	681b      	ldr	r3, [r3, #0]
 8003678:	681a      	ldr	r2, [r3, #0]
 800367a:	687b      	ldr	r3, [r7, #4]
 800367c:	681b      	ldr	r3, [r3, #0]
 800367e:	f422 6280 	bic.w	r2, r2, #1024	; 0x400
 8003682:	601a      	str	r2, [r3, #0]
 8003684:	687b      	ldr	r3, [r7, #4]
 8003686:	681b      	ldr	r3, [r3, #0]
 8003688:	685b      	ldr	r3, [r3, #4]
 800368a:	f403 6300 	and.w	r3, r3, #2048	; 0x800
 800368e:	f5b3 6f00 	cmp.w	r3, #2048	; 0x800
 8003692:	d113      	bne.n	80036bc <I2C_Master_ADDR+0x126>
 8003694:	687b      	ldr	r3, [r7, #4]
 8003696:	681b      	ldr	r3, [r3, #0]
 8003698:	681a      	ldr	r2, [r3, #0]
 800369a:	687b      	ldr	r3, [r7, #4]
 800369c:	681b      	ldr	r3, [r3, #0]
 800369e:	f422 6280 	bic.w	r2, r2, #1024	; 0x400
 80036a2:	601a      	str	r2, [r3, #0]
 80036a4:	2300      	movs	r3, #0
 80036a6:	627b      	str	r3, [r7, #36]	; 0x24
 80036a8:	687b      	ldr	r3, [r7, #4]
 80036aa:	681b      	ldr	r3, [r3, #0]
 80036ac:	695b      	ldr	r3, [r3, #20]
 80036ae:	627b      	str	r3, [r7, #36]	; 0x24
 80036b0:	687b      	ldr	r3, [r7, #4]
 80036b2:	681b      	ldr	r3, [r3, #0]
 80036b4:	699b      	ldr	r3, [r3, #24]
 80036b6:	627b      	str	r3, [r7, #36]	; 0x24
 80036b8:	6a7b      	ldr	r3, [r7, #36]	; 0x24
 80036ba:	e0e7      	b.n	800388c <I2C_Master_ADDR+0x2f6>
 80036bc:	2300      	movs	r3, #0
 80036be:	623b      	str	r3, [r7, #32]
 80036c0:	687b      	ldr	r3, [r7, #4]
 80036c2:	681b      	ldr	r3, [r3, #0]
 80036c4:	695b      	ldr	r3, [r3, #20]
 80036c6:	623b      	str	r3, [r7, #32]
 80036c8:	687b      	ldr	r3, [r7, #4]
 80036ca:	681b      	ldr	r3, [r3, #0]
 80036cc:	699b      	ldr	r3, [r3, #24]
 80036ce:	623b      	str	r3, [r7, #32]
 80036d0:	6a3b      	ldr	r3, [r7, #32]
 80036d2:	687b      	ldr	r3, [r7, #4]
 80036d4:	681b      	ldr	r3, [r3, #0]
 80036d6:	681a      	ldr	r2, [r3, #0]
 80036d8:	687b      	ldr	r3, [r7, #4]
 80036da:	681b      	ldr	r3, [r3, #0]
 80036dc:	f442 7200 	orr.w	r2, r2, #512	; 0x200
 80036e0:	601a      	str	r2, [r3, #0]
 80036e2:	e0d3      	b.n	800388c <I2C_Master_ADDR+0x2f6>
 80036e4:	6bbb      	ldr	r3, [r7, #56]	; 0x38
 80036e6:	2b08      	cmp	r3, #8
 80036e8:	d02e      	beq.n	8003748 <I2C_Master_ADDR+0x1b2>
 80036ea:	6bbb      	ldr	r3, [r7, #56]	; 0x38
 80036ec:	2b20      	cmp	r3, #32
 80036ee:	d02b      	beq.n	8003748 <I2C_Master_ADDR+0x1b2>
 80036f0:	6b7b      	ldr	r3, [r7, #52]	; 0x34
 80036f2:	2b12      	cmp	r3, #18
 80036f4:	d102      	bne.n	80036fc <I2C_Master_ADDR+0x166>
 80036f6:	6bbb      	ldr	r3, [r7, #56]	; 0x38
 80036f8:	2b01      	cmp	r3, #1
 80036fa:	d125      	bne.n	8003748 <I2C_Master_ADDR+0x1b2>
 80036fc:	6bbb      	ldr	r3, [r7, #56]	; 0x38
 80036fe:	2b04      	cmp	r3, #4
 8003700:	d00e      	beq.n	8003720 <I2C_Master_ADDR+0x18a>
 8003702:	6bbb      	ldr	r3, [r7, #56]	; 0x38
 8003704:	2b02      	cmp	r3, #2
 8003706:	d00b      	beq.n	8003720 <I2C_Master_ADDR+0x18a>
 8003708:	6bbb      	ldr	r3, [r7, #56]	; 0x38
 800370a:	2b10      	cmp	r3, #16
 800370c:	d008      	beq.n	8003720 <I2C_Master_ADDR+0x18a>
 800370e:	687b      	ldr	r3, [r7, #4]
 8003710:	681b      	ldr	r3, [r3, #0]
 8003712:	681a      	ldr	r2, [r3, #0]
 8003714:	687b      	ldr	r3, [r7, #4]
 8003716:	681b      	ldr	r3, [r3, #0]
 8003718:	f422 6280 	bic.w	r2, r2, #1024	; 0x400
 800371c:	601a      	str	r2, [r3, #0]
 800371e:	e007      	b.n	8003730 <I2C_Master_ADDR+0x19a>
 8003720:	687b      	ldr	r3, [r7, #4]
 8003722:	681b      	ldr	r3, [r3, #0]
 8003724:	681a      	ldr	r2, [r3, #0]
 8003726:	687b      	ldr	r3, [r7, #4]
 8003728:	681b      	ldr	r3, [r3, #0]
 800372a:	f442 6280 	orr.w	r2, r2, #1024	; 0x400
 800372e:	601a      	str	r2, [r3, #0]
 8003730:	2300      	movs	r3, #0
 8003732:	61fb      	str	r3, [r7, #28]
 8003734:	687b      	ldr	r3, [r7, #4]
 8003736:	681b      	ldr	r3, [r3, #0]
 8003738:	695b      	ldr	r3, [r3, #20]
 800373a:	61fb      	str	r3, [r7, #28]
 800373c:	687b      	ldr	r3, [r7, #4]
 800373e:	681b      	ldr	r3, [r3, #0]
 8003740:	699b      	ldr	r3, [r3, #24]
 8003742:	61fb      	str	r3, [r7, #28]
 8003744:	69fb      	ldr	r3, [r7, #28]
 8003746:	e0a1      	b.n	800388c <I2C_Master_ADDR+0x2f6>
 8003748:	687b      	ldr	r3, [r7, #4]
 800374a:	681b      	ldr	r3, [r3, #0]
 800374c:	681a      	ldr	r2, [r3, #0]
 800374e:	687b      	ldr	r3, [r7, #4]
 8003750:	681b      	ldr	r3, [r3, #0]
 8003752:	f422 6280 	bic.w	r2, r2, #1024	; 0x400
 8003756:	601a      	str	r2, [r3, #0]
 8003758:	2300      	movs	r3, #0
 800375a:	61bb      	str	r3, [r7, #24]
 800375c:	687b      	ldr	r3, [r7, #4]
 800375e:	681b      	ldr	r3, [r3, #0]
 8003760:	695b      	ldr	r3, [r3, #20]
 8003762:	61bb      	str	r3, [r7, #24]
 8003764:	687b      	ldr	r3, [r7, #4]
 8003766:	681b      	ldr	r3, [r3, #0]
 8003768:	699b      	ldr	r3, [r3, #24]
 800376a:	61bb      	str	r3, [r7, #24]
 800376c:	69bb      	ldr	r3, [r7, #24]
 800376e:	687b      	ldr	r3, [r7, #4]
 8003770:	681b      	ldr	r3, [r3, #0]
 8003772:	681a      	ldr	r2, [r3, #0]
 8003774:	687b      	ldr	r3, [r7, #4]
 8003776:	681b      	ldr	r3, [r3, #0]
 8003778:	f442 7200 	orr.w	r2, r2, #512	; 0x200
 800377c:	601a      	str	r2, [r3, #0]
 800377e:	e085      	b.n	800388c <I2C_Master_ADDR+0x2f6>
 8003780:	687b      	ldr	r3, [r7, #4]
 8003782:	8d5b      	ldrh	r3, [r3, #42]	; 0x2a
 8003784:	b29b      	uxth	r3, r3
 8003786:	2b02      	cmp	r3, #2
 8003788:	d14d      	bne.n	8003826 <I2C_Master_ADDR+0x290>
 800378a:	6bbb      	ldr	r3, [r7, #56]	; 0x38
 800378c:	2b04      	cmp	r3, #4
 800378e:	d016      	beq.n	80037be <I2C_Master_ADDR+0x228>
 8003790:	6bbb      	ldr	r3, [r7, #56]	; 0x38
 8003792:	2b02      	cmp	r3, #2
 8003794:	d013      	beq.n	80037be <I2C_Master_ADDR+0x228>
 8003796:	6bbb      	ldr	r3, [r7, #56]	; 0x38
 8003798:	2b10      	cmp	r3, #16
 800379a:	d010      	beq.n	80037be <I2C_Master_ADDR+0x228>
 800379c:	687b      	ldr	r3, [r7, #4]
 800379e:	681b      	ldr	r3, [r3, #0]
 80037a0:	681a      	ldr	r2, [r3, #0]
 80037a2:	687b      	ldr	r3, [r7, #4]
 80037a4:	681b      	ldr	r3, [r3, #0]
 80037a6:	f422 6280 	bic.w	r2, r2, #1024	; 0x400
 80037aa:	601a      	str	r2, [r3, #0]
 80037ac:	687b      	ldr	r3, [r7, #4]
 80037ae:	681b      	ldr	r3, [r3, #0]
 80037b0:	681a      	ldr	r2, [r3, #0]
 80037b2:	687b      	ldr	r3, [r7, #4]
 80037b4:	681b      	ldr	r3, [r3, #0]
 80037b6:	f442 6200 	orr.w	r2, r2, #2048	; 0x800
 80037ba:	601a      	str	r2, [r3, #0]
 80037bc:	e007      	b.n	80037ce <I2C_Master_ADDR+0x238>
 80037be:	687b      	ldr	r3, [r7, #4]
 80037c0:	681b      	ldr	r3, [r3, #0]
 80037c2:	681a      	ldr	r2, [r3, #0]
 80037c4:	687b      	ldr	r3, [r7, #4]
 80037c6:	681b      	ldr	r3, [r3, #0]
 80037c8:	f442 6280 	orr.w	r2, r2, #1024	; 0x400
 80037cc:	601a      	str	r2, [r3, #0]
 80037ce:	687b      	ldr	r3, [r7, #4]
 80037d0:	681b      	ldr	r3, [r3, #0]
 80037d2:	685b      	ldr	r3, [r3, #4]
 80037d4:	f403 6300 	and.w	r3, r3, #2048	; 0x800
 80037d8:	f5b3 6f00 	cmp.w	r3, #2048	; 0x800
 80037dc:	d117      	bne.n	800380e <I2C_Master_ADDR+0x278>
 80037de:	6bbb      	ldr	r3, [r7, #56]	; 0x38
 80037e0:	f513 3f80 	cmn.w	r3, #65536	; 0x10000
 80037e4:	d00b      	beq.n	80037fe <I2C_Master_ADDR+0x268>
 80037e6:	6bbb      	ldr	r3, [r7, #56]	; 0x38
 80037e8:	2b01      	cmp	r3, #1
 80037ea:	d008      	beq.n	80037fe <I2C_Master_ADDR+0x268>
 80037ec:	6bbb      	ldr	r3, [r7, #56]	; 0x38
 80037ee:	2b08      	cmp	r3, #8
 80037f0:	d005      	beq.n	80037fe <I2C_Master_ADDR+0x268>
 80037f2:	6bbb      	ldr	r3, [r7, #56]	; 0x38
 80037f4:	2b10      	cmp	r3, #16
 80037f6:	d002      	beq.n	80037fe <I2C_Master_ADDR+0x268>
 80037f8:	6bbb      	ldr	r3, [r7, #56]	; 0x38
 80037fa:	2b20      	cmp	r3, #32
 80037fc:	d107      	bne.n	800380e <I2C_Master_ADDR+0x278>
 80037fe:	687b      	ldr	r3, [r7, #4]
 8003800:	681b      	ldr	r3, [r3, #0]
 8003802:	685a      	ldr	r2, [r3, #4]
 8003804:	687b      	ldr	r3, [r7, #4]
 8003806:	681b      	ldr	r3, [r3, #0]
 8003808:	f442 5280 	orr.w	r2, r2, #4096	; 0x1000
 800380c:	605a      	str	r2, [r3, #4]
 800380e:	2300      	movs	r3, #0
 8003810:	617b      	str	r3, [r7, #20]
 8003812:	687b      	ldr	r3, [r7, #4]
 8003814:	681b      	ldr	r3, [r3, #0]
 8003816:	695b      	ldr	r3, [r3, #20]
 8003818:	617b      	str	r3, [r7, #20]
 800381a:	687b      	ldr	r3, [r7, #4]
 800381c:	681b      	ldr	r3, [r3, #0]
 800381e:	699b      	ldr	r3, [r3, #24]
 8003820:	617b      	str	r3, [r7, #20]
 8003822:	697b      	ldr	r3, [r7, #20]
 8003824:	e032      	b.n	800388c <I2C_Master_ADDR+0x2f6>
 8003826:	687b      	ldr	r3, [r7, #4]
 8003828:	681b      	ldr	r3, [r3, #0]
 800382a:	681a      	ldr	r2, [r3, #0]
 800382c:	687b      	ldr	r3, [r7, #4]
 800382e:	681b      	ldr	r3, [r3, #0]
 8003830:	f442 6280 	orr.w	r2, r2, #1024	; 0x400
 8003834:	601a      	str	r2, [r3, #0]
 8003836:	687b      	ldr	r3, [r7, #4]
 8003838:	681b      	ldr	r3, [r3, #0]
 800383a:	685b      	ldr	r3, [r3, #4]
 800383c:	f403 6300 	and.w	r3, r3, #2048	; 0x800
 8003840:	f5b3 6f00 	cmp.w	r3, #2048	; 0x800
 8003844:	d117      	bne.n	8003876 <I2C_Master_ADDR+0x2e0>
 8003846:	6bbb      	ldr	r3, [r7, #56]	; 0x38
 8003848:	f513 3f80 	cmn.w	r3, #65536	; 0x10000
 800384c:	d00b      	beq.n	8003866 <I2C_Master_ADDR+0x2d0>
 800384e:	6bbb      	ldr	r3, [r7, #56]	; 0x38
 8003850:	2b01      	cmp	r3, #1
 8003852:	d008      	beq.n	8003866 <I2C_Master_ADDR+0x2d0>
 8003854:	6bbb      	ldr	r3, [r7, #56]	; 0x38
 8003856:	2b08      	cmp	r3, #8
 8003858:	d005      	beq.n	8003866 <I2C_Master_ADDR+0x2d0>
 800385a:	6bbb      	ldr	r3, [r7, #56]	; 0x38
 800385c:	2b10      	cmp	r3, #16
 800385e:	d002      	beq.n	8003866 <I2C_Master_ADDR+0x2d0>
 8003860:	6bbb      	ldr	r3, [r7, #56]	; 0x38
 8003862:	2b20      	cmp	r3, #32
 8003864:	d107      	bne.n	8003876 <I2C_Master_ADDR+0x2e0>
 8003866:	687b      	ldr	r3, [r7, #4]
 8003868:	681b      	ldr	r3, [r3, #0]
 800386a:	685a      	ldr	r2, [r3, #4]
 800386c:	687b      	ldr	r3, [r7, #4]
 800386e:	681b      	ldr	r3, [r3, #0]
 8003870:	f442 5280 	orr.w	r2, r2, #4096	; 0x1000
 8003874:	605a      	str	r2, [r3, #4]
 8003876:	2300      	movs	r3, #0
 8003878:	613b      	str	r3, [r7, #16]
 800387a:	687b      	ldr	r3, [r7, #4]
 800387c:	681b      	ldr	r3, [r3, #0]
 800387e:	695b      	ldr	r3, [r3, #20]
 8003880:	613b      	str	r3, [r7, #16]
 8003882:	687b      	ldr	r3, [r7, #4]
 8003884:	681b      	ldr	r3, [r3, #0]
 8003886:	699b      	ldr	r3, [r3, #24]
 8003888:	613b      	str	r3, [r7, #16]
 800388a:	693b      	ldr	r3, [r7, #16]
 800388c:	687b      	ldr	r3, [r7, #4]
 800388e:	2200      	movs	r2, #0
 8003890:	651a      	str	r2, [r3, #80]	; 0x50
 8003892:	e00b      	b.n	80038ac <I2C_Master_ADDR+0x316>
 8003894:	2300      	movs	r3, #0
 8003896:	60fb      	str	r3, [r7, #12]
 8003898:	687b      	ldr	r3, [r7, #4]
 800389a:	681b      	ldr	r3, [r3, #0]
 800389c:	695b      	ldr	r3, [r3, #20]
 800389e:	60fb      	str	r3, [r7, #12]
 80038a0:	687b      	ldr	r3, [r7, #4]
 80038a2:	681b      	ldr	r3, [r3, #0]
 80038a4:	699b      	ldr	r3, [r3, #24]
 80038a6:	60fb      	str	r3, [r7, #12]
 80038a8:	68fb      	ldr	r3, [r7, #12]
 80038aa:	e7ff      	b.n	80038ac <I2C_Master_ADDR+0x316>
 80038ac:	bf00      	nop
 80038ae:	3744      	adds	r7, #68	; 0x44
 80038b0:	46bd      	mov	sp, r7
 80038b2:	f85d 7b04 	ldr.w	r7, [sp], #4
 80038b6:	4770      	bx	lr

080038b8 <I2C_SlaveTransmit_TXE>:
 80038b8:	b580      	push	{r7, lr}
 80038ba:	b084      	sub	sp, #16
 80038bc:	af00      	add	r7, sp, #0
 80038be:	6078      	str	r0, [r7, #4]
 80038c0:	687b      	ldr	r3, [r7, #4]
 80038c2:	f893 303d 	ldrb.w	r3, [r3, #61]	; 0x3d
 80038c6:	73fb      	strb	r3, [r7, #15]
 80038c8:	687b      	ldr	r3, [r7, #4]
 80038ca:	8d5b      	ldrh	r3, [r3, #42]	; 0x2a
 80038cc:	b29b      	uxth	r3, r3
 80038ce:	2b00      	cmp	r3, #0
 80038d0:	d02b      	beq.n	800392a <I2C_SlaveTransmit_TXE+0x72>
 80038d2:	687b      	ldr	r3, [r7, #4]
 80038d4:	6a5b      	ldr	r3, [r3, #36]	; 0x24
 80038d6:	781a      	ldrb	r2, [r3, #0]
 80038d8:	687b      	ldr	r3, [r7, #4]
 80038da:	681b      	ldr	r3, [r3, #0]
 80038dc:	611a      	str	r2, [r3, #16]
 80038de:	687b      	ldr	r3, [r7, #4]
 80038e0:	6a5b      	ldr	r3, [r3, #36]	; 0x24
 80038e2:	1c5a      	adds	r2, r3, #1
 80038e4:	687b      	ldr	r3, [r7, #4]
 80038e6:	625a      	str	r2, [r3, #36]	; 0x24
 80038e8:	687b      	ldr	r3, [r7, #4]
 80038ea:	8d5b      	ldrh	r3, [r3, #42]	; 0x2a
 80038ec:	b29b      	uxth	r3, r3
 80038ee:	3b01      	subs	r3, #1
 80038f0:	b29a      	uxth	r2, r3
 80038f2:	687b      	ldr	r3, [r7, #4]
 80038f4:	855a      	strh	r2, [r3, #42]	; 0x2a
 80038f6:	687b      	ldr	r3, [r7, #4]
 80038f8:	8d5b      	ldrh	r3, [r3, #42]	; 0x2a
 80038fa:	b29b      	uxth	r3, r3
 80038fc:	2b00      	cmp	r3, #0
 80038fe:	d114      	bne.n	800392a <I2C_SlaveTransmit_TXE+0x72>
 8003900:	7bfb      	ldrb	r3, [r7, #15]
 8003902:	2b29      	cmp	r3, #41	; 0x29
 8003904:	d111      	bne.n	800392a <I2C_SlaveTransmit_TXE+0x72>
 8003906:	687b      	ldr	r3, [r7, #4]
 8003908:	681b      	ldr	r3, [r3, #0]
 800390a:	685a      	ldr	r2, [r3, #4]
 800390c:	687b      	ldr	r3, [r7, #4]
 800390e:	681b      	ldr	r3, [r3, #0]
 8003910:	f422 6280 	bic.w	r2, r2, #1024	; 0x400
 8003914:	605a      	str	r2, [r3, #4]
 8003916:	687b      	ldr	r3, [r7, #4]
 8003918:	2221      	movs	r2, #33	; 0x21
 800391a:	631a      	str	r2, [r3, #48]	; 0x30
 800391c:	687b      	ldr	r3, [r7, #4]
 800391e:	2228      	movs	r2, #40	; 0x28
 8003920:	f883 203d 	strb.w	r2, [r3, #61]	; 0x3d
 8003924:	6878      	ldr	r0, [r7, #4]
 8003926:	f7ff f9f1 	bl	8002d0c <HAL_I2C_SlaveTxCpltCallback>
 800392a:	bf00      	nop
 800392c:	3710      	adds	r7, #16
 800392e:	46bd      	mov	sp, r7
 8003930:	bd80      	pop	{r7, pc}

08003932 <I2C_SlaveTransmit_BTF>:
 8003932:	b480      	push	{r7}
 8003934:	b083      	sub	sp, #12
 8003936:	af00      	add	r7, sp, #0
 8003938:	6078      	str	r0, [r7, #4]
 800393a:	687b      	ldr	r3, [r7, #4]
 800393c:	8d5b      	ldrh	r3, [r3, #42]	; 0x2a
 800393e:	b29b      	uxth	r3, r3
 8003940:	2b00      	cmp	r3, #0
 8003942:	d011      	beq.n	8003968 <I2C_SlaveTransmit_BTF+0x36>
 8003944:	687b      	ldr	r3, [r7, #4]
 8003946:	6a5b      	ldr	r3, [r3, #36]	; 0x24
 8003948:	781a      	ldrb	r2, [r3, #0]
 800394a:	687b      	ldr	r3, [r7, #4]
 800394c:	681b      	ldr	r3, [r3, #0]
 800394e:	611a      	str	r2, [r3, #16]
 8003950:	687b      	ldr	r3, [r7, #4]
 8003952:	6a5b      	ldr	r3, [r3, #36]	; 0x24
 8003954:	1c5a      	adds	r2, r3, #1
 8003956:	687b      	ldr	r3, [r7, #4]
 8003958:	625a      	str	r2, [r3, #36]	; 0x24
 800395a:	687b      	ldr	r3, [r7, #4]
 800395c:	8d5b      	ldrh	r3, [r3, #42]	; 0x2a
 800395e:	b29b      	uxth	r3, r3
 8003960:	3b01      	subs	r3, #1
 8003962:	b29a      	uxth	r2, r3
 8003964:	687b      	ldr	r3, [r7, #4]
 8003966:	855a      	strh	r2, [r3, #42]	; 0x2a
 8003968:	bf00      	nop
 800396a:	370c      	adds	r7, #12
 800396c:	46bd      	mov	sp, r7
 800396e:	f85d 7b04 	ldr.w	r7, [sp], #4
 8003972:	4770      	bx	lr

08003974 <I2C_SlaveReceive_RXNE>:
 8003974:	b580      	push	{r7, lr}
 8003976:	b084      	sub	sp, #16
 8003978:	af00      	add	r7, sp, #0
 800397a:	6078      	str	r0, [r7, #4]
 800397c:	687b      	ldr	r3, [r7, #4]
 800397e:	f893 303d 	ldrb.w	r3, [r3, #61]	; 0x3d
 8003982:	73fb      	strb	r3, [r7, #15]
 8003984:	687b      	ldr	r3, [r7, #4]
 8003986:	8d5b      	ldrh	r3, [r3, #42]	; 0x2a
 8003988:	b29b      	uxth	r3, r3
 800398a:	2b00      	cmp	r3, #0
 800398c:	d02c      	beq.n	80039e8 <I2C_SlaveReceive_RXNE+0x74>
 800398e:	687b      	ldr	r3, [r7, #4]
 8003990:	681b      	ldr	r3, [r3, #0]
 8003992:	691a      	ldr	r2, [r3, #16]
 8003994:	687b      	ldr	r3, [r7, #4]
 8003996:	6a5b      	ldr	r3, [r3, #36]	; 0x24
 8003998:	b2d2      	uxtb	r2, r2
 800399a:	701a      	strb	r2, [r3, #0]
 800399c:	687b      	ldr	r3, [r7, #4]
 800399e:	6a5b      	ldr	r3, [r3, #36]	; 0x24
 80039a0:	1c5a      	adds	r2, r3, #1
 80039a2:	687b      	ldr	r3, [r7, #4]
 80039a4:	625a      	str	r2, [r3, #36]	; 0x24
 80039a6:	687b      	ldr	r3, [r7, #4]
 80039a8:	8d5b      	ldrh	r3, [r3, #42]	; 0x2a
 80039aa:	b29b      	uxth	r3, r3
 80039ac:	3b01      	subs	r3, #1
 80039ae:	b29a      	uxth	r2, r3
 80039b0:	687b      	ldr	r3, [r7, #4]
 80039b2:	855a      	strh	r2, [r3, #42]	; 0x2a
 80039b4:	687b      	ldr	r3, [r7, #4]
 80039b6:	8d5b      	ldrh	r3, [r3, #42]	; 0x2a
 80039b8:	b29b      	uxth	r3, r3
 80039ba:	2b00      	cmp	r3, #0
 80039bc:	d114      	bne.n	80039e8 <I2C_SlaveReceive_RXNE+0x74>
 80039be:	7bfb      	ldrb	r3, [r7, #15]
 80039c0:	2b2a      	cmp	r3, #42	; 0x2a
 80039c2:	d111      	bne.n	80039e8 <I2C_SlaveReceive_RXNE+0x74>
 80039c4:	687b      	ldr	r3, [r7, #4]
 80039c6:	681b      	ldr	r3, [r3, #0]
 80039c8:	685a      	ldr	r2, [r3, #4]
 80039ca:	687b      	ldr	r3, [r7, #4]
 80039cc:	681b      	ldr	r3, [r3, #0]
 80039ce:	f422 6280 	bic.w	r2, r2, #1024	; 0x400
 80039d2:	605a      	str	r2, [r3, #4]
 80039d4:	687b      	ldr	r3, [r7, #4]
 80039d6:	2222      	movs	r2, #34	; 0x22
 80039d8:	631a      	str	r2, [r3, #48]	; 0x30
 80039da:	687b      	ldr	r3, [r7, #4]
 80039dc:	2228      	movs	r2, #40	; 0x28
 80039de:	f883 203d 	strb.w	r2, [r3, #61]	; 0x3d
 80039e2:	6878      	ldr	r0, [r7, #4]
 80039e4:	f7ff f99c 	bl	8002d20 <HAL_I2C_SlaveRxCpltCallback>
 80039e8:	bf00      	nop
 80039ea:	3710      	adds	r7, #16
 80039ec:	46bd      	mov	sp, r7
 80039ee:	bd80      	pop	{r7, pc}

080039f0 <I2C_SlaveReceive_BTF>:
 80039f0:	b480      	push	{r7}
 80039f2:	b083      	sub	sp, #12
 80039f4:	af00      	add	r7, sp, #0
 80039f6:	6078      	str	r0, [r7, #4]
 80039f8:	687b      	ldr	r3, [r7, #4]
 80039fa:	8d5b      	ldrh	r3, [r3, #42]	; 0x2a
 80039fc:	b29b      	uxth	r3, r3
 80039fe:	2b00      	cmp	r3, #0
 8003a00:	d012      	beq.n	8003a28 <I2C_SlaveReceive_BTF+0x38>
 8003a02:	687b      	ldr	r3, [r7, #4]
 8003a04:	681b      	ldr	r3, [r3, #0]
 8003a06:	691a      	ldr	r2, [r3, #16]
 8003a08:	687b      	ldr	r3, [r7, #4]
 8003a0a:	6a5b      	ldr	r3, [r3, #36]	; 0x24
 8003a0c:	b2d2      	uxtb	r2, r2
 8003a0e:	701a      	strb	r2, [r3, #0]
 8003a10:	687b      	ldr	r3, [r7, #4]
 8003a12:	6a5b      	ldr	r3, [r3, #36]	; 0x24
 8003a14:	1c5a      	adds	r2, r3, #1
 8003a16:	687b      	ldr	r3, [r7, #4]
 8003a18:	625a      	str	r2, [r3, #36]	; 0x24
 8003a1a:	687b      	ldr	r3, [r7, #4]
 8003a1c:	8d5b      	ldrh	r3, [r3, #42]	; 0x2a
 8003a1e:	b29b      	uxth	r3, r3
 8003a20:	3b01      	subs	r3, #1
 8003a22:	b29a      	uxth	r2, r3
 8003a24:	687b      	ldr	r3, [r7, #4]
 8003a26:	855a      	strh	r2, [r3, #42]	; 0x2a
 8003a28:	bf00      	nop
 8003a2a:	370c      	adds	r7, #12
 8003a2c:	46bd      	mov	sp, r7
 8003a2e:	f85d 7b04 	ldr.w	r7, [sp], #4
 8003a32:	4770      	bx	lr

08003a34 <I2C_Slave_ADDR>:
 8003a34:	b580      	push	{r7, lr}
 8003a36:	b084      	sub	sp, #16
 8003a38:	af00      	add	r7, sp, #0
 8003a3a:	6078      	str	r0, [r7, #4]
 8003a3c:	6039      	str	r1, [r7, #0]
 8003a3e:	2300      	movs	r3, #0
 8003a40:	73fb      	strb	r3, [r7, #15]
 8003a42:	687b      	ldr	r3, [r7, #4]
 8003a44:	f893 303d 	ldrb.w	r3, [r3, #61]	; 0x3d
 8003a48:	b2db      	uxtb	r3, r3
 8003a4a:	f003 0328 	and.w	r3, r3, #40	; 0x28
 8003a4e:	2b28      	cmp	r3, #40	; 0x28
 8003a50:	d127      	bne.n	8003aa2 <I2C_Slave_ADDR+0x6e>
 8003a52:	687b      	ldr	r3, [r7, #4]
 8003a54:	681b      	ldr	r3, [r3, #0]
 8003a56:	685a      	ldr	r2, [r3, #4]
 8003a58:	687b      	ldr	r3, [r7, #4]
 8003a5a:	681b      	ldr	r3, [r3, #0]
 8003a5c:	f422 6280 	bic.w	r2, r2, #1024	; 0x400
 8003a60:	605a      	str	r2, [r3, #4]
 8003a62:	683b      	ldr	r3, [r7, #0]
 8003a64:	089b      	lsrs	r3, r3, #2
 8003a66:	f003 0301 	and.w	r3, r3, #1
 8003a6a:	2b00      	cmp	r3, #0
 8003a6c:	d101      	bne.n	8003a72 <I2C_Slave_ADDR+0x3e>
 8003a6e:	2301      	movs	r3, #1
 8003a70:	73fb      	strb	r3, [r7, #15]
 8003a72:	683b      	ldr	r3, [r7, #0]
 8003a74:	09db      	lsrs	r3, r3, #7
 8003a76:	f003 0301 	and.w	r3, r3, #1
 8003a7a:	2b00      	cmp	r3, #0
 8003a7c:	d103      	bne.n	8003a86 <I2C_Slave_ADDR+0x52>
 8003a7e:	687b      	ldr	r3, [r7, #4]
 8003a80:	68db      	ldr	r3, [r3, #12]
 8003a82:	81bb      	strh	r3, [r7, #12]
 8003a84:	e002      	b.n	8003a8c <I2C_Slave_ADDR+0x58>
 8003a86:	687b      	ldr	r3, [r7, #4]
 8003a88:	699b      	ldr	r3, [r3, #24]
 8003a8a:	81bb      	strh	r3, [r7, #12]
 8003a8c:	687b      	ldr	r3, [r7, #4]
 8003a8e:	2200      	movs	r2, #0
 8003a90:	f883 203c 	strb.w	r2, [r3, #60]	; 0x3c
 8003a94:	89ba      	ldrh	r2, [r7, #12]
 8003a96:	7bfb      	ldrb	r3, [r7, #15]
 8003a98:	4619      	mov	r1, r3
 8003a9a:	6878      	ldr	r0, [r7, #4]
 8003a9c:	f7ff f94a 	bl	8002d34 <HAL_I2C_AddrCallback>
 8003aa0:	e00e      	b.n	8003ac0 <I2C_Slave_ADDR+0x8c>
 8003aa2:	2300      	movs	r3, #0
 8003aa4:	60bb      	str	r3, [r7, #8]
 8003aa6:	687b      	ldr	r3, [r7, #4]
 8003aa8:	681b      	ldr	r3, [r3, #0]
 8003aaa:	695b      	ldr	r3, [r3, #20]
 8003aac:	60bb      	str	r3, [r7, #8]
 8003aae:	687b      	ldr	r3, [r7, #4]
 8003ab0:	681b      	ldr	r3, [r3, #0]
 8003ab2:	699b      	ldr	r3, [r3, #24]
 8003ab4:	60bb      	str	r3, [r7, #8]
 8003ab6:	68bb      	ldr	r3, [r7, #8]
 8003ab8:	687b      	ldr	r3, [r7, #4]
 8003aba:	2200      	movs	r2, #0
 8003abc:	f883 203c 	strb.w	r2, [r3, #60]	; 0x3c
 8003ac0:	bf00      	nop
 8003ac2:	3710      	adds	r7, #16
 8003ac4:	46bd      	mov	sp, r7
 8003ac6:	bd80      	pop	{r7, pc}

08003ac8 <I2C_Slave_STOPF>:
 8003ac8:	b580      	push	{r7, lr}
 8003aca:	b084      	sub	sp, #16
 8003acc:	af00      	add	r7, sp, #0
 8003ace:	6078      	str	r0, [r7, #4]
 8003ad0:	687b      	ldr	r3, [r7, #4]
 8003ad2:	f893 303d 	ldrb.w	r3, [r3, #61]	; 0x3d
 8003ad6:	73fb      	strb	r3, [r7, #15]
 8003ad8:	687b      	ldr	r3, [r7, #4]
 8003ada:	681b      	ldr	r3, [r3, #0]
 8003adc:	685a      	ldr	r2, [r3, #4]
 8003ade:	687b      	ldr	r3, [r7, #4]
 8003ae0:	681b      	ldr	r3, [r3, #0]
 8003ae2:	f422 62e0 	bic.w	r2, r2, #1792	; 0x700
 8003ae6:	605a      	str	r2, [r3, #4]
 8003ae8:	2300      	movs	r3, #0
 8003aea:	60bb      	str	r3, [r7, #8]
 8003aec:	687b      	ldr	r3, [r7, #4]
 8003aee:	681b      	ldr	r3, [r3, #0]
 8003af0:	695b      	ldr	r3, [r3, #20]
 8003af2:	60bb      	str	r3, [r7, #8]
 8003af4:	687b      	ldr	r3, [r7, #4]
 8003af6:	681b      	ldr	r3, [r3, #0]
 8003af8:	681a      	ldr	r2, [r3, #0]
 8003afa:	687b      	ldr	r3, [r7, #4]
 8003afc:	681b      	ldr	r3, [r3, #0]
 8003afe:	f042 0201 	orr.w	r2, r2, #1
 8003b02:	601a      	str	r2, [r3, #0]
 8003b04:	68bb      	ldr	r3, [r7, #8]
 8003b06:	687b      	ldr	r3, [r7, #4]
 8003b08:	681b      	ldr	r3, [r3, #0]
 8003b0a:	681a      	ldr	r2, [r3, #0]
 8003b0c:	687b      	ldr	r3, [r7, #4]
 8003b0e:	681b      	ldr	r3, [r3, #0]
 8003b10:	f422 6280 	bic.w	r2, r2, #1024	; 0x400
 8003b14:	601a      	str	r2, [r3, #0]
 8003b16:	687b      	ldr	r3, [r7, #4]
 8003b18:	681b      	ldr	r3, [r3, #0]
 8003b1a:	685b      	ldr	r3, [r3, #4]
 8003b1c:	f403 6300 	and.w	r3, r3, #2048	; 0x800
 8003b20:	f5b3 6f00 	cmp.w	r3, #2048	; 0x800
 8003b24:	d172      	bne.n	8003c0c <I2C_Slave_STOPF+0x144>
 8003b26:	7bfb      	ldrb	r3, [r7, #15]
 8003b28:	2b22      	cmp	r3, #34	; 0x22
 8003b2a:	d002      	beq.n	8003b32 <I2C_Slave_STOPF+0x6a>
 8003b2c:	7bfb      	ldrb	r3, [r7, #15]
 8003b2e:	2b2a      	cmp	r3, #42	; 0x2a
 8003b30:	d135      	bne.n	8003b9e <I2C_Slave_STOPF+0xd6>
 8003b32:	687b      	ldr	r3, [r7, #4]
 8003b34:	6b9b      	ldr	r3, [r3, #56]	; 0x38
 8003b36:	681b      	ldr	r3, [r3, #0]
 8003b38:	685b      	ldr	r3, [r3, #4]
 8003b3a:	b29a      	uxth	r2, r3
 8003b3c:	687b      	ldr	r3, [r7, #4]
 8003b3e:	855a      	strh	r2, [r3, #42]	; 0x2a
 8003b40:	687b      	ldr	r3, [r7, #4]
 8003b42:	8d5b      	ldrh	r3, [r3, #42]	; 0x2a
 8003b44:	b29b      	uxth	r3, r3
 8003b46:	2b00      	cmp	r3, #0
 8003b48:	d005      	beq.n	8003b56 <I2C_Slave_STOPF+0x8e>
 8003b4a:	687b      	ldr	r3, [r7, #4]
 8003b4c:	6c1b      	ldr	r3, [r3, #64]	; 0x40
 8003b4e:	f043 0204 	orr.w	r2, r3, #4
 8003b52:	687b      	ldr	r3, [r7, #4]
 8003b54:	641a      	str	r2, [r3, #64]	; 0x40
 8003b56:	687b      	ldr	r3, [r7, #4]
 8003b58:	681b      	ldr	r3, [r3, #0]
 8003b5a:	685a      	ldr	r2, [r3, #4]
 8003b5c:	687b      	ldr	r3, [r7, #4]
 8003b5e:	681b      	ldr	r3, [r3, #0]
 8003b60:	f422 6200 	bic.w	r2, r2, #2048	; 0x800
 8003b64:	605a      	str	r2, [r3, #4]
 8003b66:	687b      	ldr	r3, [r7, #4]
 8003b68:	6b9b      	ldr	r3, [r3, #56]	; 0x38
 8003b6a:	4618      	mov	r0, r3
 8003b6c:	f7fd ff58 	bl	8001a20 <HAL_DMA_GetState>
 8003b70:	4603      	mov	r3, r0
 8003b72:	2b01      	cmp	r3, #1
 8003b74:	d049      	beq.n	8003c0a <I2C_Slave_STOPF+0x142>
 8003b76:	687b      	ldr	r3, [r7, #4]
 8003b78:	6b9b      	ldr	r3, [r3, #56]	; 0x38
 8003b7a:	4a69      	ldr	r2, [pc, #420]	; (8003d20 <I2C_Slave_STOPF+0x258>)
 8003b7c:	651a      	str	r2, [r3, #80]	; 0x50
 8003b7e:	687b      	ldr	r3, [r7, #4]
 8003b80:	6b9b      	ldr	r3, [r3, #56]	; 0x38
 8003b82:	4618      	mov	r0, r3
 8003b84:	f7fd ff2a 	bl	80019dc <HAL_DMA_Abort_IT>
 8003b88:	4603      	mov	r3, r0
 8003b8a:	2b00      	cmp	r3, #0
 8003b8c:	d03d      	beq.n	8003c0a <I2C_Slave_STOPF+0x142>
 8003b8e:	687b      	ldr	r3, [r7, #4]
 8003b90:	6b9b      	ldr	r3, [r3, #56]	; 0x38
 8003b92:	6d1b      	ldr	r3, [r3, #80]	; 0x50
 8003b94:	687a      	ldr	r2, [r7, #4]
 8003b96:	6b92      	ldr	r2, [r2, #56]	; 0x38
 8003b98:	4610      	mov	r0, r2
 8003b9a:	4798      	blx	r3
 8003b9c:	e035      	b.n	8003c0a <I2C_Slave_STOPF+0x142>
 8003b9e:	687b      	ldr	r3, [r7, #4]
 8003ba0:	6b5b      	ldr	r3, [r3, #52]	; 0x34
 8003ba2:	681b      	ldr	r3, [r3, #0]
 8003ba4:	685b      	ldr	r3, [r3, #4]
 8003ba6:	b29a      	uxth	r2, r3
 8003ba8:	687b      	ldr	r3, [r7, #4]
 8003baa:	855a      	strh	r2, [r3, #42]	; 0x2a
 8003bac:	687b      	ldr	r3, [r7, #4]
 8003bae:	8d5b      	ldrh	r3, [r3, #42]	; 0x2a
 8003bb0:	b29b      	uxth	r3, r3
 8003bb2:	2b00      	cmp	r3, #0
 8003bb4:	d005      	beq.n	8003bc2 <I2C_Slave_STOPF+0xfa>
 8003bb6:	687b      	ldr	r3, [r7, #4]
 8003bb8:	6c1b      	ldr	r3, [r3, #64]	; 0x40
 8003bba:	f043 0204 	orr.w	r2, r3, #4
 8003bbe:	687b      	ldr	r3, [r7, #4]
 8003bc0:	641a      	str	r2, [r3, #64]	; 0x40
 8003bc2:	687b      	ldr	r3, [r7, #4]
 8003bc4:	681b      	ldr	r3, [r3, #0]
 8003bc6:	685a      	ldr	r2, [r3, #4]
 8003bc8:	687b      	ldr	r3, [r7, #4]
 8003bca:	681b      	ldr	r3, [r3, #0]
 8003bcc:	f422 6200 	bic.w	r2, r2, #2048	; 0x800
 8003bd0:	605a      	str	r2, [r3, #4]
 8003bd2:	687b      	ldr	r3, [r7, #4]
 8003bd4:	6b5b      	ldr	r3, [r3, #52]	; 0x34
 8003bd6:	4618      	mov	r0, r3
 8003bd8:	f7fd ff22 	bl	8001a20 <HAL_DMA_GetState>
 8003bdc:	4603      	mov	r3, r0
 8003bde:	2b01      	cmp	r3, #1
 8003be0:	d014      	beq.n	8003c0c <I2C_Slave_STOPF+0x144>
 8003be2:	687b      	ldr	r3, [r7, #4]
 8003be4:	6b5b      	ldr	r3, [r3, #52]	; 0x34
 8003be6:	4a4e      	ldr	r2, [pc, #312]	; (8003d20 <I2C_Slave_STOPF+0x258>)
 8003be8:	651a      	str	r2, [r3, #80]	; 0x50
 8003bea:	687b      	ldr	r3, [r7, #4]
 8003bec:	6b5b      	ldr	r3, [r3, #52]	; 0x34
 8003bee:	4618      	mov	r0, r3
 8003bf0:	f7fd fef4 	bl	80019dc <HAL_DMA_Abort_IT>
 8003bf4:	4603      	mov	r3, r0
 8003bf6:	2b00      	cmp	r3, #0
 8003bf8:	d008      	beq.n	8003c0c <I2C_Slave_STOPF+0x144>
 8003bfa:	687b      	ldr	r3, [r7, #4]
 8003bfc:	6b5b      	ldr	r3, [r3, #52]	; 0x34
 8003bfe:	6d1b      	ldr	r3, [r3, #80]	; 0x50
 8003c00:	687a      	ldr	r2, [r7, #4]
 8003c02:	6b52      	ldr	r2, [r2, #52]	; 0x34
 8003c04:	4610      	mov	r0, r2
 8003c06:	4798      	blx	r3
 8003c08:	e000      	b.n	8003c0c <I2C_Slave_STOPF+0x144>
 8003c0a:	bf00      	nop
 8003c0c:	687b      	ldr	r3, [r7, #4]
 8003c0e:	8d5b      	ldrh	r3, [r3, #42]	; 0x2a
 8003c10:	b29b      	uxth	r3, r3
 8003c12:	2b00      	cmp	r3, #0
 8003c14:	d03e      	beq.n	8003c94 <I2C_Slave_STOPF+0x1cc>
 8003c16:	687b      	ldr	r3, [r7, #4]
 8003c18:	681b      	ldr	r3, [r3, #0]
 8003c1a:	695b      	ldr	r3, [r3, #20]
 8003c1c:	f003 0304 	and.w	r3, r3, #4
 8003c20:	2b04      	cmp	r3, #4
 8003c22:	d112      	bne.n	8003c4a <I2C_Slave_STOPF+0x182>
 8003c24:	687b      	ldr	r3, [r7, #4]
 8003c26:	681b      	ldr	r3, [r3, #0]
 8003c28:	691a      	ldr	r2, [r3, #16]
 8003c2a:	687b      	ldr	r3, [r7, #4]
 8003c2c:	6a5b      	ldr	r3, [r3, #36]	; 0x24
 8003c2e:	b2d2      	uxtb	r2, r2
 8003c30:	701a      	strb	r2, [r3, #0]
 8003c32:	687b      	ldr	r3, [r7, #4]
 8003c34:	6a5b      	ldr	r3, [r3, #36]	; 0x24
 8003c36:	1c5a      	adds	r2, r3, #1
 8003c38:	687b      	ldr	r3, [r7, #4]
 8003c3a:	625a      	str	r2, [r3, #36]	; 0x24
 8003c3c:	687b      	ldr	r3, [r7, #4]
 8003c3e:	8d5b      	ldrh	r3, [r3, #42]	; 0x2a
 8003c40:	b29b      	uxth	r3, r3
 8003c42:	3b01      	subs	r3, #1
 8003c44:	b29a      	uxth	r2, r3
 8003c46:	687b      	ldr	r3, [r7, #4]
 8003c48:	855a      	strh	r2, [r3, #42]	; 0x2a
 8003c4a:	687b      	ldr	r3, [r7, #4]
 8003c4c:	681b      	ldr	r3, [r3, #0]
 8003c4e:	695b      	ldr	r3, [r3, #20]
 8003c50:	f003 0340 	and.w	r3, r3, #64	; 0x40
 8003c54:	2b40      	cmp	r3, #64	; 0x40
 8003c56:	d112      	bne.n	8003c7e <I2C_Slave_STOPF+0x1b6>
 8003c58:	687b      	ldr	r3, [r7, #4]
 8003c5a:	681b      	ldr	r3, [r3, #0]
 8003c5c:	691a      	ldr	r2, [r3, #16]
 8003c5e:	687b      	ldr	r3, [r7, #4]
 8003c60:	6a5b      	ldr	r3, [r3, #36]	; 0x24
 8003c62:	b2d2      	uxtb	r2, r2
 8003c64:	701a      	strb	r2, [r3, #0]
 8003c66:	687b      	ldr	r3, [r7, #4]
 8003c68:	6a5b      	ldr	r3, [r3, #36]	; 0x24
 8003c6a:	1c5a      	adds	r2, r3, #1
 8003c6c:	687b      	ldr	r3, [r7, #4]
 8003c6e:	625a      	str	r2, [r3, #36]	; 0x24
 8003c70:	687b      	ldr	r3, [r7, #4]
 8003c72:	8d5b      	ldrh	r3, [r3, #42]	; 0x2a
 8003c74:	b29b      	uxth	r3, r3
 8003c76:	3b01      	subs	r3, #1
 8003c78:	b29a      	uxth	r2, r3
 8003c7a:	687b      	ldr	r3, [r7, #4]
 8003c7c:	855a      	strh	r2, [r3, #42]	; 0x2a
 8003c7e:	687b      	ldr	r3, [r7, #4]
 8003c80:	8d5b      	ldrh	r3, [r3, #42]	; 0x2a
 8003c82:	b29b      	uxth	r3, r3
 8003c84:	2b00      	cmp	r3, #0
 8003c86:	d005      	beq.n	8003c94 <I2C_Slave_STOPF+0x1cc>
 8003c88:	687b      	ldr	r3, [r7, #4]
 8003c8a:	6c1b      	ldr	r3, [r3, #64]	; 0x40
 8003c8c:	f043 0204 	orr.w	r2, r3, #4
 8003c90:	687b      	ldr	r3, [r7, #4]
 8003c92:	641a      	str	r2, [r3, #64]	; 0x40
 8003c94:	687b      	ldr	r3, [r7, #4]
 8003c96:	6c1b      	ldr	r3, [r3, #64]	; 0x40
 8003c98:	2b00      	cmp	r3, #0
 8003c9a:	d003      	beq.n	8003ca4 <I2C_Slave_STOPF+0x1dc>
 8003c9c:	6878      	ldr	r0, [r7, #4]
 8003c9e:	f000 f8b3 	bl	8003e08 <I2C_ITError>
 8003ca2:	e039      	b.n	8003d18 <I2C_Slave_STOPF+0x250>
 8003ca4:	7bfb      	ldrb	r3, [r7, #15]
 8003ca6:	2b2a      	cmp	r3, #42	; 0x2a
 8003ca8:	d109      	bne.n	8003cbe <I2C_Slave_STOPF+0x1f6>
 8003caa:	687b      	ldr	r3, [r7, #4]
 8003cac:	2200      	movs	r2, #0
 8003cae:	631a      	str	r2, [r3, #48]	; 0x30
 8003cb0:	687b      	ldr	r3, [r7, #4]
 8003cb2:	2228      	movs	r2, #40	; 0x28
 8003cb4:	f883 203d 	strb.w	r2, [r3, #61]	; 0x3d
 8003cb8:	6878      	ldr	r0, [r7, #4]
 8003cba:	f7ff f831 	bl	8002d20 <HAL_I2C_SlaveRxCpltCallback>
 8003cbe:	687b      	ldr	r3, [r7, #4]
 8003cc0:	f893 303d 	ldrb.w	r3, [r3, #61]	; 0x3d
 8003cc4:	b2db      	uxtb	r3, r3
 8003cc6:	2b28      	cmp	r3, #40	; 0x28
 8003cc8:	d111      	bne.n	8003cee <I2C_Slave_STOPF+0x226>
 8003cca:	687b      	ldr	r3, [r7, #4]
 8003ccc:	4a15      	ldr	r2, [pc, #84]	; (8003d24 <I2C_Slave_STOPF+0x25c>)
 8003cce:	62da      	str	r2, [r3, #44]	; 0x2c
 8003cd0:	687b      	ldr	r3, [r7, #4]
 8003cd2:	2200      	movs	r2, #0
 8003cd4:	631a      	str	r2, [r3, #48]	; 0x30
 8003cd6:	687b      	ldr	r3, [r7, #4]
 8003cd8:	2220      	movs	r2, #32
 8003cda:	f883 203d 	strb.w	r2, [r3, #61]	; 0x3d
 8003cde:	687b      	ldr	r3, [r7, #4]
 8003ce0:	2200      	movs	r2, #0
 8003ce2:	f883 203e 	strb.w	r2, [r3, #62]	; 0x3e
 8003ce6:	6878      	ldr	r0, [r7, #4]
 8003ce8:	f7ff f832 	bl	8002d50 <HAL_I2C_ListenCpltCallback>
 8003cec:	e014      	b.n	8003d18 <I2C_Slave_STOPF+0x250>
 8003cee:	687b      	ldr	r3, [r7, #4]
 8003cf0:	6b1b      	ldr	r3, [r3, #48]	; 0x30
 8003cf2:	2b22      	cmp	r3, #34	; 0x22
 8003cf4:	d002      	beq.n	8003cfc <I2C_Slave_STOPF+0x234>
 8003cf6:	7bfb      	ldrb	r3, [r7, #15]
 8003cf8:	2b22      	cmp	r3, #34	; 0x22
 8003cfa:	d10d      	bne.n	8003d18 <I2C_Slave_STOPF+0x250>
 8003cfc:	687b      	ldr	r3, [r7, #4]
 8003cfe:	2200      	movs	r2, #0
 8003d00:	631a      	str	r2, [r3, #48]	; 0x30
 8003d02:	687b      	ldr	r3, [r7, #4]
 8003d04:	2220      	movs	r2, #32
 8003d06:	f883 203d 	strb.w	r2, [r3, #61]	; 0x3d
 8003d0a:	687b      	ldr	r3, [r7, #4]
 8003d0c:	2200      	movs	r2, #0
 8003d0e:	f883 203e 	strb.w	r2, [r3, #62]	; 0x3e
 8003d12:	6878      	ldr	r0, [r7, #4]
 8003d14:	f7ff f804 	bl	8002d20 <HAL_I2C_SlaveRxCpltCallback>
 8003d18:	bf00      	nop
 8003d1a:	3710      	adds	r7, #16
 8003d1c:	46bd      	mov	sp, r7
 8003d1e:	bd80      	pop	{r7, pc}
 8003d20:	08004439 	.word	0x08004439
 8003d24:	ffff0000 	.word	0xffff0000

08003d28 <I2C_Slave_AF>:
 8003d28:	b580      	push	{r7, lr}
 8003d2a:	b084      	sub	sp, #16
 8003d2c:	af00      	add	r7, sp, #0
 8003d2e:	6078      	str	r0, [r7, #4]
 8003d30:	687b      	ldr	r3, [r7, #4]
 8003d32:	f893 303d 	ldrb.w	r3, [r3, #61]	; 0x3d
 8003d36:	73fb      	strb	r3, [r7, #15]
 8003d38:	687b      	ldr	r3, [r7, #4]
 8003d3a:	6adb      	ldr	r3, [r3, #44]	; 0x2c
 8003d3c:	60bb      	str	r3, [r7, #8]
 8003d3e:	68bb      	ldr	r3, [r7, #8]
 8003d40:	2b08      	cmp	r3, #8
 8003d42:	d002      	beq.n	8003d4a <I2C_Slave_AF+0x22>
 8003d44:	68bb      	ldr	r3, [r7, #8]
 8003d46:	2b20      	cmp	r3, #32
 8003d48:	d129      	bne.n	8003d9e <I2C_Slave_AF+0x76>
 8003d4a:	7bfb      	ldrb	r3, [r7, #15]
 8003d4c:	2b28      	cmp	r3, #40	; 0x28
 8003d4e:	d126      	bne.n	8003d9e <I2C_Slave_AF+0x76>
 8003d50:	687b      	ldr	r3, [r7, #4]
 8003d52:	4a2c      	ldr	r2, [pc, #176]	; (8003e04 <I2C_Slave_AF+0xdc>)
 8003d54:	62da      	str	r2, [r3, #44]	; 0x2c
 8003d56:	687b      	ldr	r3, [r7, #4]
 8003d58:	681b      	ldr	r3, [r3, #0]
 8003d5a:	685a      	ldr	r2, [r3, #4]
 8003d5c:	687b      	ldr	r3, [r7, #4]
 8003d5e:	681b      	ldr	r3, [r3, #0]
 8003d60:	f422 62e0 	bic.w	r2, r2, #1792	; 0x700
 8003d64:	605a      	str	r2, [r3, #4]
 8003d66:	687b      	ldr	r3, [r7, #4]
 8003d68:	681b      	ldr	r3, [r3, #0]
 8003d6a:	f46f 6280 	mvn.w	r2, #1024	; 0x400
 8003d6e:	615a      	str	r2, [r3, #20]
 8003d70:	687b      	ldr	r3, [r7, #4]
 8003d72:	681b      	ldr	r3, [r3, #0]
 8003d74:	681a      	ldr	r2, [r3, #0]
 8003d76:	687b      	ldr	r3, [r7, #4]
 8003d78:	681b      	ldr	r3, [r3, #0]
 8003d7a:	f422 6280 	bic.w	r2, r2, #1024	; 0x400
 8003d7e:	601a      	str	r2, [r3, #0]
 8003d80:	687b      	ldr	r3, [r7, #4]
 8003d82:	2200      	movs	r2, #0
 8003d84:	631a      	str	r2, [r3, #48]	; 0x30
 8003d86:	687b      	ldr	r3, [r7, #4]
 8003d88:	2220      	movs	r2, #32
 8003d8a:	f883 203d 	strb.w	r2, [r3, #61]	; 0x3d
 8003d8e:	687b      	ldr	r3, [r7, #4]
 8003d90:	2200      	movs	r2, #0
 8003d92:	f883 203e 	strb.w	r2, [r3, #62]	; 0x3e
 8003d96:	6878      	ldr	r0, [r7, #4]
 8003d98:	f7fe ffda 	bl	8002d50 <HAL_I2C_ListenCpltCallback>
 8003d9c:	e02e      	b.n	8003dfc <I2C_Slave_AF+0xd4>
 8003d9e:	7bfb      	ldrb	r3, [r7, #15]
 8003da0:	2b21      	cmp	r3, #33	; 0x21
 8003da2:	d126      	bne.n	8003df2 <I2C_Slave_AF+0xca>
 8003da4:	687b      	ldr	r3, [r7, #4]
 8003da6:	4a17      	ldr	r2, [pc, #92]	; (8003e04 <I2C_Slave_AF+0xdc>)
 8003da8:	62da      	str	r2, [r3, #44]	; 0x2c
 8003daa:	687b      	ldr	r3, [r7, #4]
 8003dac:	2221      	movs	r2, #33	; 0x21
 8003dae:	631a      	str	r2, [r3, #48]	; 0x30
 8003db0:	687b      	ldr	r3, [r7, #4]
 8003db2:	2220      	movs	r2, #32
 8003db4:	f883 203d 	strb.w	r2, [r3, #61]	; 0x3d
 8003db8:	687b      	ldr	r3, [r7, #4]
 8003dba:	2200      	movs	r2, #0
 8003dbc:	f883 203e 	strb.w	r2, [r3, #62]	; 0x3e
 8003dc0:	687b      	ldr	r3, [r7, #4]
 8003dc2:	681b      	ldr	r3, [r3, #0]
 8003dc4:	685a      	ldr	r2, [r3, #4]
 8003dc6:	687b      	ldr	r3, [r7, #4]
 8003dc8:	681b      	ldr	r3, [r3, #0]
 8003dca:	f422 62e0 	bic.w	r2, r2, #1792	; 0x700
 8003dce:	605a      	str	r2, [r3, #4]
 8003dd0:	687b      	ldr	r3, [r7, #4]
 8003dd2:	681b      	ldr	r3, [r3, #0]
 8003dd4:	f46f 6280 	mvn.w	r2, #1024	; 0x400
 8003dd8:	615a      	str	r2, [r3, #20]
 8003dda:	687b      	ldr	r3, [r7, #4]
 8003ddc:	681b      	ldr	r3, [r3, #0]
 8003dde:	681a      	ldr	r2, [r3, #0]
 8003de0:	687b      	ldr	r3, [r7, #4]
 8003de2:	681b      	ldr	r3, [r3, #0]
 8003de4:	f422 6280 	bic.w	r2, r2, #1024	; 0x400
 8003de8:	601a      	str	r2, [r3, #0]
 8003dea:	6878      	ldr	r0, [r7, #4]
 8003dec:	f7fe ff8e 	bl	8002d0c <HAL_I2C_SlaveTxCpltCallback>
 8003df0:	e004      	b.n	8003dfc <I2C_Slave_AF+0xd4>
 8003df2:	687b      	ldr	r3, [r7, #4]
 8003df4:	681b      	ldr	r3, [r3, #0]
 8003df6:	f46f 6280 	mvn.w	r2, #1024	; 0x400
 8003dfa:	615a      	str	r2, [r3, #20]
 8003dfc:	bf00      	nop
 8003dfe:	3710      	adds	r7, #16
 8003e00:	46bd      	mov	sp, r7
 8003e02:	bd80      	pop	{r7, pc}
 8003e04:	ffff0000 	.word	0xffff0000

08003e08 <I2C_ITError>:
 8003e08:	b580      	push	{r7, lr}
 8003e0a:	b084      	sub	sp, #16
 8003e0c:	af00      	add	r7, sp, #0
 8003e0e:	6078      	str	r0, [r7, #4]
 8003e10:	687b      	ldr	r3, [r7, #4]
 8003e12:	f893 303d 	ldrb.w	r3, [r3, #61]	; 0x3d
 8003e16:	73fb      	strb	r3, [r7, #15]
 8003e18:	687b      	ldr	r3, [r7, #4]
 8003e1a:	f893 303e 	ldrb.w	r3, [r3, #62]	; 0x3e
 8003e1e:	73bb      	strb	r3, [r7, #14]
 8003e20:	7bbb      	ldrb	r3, [r7, #14]
 8003e22:	2b10      	cmp	r3, #16
 8003e24:	d002      	beq.n	8003e2c <I2C_ITError+0x24>
 8003e26:	7bbb      	ldrb	r3, [r7, #14]
 8003e28:	2b40      	cmp	r3, #64	; 0x40
 8003e2a:	d10a      	bne.n	8003e42 <I2C_ITError+0x3a>
 8003e2c:	7bfb      	ldrb	r3, [r7, #15]
 8003e2e:	2b22      	cmp	r3, #34	; 0x22
 8003e30:	d107      	bne.n	8003e42 <I2C_ITError+0x3a>
 8003e32:	687b      	ldr	r3, [r7, #4]
 8003e34:	681b      	ldr	r3, [r3, #0]
 8003e36:	681a      	ldr	r2, [r3, #0]
 8003e38:	687b      	ldr	r3, [r7, #4]
 8003e3a:	681b      	ldr	r3, [r3, #0]
 8003e3c:	f422 6200 	bic.w	r2, r2, #2048	; 0x800
 8003e40:	601a      	str	r2, [r3, #0]
 8003e42:	7bfb      	ldrb	r3, [r7, #15]
 8003e44:	f003 0328 	and.w	r3, r3, #40	; 0x28
 8003e48:	2b28      	cmp	r3, #40	; 0x28
 8003e4a:	d107      	bne.n	8003e5c <I2C_ITError+0x54>
 8003e4c:	687b      	ldr	r3, [r7, #4]
 8003e4e:	2200      	movs	r2, #0
 8003e50:	631a      	str	r2, [r3, #48]	; 0x30
 8003e52:	687b      	ldr	r3, [r7, #4]
 8003e54:	2228      	movs	r2, #40	; 0x28
 8003e56:	f883 203d 	strb.w	r2, [r3, #61]	; 0x3d
 8003e5a:	e015      	b.n	8003e88 <I2C_ITError+0x80>
 8003e5c:	687b      	ldr	r3, [r7, #4]
 8003e5e:	681b      	ldr	r3, [r3, #0]
 8003e60:	685b      	ldr	r3, [r3, #4]
 8003e62:	f403 6300 	and.w	r3, r3, #2048	; 0x800
 8003e66:	f5b3 6f00 	cmp.w	r3, #2048	; 0x800
 8003e6a:	d00a      	beq.n	8003e82 <I2C_ITError+0x7a>
 8003e6c:	7bfb      	ldrb	r3, [r7, #15]
 8003e6e:	2b60      	cmp	r3, #96	; 0x60
 8003e70:	d007      	beq.n	8003e82 <I2C_ITError+0x7a>
 8003e72:	687b      	ldr	r3, [r7, #4]
 8003e74:	2220      	movs	r2, #32
 8003e76:	f883 203d 	strb.w	r2, [r3, #61]	; 0x3d
 8003e7a:	687b      	ldr	r3, [r7, #4]
 8003e7c:	2200      	movs	r2, #0
 8003e7e:	f883 203e 	strb.w	r2, [r3, #62]	; 0x3e
 8003e82:	687b      	ldr	r3, [r7, #4]
 8003e84:	2200      	movs	r2, #0
 8003e86:	631a      	str	r2, [r3, #48]	; 0x30
 8003e88:	687b      	ldr	r3, [r7, #4]
 8003e8a:	681b      	ldr	r3, [r3, #0]
 8003e8c:	685b      	ldr	r3, [r3, #4]
 8003e8e:	f403 6300 	and.w	r3, r3, #2048	; 0x800
 8003e92:	f5b3 6f00 	cmp.w	r3, #2048	; 0x800
 8003e96:	d162      	bne.n	8003f5e <I2C_ITError+0x156>
 8003e98:	687b      	ldr	r3, [r7, #4]
 8003e9a:	681b      	ldr	r3, [r3, #0]
 8003e9c:	685a      	ldr	r2, [r3, #4]
 8003e9e:	687b      	ldr	r3, [r7, #4]
 8003ea0:	681b      	ldr	r3, [r3, #0]
 8003ea2:	f422 6200 	bic.w	r2, r2, #2048	; 0x800
 8003ea6:	605a      	str	r2, [r3, #4]
 8003ea8:	687b      	ldr	r3, [r7, #4]
 8003eaa:	6b5b      	ldr	r3, [r3, #52]	; 0x34
 8003eac:	f893 3035 	ldrb.w	r3, [r3, #53]	; 0x35
 8003eb0:	b2db      	uxtb	r3, r3
 8003eb2:	2b01      	cmp	r3, #1
 8003eb4:	d020      	beq.n	8003ef8 <I2C_ITError+0xf0>
 8003eb6:	687b      	ldr	r3, [r7, #4]
 8003eb8:	6b5b      	ldr	r3, [r3, #52]	; 0x34
 8003eba:	4a6a      	ldr	r2, [pc, #424]	; (8004064 <I2C_ITError+0x25c>)
 8003ebc:	651a      	str	r2, [r3, #80]	; 0x50
 8003ebe:	687b      	ldr	r3, [r7, #4]
 8003ec0:	6b5b      	ldr	r3, [r3, #52]	; 0x34
 8003ec2:	4618      	mov	r0, r3
 8003ec4:	f7fd fd8a 	bl	80019dc <HAL_DMA_Abort_IT>
 8003ec8:	4603      	mov	r3, r0
 8003eca:	2b00      	cmp	r3, #0
 8003ecc:	f000 8089 	beq.w	8003fe2 <I2C_ITError+0x1da>
 8003ed0:	687b      	ldr	r3, [r7, #4]
 8003ed2:	681b      	ldr	r3, [r3, #0]
 8003ed4:	681a      	ldr	r2, [r3, #0]
 8003ed6:	687b      	ldr	r3, [r7, #4]
 8003ed8:	681b      	ldr	r3, [r3, #0]
 8003eda:	f022 0201 	bic.w	r2, r2, #1
 8003ede:	601a      	str	r2, [r3, #0]
 8003ee0:	687b      	ldr	r3, [r7, #4]
 8003ee2:	2220      	movs	r2, #32
 8003ee4:	f883 203d 	strb.w	r2, [r3, #61]	; 0x3d
 8003ee8:	687b      	ldr	r3, [r7, #4]
 8003eea:	6b5b      	ldr	r3, [r3, #52]	; 0x34
 8003eec:	6d1b      	ldr	r3, [r3, #80]	; 0x50
 8003eee:	687a      	ldr	r2, [r7, #4]
 8003ef0:	6b52      	ldr	r2, [r2, #52]	; 0x34
 8003ef2:	4610      	mov	r0, r2
 8003ef4:	4798      	blx	r3
 8003ef6:	e074      	b.n	8003fe2 <I2C_ITError+0x1da>
 8003ef8:	687b      	ldr	r3, [r7, #4]
 8003efa:	6b9b      	ldr	r3, [r3, #56]	; 0x38
 8003efc:	4a59      	ldr	r2, [pc, #356]	; (8004064 <I2C_ITError+0x25c>)
 8003efe:	651a      	str	r2, [r3, #80]	; 0x50
 8003f00:	687b      	ldr	r3, [r7, #4]
 8003f02:	6b9b      	ldr	r3, [r3, #56]	; 0x38
 8003f04:	4618      	mov	r0, r3
 8003f06:	f7fd fd69 	bl	80019dc <HAL_DMA_Abort_IT>
 8003f0a:	4603      	mov	r3, r0
 8003f0c:	2b00      	cmp	r3, #0
 8003f0e:	d068      	beq.n	8003fe2 <I2C_ITError+0x1da>
 8003f10:	687b      	ldr	r3, [r7, #4]
 8003f12:	681b      	ldr	r3, [r3, #0]
 8003f14:	695b      	ldr	r3, [r3, #20]
 8003f16:	f003 0340 	and.w	r3, r3, #64	; 0x40
 8003f1a:	2b40      	cmp	r3, #64	; 0x40
 8003f1c:	d10b      	bne.n	8003f36 <I2C_ITError+0x12e>
 8003f1e:	687b      	ldr	r3, [r7, #4]
 8003f20:	681b      	ldr	r3, [r3, #0]
 8003f22:	691a      	ldr	r2, [r3, #16]
 8003f24:	687b      	ldr	r3, [r7, #4]
 8003f26:	6a5b      	ldr	r3, [r3, #36]	; 0x24
 8003f28:	b2d2      	uxtb	r2, r2
 8003f2a:	701a      	strb	r2, [r3, #0]
 8003f2c:	687b      	ldr	r3, [r7, #4]
 8003f2e:	6a5b      	ldr	r3, [r3, #36]	; 0x24
 8003f30:	1c5a      	adds	r2, r3, #1
 8003f32:	687b      	ldr	r3, [r7, #4]
 8003f34:	625a      	str	r2, [r3, #36]	; 0x24
 8003f36:	687b      	ldr	r3, [r7, #4]
 8003f38:	681b      	ldr	r3, [r3, #0]
 8003f3a:	681a      	ldr	r2, [r3, #0]
 8003f3c:	687b      	ldr	r3, [r7, #4]
 8003f3e:	681b      	ldr	r3, [r3, #0]
 8003f40:	f022 0201 	bic.w	r2, r2, #1
 8003f44:	601a      	str	r2, [r3, #0]
 8003f46:	687b      	ldr	r3, [r7, #4]
 8003f48:	2220      	movs	r2, #32
 8003f4a:	f883 203d 	strb.w	r2, [r3, #61]	; 0x3d
 8003f4e:	687b      	ldr	r3, [r7, #4]
 8003f50:	6b9b      	ldr	r3, [r3, #56]	; 0x38
 8003f52:	6d1b      	ldr	r3, [r3, #80]	; 0x50
 8003f54:	687a      	ldr	r2, [r7, #4]
 8003f56:	6b92      	ldr	r2, [r2, #56]	; 0x38
 8003f58:	4610      	mov	r0, r2
 8003f5a:	4798      	blx	r3
 8003f5c:	e041      	b.n	8003fe2 <I2C_ITError+0x1da>
 8003f5e:	687b      	ldr	r3, [r7, #4]
 8003f60:	f893 303d 	ldrb.w	r3, [r3, #61]	; 0x3d
 8003f64:	b2db      	uxtb	r3, r3
 8003f66:	2b60      	cmp	r3, #96	; 0x60
 8003f68:	d125      	bne.n	8003fb6 <I2C_ITError+0x1ae>
 8003f6a:	687b      	ldr	r3, [r7, #4]
 8003f6c:	2220      	movs	r2, #32
 8003f6e:	f883 203d 	strb.w	r2, [r3, #61]	; 0x3d
 8003f72:	687b      	ldr	r3, [r7, #4]
 8003f74:	2200      	movs	r2, #0
 8003f76:	641a      	str	r2, [r3, #64]	; 0x40
 8003f78:	687b      	ldr	r3, [r7, #4]
 8003f7a:	681b      	ldr	r3, [r3, #0]
 8003f7c:	695b      	ldr	r3, [r3, #20]
 8003f7e:	f003 0340 	and.w	r3, r3, #64	; 0x40
 8003f82:	2b40      	cmp	r3, #64	; 0x40
 8003f84:	d10b      	bne.n	8003f9e <I2C_ITError+0x196>
 8003f86:	687b      	ldr	r3, [r7, #4]
 8003f88:	681b      	ldr	r3, [r3, #0]
 8003f8a:	691a      	ldr	r2, [r3, #16]
 8003f8c:	687b      	ldr	r3, [r7, #4]
 8003f8e:	6a5b      	ldr	r3, [r3, #36]	; 0x24
 8003f90:	b2d2      	uxtb	r2, r2
 8003f92:	701a      	strb	r2, [r3, #0]
 8003f94:	687b      	ldr	r3, [r7, #4]
 8003f96:	6a5b      	ldr	r3, [r3, #36]	; 0x24
 8003f98:	1c5a      	adds	r2, r3, #1
 8003f9a:	687b      	ldr	r3, [r7, #4]
 8003f9c:	625a      	str	r2, [r3, #36]	; 0x24
 8003f9e:	687b      	ldr	r3, [r7, #4]
 8003fa0:	681b      	ldr	r3, [r3, #0]
 8003fa2:	681a      	ldr	r2, [r3, #0]
 8003fa4:	687b      	ldr	r3, [r7, #4]
 8003fa6:	681b      	ldr	r3, [r3, #0]
 8003fa8:	f022 0201 	bic.w	r2, r2, #1
 8003fac:	601a      	str	r2, [r3, #0]
 8003fae:	6878      	ldr	r0, [r7, #4]
 8003fb0:	f7fe fef6 	bl	8002da0 <HAL_I2C_AbortCpltCallback>
 8003fb4:	e015      	b.n	8003fe2 <I2C_ITError+0x1da>
 8003fb6:	687b      	ldr	r3, [r7, #4]
 8003fb8:	681b      	ldr	r3, [r3, #0]
 8003fba:	695b      	ldr	r3, [r3, #20]
 8003fbc:	f003 0340 	and.w	r3, r3, #64	; 0x40
 8003fc0:	2b40      	cmp	r3, #64	; 0x40
 8003fc2:	d10b      	bne.n	8003fdc <I2C_ITError+0x1d4>
 8003fc4:	687b      	ldr	r3, [r7, #4]
 8003fc6:	681b      	ldr	r3, [r3, #0]
 8003fc8:	691a      	ldr	r2, [r3, #16]
 8003fca:	687b      	ldr	r3, [r7, #4]
 8003fcc:	6a5b      	ldr	r3, [r3, #36]	; 0x24
 8003fce:	b2d2      	uxtb	r2, r2
 8003fd0:	701a      	strb	r2, [r3, #0]
 8003fd2:	687b      	ldr	r3, [r7, #4]
 8003fd4:	6a5b      	ldr	r3, [r3, #36]	; 0x24
 8003fd6:	1c5a      	adds	r2, r3, #1
 8003fd8:	687b      	ldr	r3, [r7, #4]
 8003fda:	625a      	str	r2, [r3, #36]	; 0x24
 8003fdc:	6878      	ldr	r0, [r7, #4]
 8003fde:	f7fe fed5 	bl	8002d8c <HAL_I2C_ErrorCallback>
 8003fe2:	687b      	ldr	r3, [r7, #4]
 8003fe4:	6c1b      	ldr	r3, [r3, #64]	; 0x40
 8003fe6:	60bb      	str	r3, [r7, #8]
 8003fe8:	68bb      	ldr	r3, [r7, #8]
 8003fea:	f003 0301 	and.w	r3, r3, #1
 8003fee:	2b00      	cmp	r3, #0
 8003ff0:	d10e      	bne.n	8004010 <I2C_ITError+0x208>
 8003ff2:	68bb      	ldr	r3, [r7, #8]
 8003ff4:	f003 0302 	and.w	r3, r3, #2
 8003ff8:	2b00      	cmp	r3, #0
 8003ffa:	d109      	bne.n	8004010 <I2C_ITError+0x208>
 8003ffc:	68bb      	ldr	r3, [r7, #8]
 8003ffe:	f003 0304 	and.w	r3, r3, #4
 8004002:	2b00      	cmp	r3, #0
 8004004:	d104      	bne.n	8004010 <I2C_ITError+0x208>
 8004006:	68bb      	ldr	r3, [r7, #8]
 8004008:	f003 0308 	and.w	r3, r3, #8
 800400c:	2b00      	cmp	r3, #0
 800400e:	d007      	beq.n	8004020 <I2C_ITError+0x218>
 8004010:	687b      	ldr	r3, [r7, #4]
 8004012:	681b      	ldr	r3, [r3, #0]
 8004014:	685a      	ldr	r2, [r3, #4]
 8004016:	687b      	ldr	r3, [r7, #4]
 8004018:	681b      	ldr	r3, [r3, #0]
 800401a:	f422 62e0 	bic.w	r2, r2, #1792	; 0x700
 800401e:	605a      	str	r2, [r3, #4]
 8004020:	687b      	ldr	r3, [r7, #4]
 8004022:	f893 303d 	ldrb.w	r3, [r3, #61]	; 0x3d
 8004026:	73fb      	strb	r3, [r7, #15]
 8004028:	687b      	ldr	r3, [r7, #4]
 800402a:	6c1b      	ldr	r3, [r3, #64]	; 0x40
 800402c:	f003 0304 	and.w	r3, r3, #4
 8004030:	2b04      	cmp	r3, #4
 8004032:	d113      	bne.n	800405c <I2C_ITError+0x254>
 8004034:	7bfb      	ldrb	r3, [r7, #15]
 8004036:	2b28      	cmp	r3, #40	; 0x28
 8004038:	d110      	bne.n	800405c <I2C_ITError+0x254>
 800403a:	687b      	ldr	r3, [r7, #4]
 800403c:	4a0a      	ldr	r2, [pc, #40]	; (8004068 <I2C_ITError+0x260>)
 800403e:	62da      	str	r2, [r3, #44]	; 0x2c
 8004040:	687b      	ldr	r3, [r7, #4]
 8004042:	2200      	movs	r2, #0
 8004044:	631a      	str	r2, [r3, #48]	; 0x30
 8004046:	687b      	ldr	r3, [r7, #4]
 8004048:	2220      	movs	r2, #32
 800404a:	f883 203d 	strb.w	r2, [r3, #61]	; 0x3d
 800404e:	687b      	ldr	r3, [r7, #4]
 8004050:	2200      	movs	r2, #0
 8004052:	f883 203e 	strb.w	r2, [r3, #62]	; 0x3e
 8004056:	6878      	ldr	r0, [r7, #4]
 8004058:	f7fe fe7a 	bl	8002d50 <HAL_I2C_ListenCpltCallback>
 800405c:	bf00      	nop
 800405e:	3710      	adds	r7, #16
 8004060:	46bd      	mov	sp, r7
 8004062:	bd80      	pop	{r7, pc}
 8004064:	08004439 	.word	0x08004439
 8004068:	ffff0000 	.word	0xffff0000

0800406c <I2C_MasterRequestWrite>:
 800406c:	b580      	push	{r7, lr}
 800406e:	b088      	sub	sp, #32
 8004070:	af02      	add	r7, sp, #8
 8004072:	60f8      	str	r0, [r7, #12]
 8004074:	607a      	str	r2, [r7, #4]
 8004076:	603b      	str	r3, [r7, #0]
 8004078:	460b      	mov	r3, r1
 800407a:	817b      	strh	r3, [r7, #10]
 800407c:	68fb      	ldr	r3, [r7, #12]
 800407e:	6adb      	ldr	r3, [r3, #44]	; 0x2c
 8004080:	617b      	str	r3, [r7, #20]
 8004082:	697b      	ldr	r3, [r7, #20]
 8004084:	2b08      	cmp	r3, #8
 8004086:	d006      	beq.n	8004096 <I2C_MasterRequestWrite+0x2a>
 8004088:	697b      	ldr	r3, [r7, #20]
 800408a:	2b01      	cmp	r3, #1
 800408c:	d003      	beq.n	8004096 <I2C_MasterRequestWrite+0x2a>
 800408e:	697b      	ldr	r3, [r7, #20]
 8004090:	f513 3f80 	cmn.w	r3, #65536	; 0x10000
 8004094:	d108      	bne.n	80040a8 <I2C_MasterRequestWrite+0x3c>
 8004096:	68fb      	ldr	r3, [r7, #12]
 8004098:	681b      	ldr	r3, [r3, #0]
 800409a:	681a      	ldr	r2, [r3, #0]
 800409c:	68fb      	ldr	r3, [r7, #12]
 800409e:	681b      	ldr	r3, [r3, #0]
 80040a0:	f442 7280 	orr.w	r2, r2, #256	; 0x100
 80040a4:	601a      	str	r2, [r3, #0]
 80040a6:	e00b      	b.n	80040c0 <I2C_MasterRequestWrite+0x54>
 80040a8:	68fb      	ldr	r3, [r7, #12]
 80040aa:	6b1b      	ldr	r3, [r3, #48]	; 0x30
 80040ac:	2b12      	cmp	r3, #18
 80040ae:	d107      	bne.n	80040c0 <I2C_MasterRequestWrite+0x54>
 80040b0:	68fb      	ldr	r3, [r7, #12]
 80040b2:	681b      	ldr	r3, [r3, #0]
 80040b4:	681a      	ldr	r2, [r3, #0]
 80040b6:	68fb      	ldr	r3, [r7, #12]
 80040b8:	681b      	ldr	r3, [r3, #0]
 80040ba:	f442 7280 	orr.w	r2, r2, #256	; 0x100
 80040be:	601a      	str	r2, [r3, #0]
 80040c0:	683b      	ldr	r3, [r7, #0]
 80040c2:	9300      	str	r3, [sp, #0]
 80040c4:	687b      	ldr	r3, [r7, #4]
 80040c6:	2200      	movs	r2, #0
 80040c8:	f04f 1101 	mov.w	r1, #65537	; 0x10001
 80040cc:	68f8      	ldr	r0, [r7, #12]
 80040ce:	f000 fa5b 	bl	8004588 <I2C_WaitOnFlagUntilTimeout>
 80040d2:	4603      	mov	r3, r0
 80040d4:	2b00      	cmp	r3, #0
 80040d6:	d00d      	beq.n	80040f4 <I2C_MasterRequestWrite+0x88>
 80040d8:	68fb      	ldr	r3, [r7, #12]
 80040da:	681b      	ldr	r3, [r3, #0]
 80040dc:	681b      	ldr	r3, [r3, #0]
 80040de:	f403 7380 	and.w	r3, r3, #256	; 0x100
 80040e2:	f5b3 7f80 	cmp.w	r3, #256	; 0x100
 80040e6:	d103      	bne.n	80040f0 <I2C_MasterRequestWrite+0x84>
 80040e8:	68fb      	ldr	r3, [r7, #12]
 80040ea:	f44f 7200 	mov.w	r2, #512	; 0x200
 80040ee:	641a      	str	r2, [r3, #64]	; 0x40
 80040f0:	2303      	movs	r3, #3
 80040f2:	e035      	b.n	8004160 <I2C_MasterRequestWrite+0xf4>
 80040f4:	68fb      	ldr	r3, [r7, #12]
 80040f6:	691b      	ldr	r3, [r3, #16]
 80040f8:	f5b3 4f80 	cmp.w	r3, #16384	; 0x4000
 80040fc:	d108      	bne.n	8004110 <I2C_MasterRequestWrite+0xa4>
 80040fe:	897b      	ldrh	r3, [r7, #10]
 8004100:	b2db      	uxtb	r3, r3
 8004102:	461a      	mov	r2, r3
 8004104:	68fb      	ldr	r3, [r7, #12]
 8004106:	681b      	ldr	r3, [r3, #0]
 8004108:	f002 02fe 	and.w	r2, r2, #254	; 0xfe
 800410c:	611a      	str	r2, [r3, #16]
 800410e:	e01b      	b.n	8004148 <I2C_MasterRequestWrite+0xdc>
 8004110:	897b      	ldrh	r3, [r7, #10]
 8004112:	11db      	asrs	r3, r3, #7
 8004114:	b2db      	uxtb	r3, r3
 8004116:	f003 0306 	and.w	r3, r3, #6
 800411a:	b2db      	uxtb	r3, r3
 800411c:	f063 030f 	orn	r3, r3, #15
 8004120:	b2da      	uxtb	r2, r3
 8004122:	68fb      	ldr	r3, [r7, #12]
 8004124:	681b      	ldr	r3, [r3, #0]
 8004126:	611a      	str	r2, [r3, #16]
 8004128:	683b      	ldr	r3, [r7, #0]
 800412a:	687a      	ldr	r2, [r7, #4]
 800412c:	490e      	ldr	r1, [pc, #56]	; (8004168 <I2C_MasterRequestWrite+0xfc>)
 800412e:	68f8      	ldr	r0, [r7, #12]
 8004130:	f000 fa81 	bl	8004636 <I2C_WaitOnMasterAddressFlagUntilTimeout>
 8004134:	4603      	mov	r3, r0
 8004136:	2b00      	cmp	r3, #0
 8004138:	d001      	beq.n	800413e <I2C_MasterRequestWrite+0xd2>
 800413a:	2301      	movs	r3, #1
 800413c:	e010      	b.n	8004160 <I2C_MasterRequestWrite+0xf4>
 800413e:	897b      	ldrh	r3, [r7, #10]
 8004140:	b2da      	uxtb	r2, r3
 8004142:	68fb      	ldr	r3, [r7, #12]
 8004144:	681b      	ldr	r3, [r3, #0]
 8004146:	611a      	str	r2, [r3, #16]
 8004148:	683b      	ldr	r3, [r7, #0]
 800414a:	687a      	ldr	r2, [r7, #4]
 800414c:	4907      	ldr	r1, [pc, #28]	; (800416c <I2C_MasterRequestWrite+0x100>)
 800414e:	68f8      	ldr	r0, [r7, #12]
 8004150:	f000 fa71 	bl	8004636 <I2C_WaitOnMasterAddressFlagUntilTimeout>
 8004154:	4603      	mov	r3, r0
 8004156:	2b00      	cmp	r3, #0
 8004158:	d001      	beq.n	800415e <I2C_MasterRequestWrite+0xf2>
 800415a:	2301      	movs	r3, #1
 800415c:	e000      	b.n	8004160 <I2C_MasterRequestWrite+0xf4>
 800415e:	2300      	movs	r3, #0
 8004160:	4618      	mov	r0, r3
 8004162:	3718      	adds	r7, #24
 8004164:	46bd      	mov	sp, r7
 8004166:	bd80      	pop	{r7, pc}
 8004168:	00010008 	.word	0x00010008
 800416c:	00010002 	.word	0x00010002

08004170 <I2C_MasterRequestRead>:
 8004170:	b580      	push	{r7, lr}
 8004172:	b088      	sub	sp, #32
 8004174:	af02      	add	r7, sp, #8
 8004176:	60f8      	str	r0, [r7, #12]
 8004178:	607a      	str	r2, [r7, #4]
 800417a:	603b      	str	r3, [r7, #0]
 800417c:	460b      	mov	r3, r1
 800417e:	817b      	strh	r3, [r7, #10]
 8004180:	68fb      	ldr	r3, [r7, #12]
 8004182:	6adb      	ldr	r3, [r3, #44]	; 0x2c
 8004184:	617b      	str	r3, [r7, #20]
 8004186:	68fb      	ldr	r3, [r7, #12]
 8004188:	681b      	ldr	r3, [r3, #0]
 800418a:	681a      	ldr	r2, [r3, #0]
 800418c:	68fb      	ldr	r3, [r7, #12]
 800418e:	681b      	ldr	r3, [r3, #0]
 8004190:	f442 6280 	orr.w	r2, r2, #1024	; 0x400
 8004194:	601a      	str	r2, [r3, #0]
 8004196:	697b      	ldr	r3, [r7, #20]
 8004198:	2b08      	cmp	r3, #8
 800419a:	d006      	beq.n	80041aa <I2C_MasterRequestRead+0x3a>
 800419c:	697b      	ldr	r3, [r7, #20]
 800419e:	2b01      	cmp	r3, #1
 80041a0:	d003      	beq.n	80041aa <I2C_MasterRequestRead+0x3a>
 80041a2:	697b      	ldr	r3, [r7, #20]
 80041a4:	f513 3f80 	cmn.w	r3, #65536	; 0x10000
 80041a8:	d108      	bne.n	80041bc <I2C_MasterRequestRead+0x4c>
 80041aa:	68fb      	ldr	r3, [r7, #12]
 80041ac:	681b      	ldr	r3, [r3, #0]
 80041ae:	681a      	ldr	r2, [r3, #0]
 80041b0:	68fb      	ldr	r3, [r7, #12]
 80041b2:	681b      	ldr	r3, [r3, #0]
 80041b4:	f442 7280 	orr.w	r2, r2, #256	; 0x100
 80041b8:	601a      	str	r2, [r3, #0]
 80041ba:	e00b      	b.n	80041d4 <I2C_MasterRequestRead+0x64>
 80041bc:	68fb      	ldr	r3, [r7, #12]
 80041be:	6b1b      	ldr	r3, [r3, #48]	; 0x30
 80041c0:	2b11      	cmp	r3, #17
 80041c2:	d107      	bne.n	80041d4 <I2C_MasterRequestRead+0x64>
 80041c4:	68fb      	ldr	r3, [r7, #12]
 80041c6:	681b      	ldr	r3, [r3, #0]
 80041c8:	681a      	ldr	r2, [r3, #0]
 80041ca:	68fb      	ldr	r3, [r7, #12]
 80041cc:	681b      	ldr	r3, [r3, #0]
 80041ce:	f442 7280 	orr.w	r2, r2, #256	; 0x100
 80041d2:	601a      	str	r2, [r3, #0]
 80041d4:	683b      	ldr	r3, [r7, #0]
 80041d6:	9300      	str	r3, [sp, #0]
 80041d8:	687b      	ldr	r3, [r7, #4]
 80041da:	2200      	movs	r2, #0
 80041dc:	f04f 1101 	mov.w	r1, #65537	; 0x10001
 80041e0:	68f8      	ldr	r0, [r7, #12]
 80041e2:	f000 f9d1 	bl	8004588 <I2C_WaitOnFlagUntilTimeout>
 80041e6:	4603      	mov	r3, r0
 80041e8:	2b00      	cmp	r3, #0
 80041ea:	d00d      	beq.n	8004208 <I2C_MasterRequestRead+0x98>
 80041ec:	68fb      	ldr	r3, [r7, #12]
 80041ee:	681b      	ldr	r3, [r3, #0]
 80041f0:	681b      	ldr	r3, [r3, #0]
 80041f2:	f403 7380 	and.w	r3, r3, #256	; 0x100
 80041f6:	f5b3 7f80 	cmp.w	r3, #256	; 0x100
 80041fa:	d103      	bne.n	8004204 <I2C_MasterRequestRead+0x94>
 80041fc:	68fb      	ldr	r3, [r7, #12]
 80041fe:	f44f 7200 	mov.w	r2, #512	; 0x200
 8004202:	641a      	str	r2, [r3, #64]	; 0x40
 8004204:	2303      	movs	r3, #3
 8004206:	e079      	b.n	80042fc <I2C_MasterRequestRead+0x18c>
 8004208:	68fb      	ldr	r3, [r7, #12]
 800420a:	691b      	ldr	r3, [r3, #16]
 800420c:	f5b3 4f80 	cmp.w	r3, #16384	; 0x4000
 8004210:	d108      	bne.n	8004224 <I2C_MasterRequestRead+0xb4>
 8004212:	897b      	ldrh	r3, [r7, #10]
 8004214:	b2db      	uxtb	r3, r3
 8004216:	f043 0301 	orr.w	r3, r3, #1
 800421a:	b2da      	uxtb	r2, r3
 800421c:	68fb      	ldr	r3, [r7, #12]
 800421e:	681b      	ldr	r3, [r3, #0]
 8004220:	611a      	str	r2, [r3, #16]
 8004222:	e05f      	b.n	80042e4 <I2C_MasterRequestRead+0x174>
 8004224:	897b      	ldrh	r3, [r7, #10]
 8004226:	11db      	asrs	r3, r3, #7
 8004228:	b2db      	uxtb	r3, r3
 800422a:	f003 0306 	and.w	r3, r3, #6
 800422e:	b2db      	uxtb	r3, r3
 8004230:	f063 030f 	orn	r3, r3, #15
 8004234:	b2da      	uxtb	r2, r3
 8004236:	68fb      	ldr	r3, [r7, #12]
 8004238:	681b      	ldr	r3, [r3, #0]
 800423a:	611a      	str	r2, [r3, #16]
 800423c:	683b      	ldr	r3, [r7, #0]
 800423e:	687a      	ldr	r2, [r7, #4]
 8004240:	4930      	ldr	r1, [pc, #192]	; (8004304 <I2C_MasterRequestRead+0x194>)
 8004242:	68f8      	ldr	r0, [r7, #12]
 8004244:	f000 f9f7 	bl	8004636 <I2C_WaitOnMasterAddressFlagUntilTimeout>
 8004248:	4603      	mov	r3, r0
 800424a:	2b00      	cmp	r3, #0
 800424c:	d001      	beq.n	8004252 <I2C_MasterRequestRead+0xe2>
 800424e:	2301      	movs	r3, #1
 8004250:	e054      	b.n	80042fc <I2C_MasterRequestRead+0x18c>
 8004252:	897b      	ldrh	r3, [r7, #10]
 8004254:	b2da      	uxtb	r2, r3
 8004256:	68fb      	ldr	r3, [r7, #12]
 8004258:	681b      	ldr	r3, [r3, #0]
 800425a:	611a      	str	r2, [r3, #16]
 800425c:	683b      	ldr	r3, [r7, #0]
 800425e:	687a      	ldr	r2, [r7, #4]
 8004260:	4929      	ldr	r1, [pc, #164]	; (8004308 <I2C_MasterRequestRead+0x198>)
 8004262:	68f8      	ldr	r0, [r7, #12]
 8004264:	f000 f9e7 	bl	8004636 <I2C_WaitOnMasterAddressFlagUntilTimeout>
 8004268:	4603      	mov	r3, r0
 800426a:	2b00      	cmp	r3, #0
 800426c:	d001      	beq.n	8004272 <I2C_MasterRequestRead+0x102>
 800426e:	2301      	movs	r3, #1
 8004270:	e044      	b.n	80042fc <I2C_MasterRequestRead+0x18c>
 8004272:	2300      	movs	r3, #0
 8004274:	613b      	str	r3, [r7, #16]
 8004276:	68fb      	ldr	r3, [r7, #12]
 8004278:	681b      	ldr	r3, [r3, #0]
 800427a:	695b      	ldr	r3, [r3, #20]
 800427c:	613b      	str	r3, [r7, #16]
 800427e:	68fb      	ldr	r3, [r7, #12]
 8004280:	681b      	ldr	r3, [r3, #0]
 8004282:	699b      	ldr	r3, [r3, #24]
 8004284:	613b      	str	r3, [r7, #16]
 8004286:	693b      	ldr	r3, [r7, #16]
 8004288:	68fb      	ldr	r3, [r7, #12]
 800428a:	681b      	ldr	r3, [r3, #0]
 800428c:	681a      	ldr	r2, [r3, #0]
 800428e:	68fb      	ldr	r3, [r7, #12]
 8004290:	681b      	ldr	r3, [r3, #0]
 8004292:	f442 7280 	orr.w	r2, r2, #256	; 0x100
 8004296:	601a      	str	r2, [r3, #0]
 8004298:	683b      	ldr	r3, [r7, #0]
 800429a:	9300      	str	r3, [sp, #0]
 800429c:	687b      	ldr	r3, [r7, #4]
 800429e:	2200      	movs	r2, #0
 80042a0:	f04f 1101 	mov.w	r1, #65537	; 0x10001
 80042a4:	68f8      	ldr	r0, [r7, #12]
 80042a6:	f000 f96f 	bl	8004588 <I2C_WaitOnFlagUntilTimeout>
 80042aa:	4603      	mov	r3, r0
 80042ac:	2b00      	cmp	r3, #0
 80042ae:	d00d      	beq.n	80042cc <I2C_MasterRequestRead+0x15c>
 80042b0:	68fb      	ldr	r3, [r7, #12]
 80042b2:	681b      	ldr	r3, [r3, #0]
 80042b4:	681b      	ldr	r3, [r3, #0]
 80042b6:	f403 7380 	and.w	r3, r3, #256	; 0x100
 80042ba:	f5b3 7f80 	cmp.w	r3, #256	; 0x100
 80042be:	d103      	bne.n	80042c8 <I2C_MasterRequestRead+0x158>
 80042c0:	68fb      	ldr	r3, [r7, #12]
 80042c2:	f44f 7200 	mov.w	r2, #512	; 0x200
 80042c6:	641a      	str	r2, [r3, #64]	; 0x40
 80042c8:	2303      	movs	r3, #3
 80042ca:	e017      	b.n	80042fc <I2C_MasterRequestRead+0x18c>
 80042cc:	897b      	ldrh	r3, [r7, #10]
 80042ce:	11db      	asrs	r3, r3, #7
 80042d0:	b2db      	uxtb	r3, r3
 80042d2:	f003 0306 	and.w	r3, r3, #6
 80042d6:	b2db      	uxtb	r3, r3
 80042d8:	f063 030e 	orn	r3, r3, #14
 80042dc:	b2da      	uxtb	r2, r3
 80042de:	68fb      	ldr	r3, [r7, #12]
 80042e0:	681b      	ldr	r3, [r3, #0]
 80042e2:	611a      	str	r2, [r3, #16]
 80042e4:	683b      	ldr	r3, [r7, #0]
 80042e6:	687a      	ldr	r2, [r7, #4]
 80042e8:	4907      	ldr	r1, [pc, #28]	; (8004308 <I2C_MasterRequestRead+0x198>)
 80042ea:	68f8      	ldr	r0, [r7, #12]
 80042ec:	f000 f9a3 	bl	8004636 <I2C_WaitOnMasterAddressFlagUntilTimeout>
 80042f0:	4603      	mov	r3, r0
 80042f2:	2b00      	cmp	r3, #0
 80042f4:	d001      	beq.n	80042fa <I2C_MasterRequestRead+0x18a>
 80042f6:	2301      	movs	r3, #1
 80042f8:	e000      	b.n	80042fc <I2C_MasterRequestRead+0x18c>
 80042fa:	2300      	movs	r3, #0
 80042fc:	4618      	mov	r0, r3
 80042fe:	3718      	adds	r7, #24
 8004300:	46bd      	mov	sp, r7
 8004302:	bd80      	pop	{r7, pc}
 8004304:	00010008 	.word	0x00010008
 8004308:	00010002 	.word	0x00010002

0800430c <I2C_RequestMemoryWrite>:
 800430c:	b580      	push	{r7, lr}
 800430e:	b088      	sub	sp, #32
 8004310:	af02      	add	r7, sp, #8
 8004312:	60f8      	str	r0, [r7, #12]
 8004314:	4608      	mov	r0, r1
 8004316:	4611      	mov	r1, r2
 8004318:	461a      	mov	r2, r3
 800431a:	4603      	mov	r3, r0
 800431c:	817b      	strh	r3, [r7, #10]
 800431e:	460b      	mov	r3, r1
 8004320:	813b      	strh	r3, [r7, #8]
 8004322:	4613      	mov	r3, r2
 8004324:	80fb      	strh	r3, [r7, #6]
 8004326:	68fb      	ldr	r3, [r7, #12]
 8004328:	681b      	ldr	r3, [r3, #0]
 800432a:	681a      	ldr	r2, [r3, #0]
 800432c:	68fb      	ldr	r3, [r7, #12]
 800432e:	681b      	ldr	r3, [r3, #0]
 8004330:	f442 7280 	orr.w	r2, r2, #256	; 0x100
 8004334:	601a      	str	r2, [r3, #0]
 8004336:	6a7b      	ldr	r3, [r7, #36]	; 0x24
 8004338:	9300      	str	r3, [sp, #0]
 800433a:	6a3b      	ldr	r3, [r7, #32]
 800433c:	2200      	movs	r2, #0
 800433e:	f04f 1101 	mov.w	r1, #65537	; 0x10001
 8004342:	68f8      	ldr	r0, [r7, #12]
 8004344:	f000 f920 	bl	8004588 <I2C_WaitOnFlagUntilTimeout>
 8004348:	4603      	mov	r3, r0
 800434a:	2b00      	cmp	r3, #0
 800434c:	d00d      	beq.n	800436a <I2C_RequestMemoryWrite+0x5e>
 800434e:	68fb      	ldr	r3, [r7, #12]
 8004350:	681b      	ldr	r3, [r3, #0]
 8004352:	681b      	ldr	r3, [r3, #0]
 8004354:	f403 7380 	and.w	r3, r3, #256	; 0x100
 8004358:	f5b3 7f80 	cmp.w	r3, #256	; 0x100
 800435c:	d103      	bne.n	8004366 <I2C_RequestMemoryWrite+0x5a>
 800435e:	68fb      	ldr	r3, [r7, #12]
 8004360:	f44f 7200 	mov.w	r2, #512	; 0x200
 8004364:	641a      	str	r2, [r3, #64]	; 0x40
 8004366:	2303      	movs	r3, #3
 8004368:	e05f      	b.n	800442a <I2C_RequestMemoryWrite+0x11e>
 800436a:	897b      	ldrh	r3, [r7, #10]
 800436c:	b2db      	uxtb	r3, r3
 800436e:	461a      	mov	r2, r3
 8004370:	68fb      	ldr	r3, [r7, #12]
 8004372:	681b      	ldr	r3, [r3, #0]
 8004374:	f002 02fe 	and.w	r2, r2, #254	; 0xfe
 8004378:	611a      	str	r2, [r3, #16]
 800437a:	6a7b      	ldr	r3, [r7, #36]	; 0x24
 800437c:	6a3a      	ldr	r2, [r7, #32]
 800437e:	492d      	ldr	r1, [pc, #180]	; (8004434 <I2C_RequestMemoryWrite+0x128>)
 8004380:	68f8      	ldr	r0, [r7, #12]
 8004382:	f000 f958 	bl	8004636 <I2C_WaitOnMasterAddressFlagUntilTimeout>
 8004386:	4603      	mov	r3, r0
 8004388:	2b00      	cmp	r3, #0
 800438a:	d001      	beq.n	8004390 <I2C_RequestMemoryWrite+0x84>
 800438c:	2301      	movs	r3, #1
 800438e:	e04c      	b.n	800442a <I2C_RequestMemoryWrite+0x11e>
 8004390:	2300      	movs	r3, #0
 8004392:	617b      	str	r3, [r7, #20]
 8004394:	68fb      	ldr	r3, [r7, #12]
 8004396:	681b      	ldr	r3, [r3, #0]
 8004398:	695b      	ldr	r3, [r3, #20]
 800439a:	617b      	str	r3, [r7, #20]
 800439c:	68fb      	ldr	r3, [r7, #12]
 800439e:	681b      	ldr	r3, [r3, #0]
 80043a0:	699b      	ldr	r3, [r3, #24]
 80043a2:	617b      	str	r3, [r7, #20]
 80043a4:	697b      	ldr	r3, [r7, #20]
 80043a6:	6a7a      	ldr	r2, [r7, #36]	; 0x24
 80043a8:	6a39      	ldr	r1, [r7, #32]
 80043aa:	68f8      	ldr	r0, [r7, #12]
 80043ac:	f000 f9c2 	bl	8004734 <I2C_WaitOnTXEFlagUntilTimeout>
 80043b0:	4603      	mov	r3, r0
 80043b2:	2b00      	cmp	r3, #0
 80043b4:	d00d      	beq.n	80043d2 <I2C_RequestMemoryWrite+0xc6>
 80043b6:	68fb      	ldr	r3, [r7, #12]
 80043b8:	6c1b      	ldr	r3, [r3, #64]	; 0x40
 80043ba:	2b04      	cmp	r3, #4
 80043bc:	d107      	bne.n	80043ce <I2C_RequestMemoryWrite+0xc2>
 80043be:	68fb      	ldr	r3, [r7, #12]
 80043c0:	681b      	ldr	r3, [r3, #0]
 80043c2:	681a      	ldr	r2, [r3, #0]
 80043c4:	68fb      	ldr	r3, [r7, #12]
 80043c6:	681b      	ldr	r3, [r3, #0]
 80043c8:	f442 7200 	orr.w	r2, r2, #512	; 0x200
 80043cc:	601a      	str	r2, [r3, #0]
 80043ce:	2301      	movs	r3, #1
 80043d0:	e02b      	b.n	800442a <I2C_RequestMemoryWrite+0x11e>
 80043d2:	88fb      	ldrh	r3, [r7, #6]
 80043d4:	2b01      	cmp	r3, #1
 80043d6:	d105      	bne.n	80043e4 <I2C_RequestMemoryWrite+0xd8>
 80043d8:	893b      	ldrh	r3, [r7, #8]
 80043da:	b2da      	uxtb	r2, r3
 80043dc:	68fb      	ldr	r3, [r7, #12]
 80043de:	681b      	ldr	r3, [r3, #0]
 80043e0:	611a      	str	r2, [r3, #16]
 80043e2:	e021      	b.n	8004428 <I2C_RequestMemoryWrite+0x11c>
 80043e4:	893b      	ldrh	r3, [r7, #8]
 80043e6:	0a1b      	lsrs	r3, r3, #8
 80043e8:	b29b      	uxth	r3, r3
 80043ea:	b2da      	uxtb	r2, r3
 80043ec:	68fb      	ldr	r3, [r7, #12]
 80043ee:	681b      	ldr	r3, [r3, #0]
 80043f0:	611a      	str	r2, [r3, #16]
 80043f2:	6a7a      	ldr	r2, [r7, #36]	; 0x24
 80043f4:	6a39      	ldr	r1, [r7, #32]
 80043f6:	68f8      	ldr	r0, [r7, #12]
 80043f8:	f000 f99c 	bl	8004734 <I2C_WaitOnTXEFlagUntilTimeout>
 80043fc:	4603      	mov	r3, r0
 80043fe:	2b00      	cmp	r3, #0
 8004400:	d00d      	beq.n	800441e <I2C_RequestMemoryWrite+0x112>
 8004402:	68fb      	ldr	r3, [r7, #12]
 8004404:	6c1b      	ldr	r3, [r3, #64]	; 0x40
 8004406:	2b04      	cmp	r3, #4
 8004408:	d107      	bne.n	800441a <I2C_RequestMemoryWrite+0x10e>
 800440a:	68fb      	ldr	r3, [r7, #12]
 800440c:	681b      	ldr	r3, [r3, #0]
 800440e:	681a      	ldr	r2, [r3, #0]
 8004410:	68fb      	ldr	r3, [r7, #12]
 8004412:	681b      	ldr	r3, [r3, #0]
 8004414:	f442 7200 	orr.w	r2, r2, #512	; 0x200
 8004418:	601a      	str	r2, [r3, #0]
 800441a:	2301      	movs	r3, #1
 800441c:	e005      	b.n	800442a <I2C_RequestMemoryWrite+0x11e>
 800441e:	893b      	ldrh	r3, [r7, #8]
 8004420:	b2da      	uxtb	r2, r3
 8004422:	68fb      	ldr	r3, [r7, #12]
 8004424:	681b      	ldr	r3, [r3, #0]
 8004426:	611a      	str	r2, [r3, #16]
 8004428:	2300      	movs	r3, #0
 800442a:	4618      	mov	r0, r3
 800442c:	3718      	adds	r7, #24
 800442e:	46bd      	mov	sp, r7
 8004430:	bd80      	pop	{r7, pc}
 8004432:	bf00      	nop
 8004434:	00010002 	.word	0x00010002

08004438 <I2C_DMAAbort>:
 8004438:	b580      	push	{r7, lr}
 800443a:	b086      	sub	sp, #24
 800443c:	af00      	add	r7, sp, #0
 800443e:	6078      	str	r0, [r7, #4]
 8004440:	2300      	movs	r3, #0
 8004442:	60fb      	str	r3, [r7, #12]
 8004444:	687b      	ldr	r3, [r7, #4]
 8004446:	6b9b      	ldr	r3, [r3, #56]	; 0x38
 8004448:	617b      	str	r3, [r7, #20]
 800444a:	697b      	ldr	r3, [r7, #20]
 800444c:	f893 303d 	ldrb.w	r3, [r3, #61]	; 0x3d
 8004450:	74fb      	strb	r3, [r7, #19]
 8004452:	4b4b      	ldr	r3, [pc, #300]	; (8004580 <I2C_DMAAbort+0x148>)
 8004454:	681b      	ldr	r3, [r3, #0]
 8004456:	08db      	lsrs	r3, r3, #3
 8004458:	4a4a      	ldr	r2, [pc, #296]	; (8004584 <I2C_DMAAbort+0x14c>)
 800445a:	fba2 2303 	umull	r2, r3, r2, r3
 800445e:	0a1a      	lsrs	r2, r3, #8
 8004460:	4613      	mov	r3, r2
 8004462:	009b      	lsls	r3, r3, #2
 8004464:	4413      	add	r3, r2
 8004466:	00da      	lsls	r2, r3, #3
 8004468:	1ad3      	subs	r3, r2, r3
 800446a:	60fb      	str	r3, [r7, #12]
 800446c:	68fb      	ldr	r3, [r7, #12]
 800446e:	2b00      	cmp	r3, #0
 8004470:	d106      	bne.n	8004480 <I2C_DMAAbort+0x48>
 8004472:	697b      	ldr	r3, [r7, #20]
 8004474:	6c1b      	ldr	r3, [r3, #64]	; 0x40
 8004476:	f043 0220 	orr.w	r2, r3, #32
 800447a:	697b      	ldr	r3, [r7, #20]
 800447c:	641a      	str	r2, [r3, #64]	; 0x40
 800447e:	e00a      	b.n	8004496 <I2C_DMAAbort+0x5e>
 8004480:	68fb      	ldr	r3, [r7, #12]
 8004482:	3b01      	subs	r3, #1
 8004484:	60fb      	str	r3, [r7, #12]
 8004486:	697b      	ldr	r3, [r7, #20]
 8004488:	681b      	ldr	r3, [r3, #0]
 800448a:	681b      	ldr	r3, [r3, #0]
 800448c:	f403 7300 	and.w	r3, r3, #512	; 0x200
 8004490:	f5b3 7f00 	cmp.w	r3, #512	; 0x200
 8004494:	d0ea      	beq.n	800446c <I2C_DMAAbort+0x34>
 8004496:	697b      	ldr	r3, [r7, #20]
 8004498:	6b5b      	ldr	r3, [r3, #52]	; 0x34
 800449a:	2b00      	cmp	r3, #0
 800449c:	d003      	beq.n	80044a6 <I2C_DMAAbort+0x6e>
 800449e:	697b      	ldr	r3, [r7, #20]
 80044a0:	6b5b      	ldr	r3, [r3, #52]	; 0x34
 80044a2:	2200      	movs	r2, #0
 80044a4:	63da      	str	r2, [r3, #60]	; 0x3c
 80044a6:	697b      	ldr	r3, [r7, #20]
 80044a8:	6b9b      	ldr	r3, [r3, #56]	; 0x38
 80044aa:	2b00      	cmp	r3, #0
 80044ac:	d003      	beq.n	80044b6 <I2C_DMAAbort+0x7e>
 80044ae:	697b      	ldr	r3, [r7, #20]
 80044b0:	6b9b      	ldr	r3, [r3, #56]	; 0x38
 80044b2:	2200      	movs	r2, #0
 80044b4:	63da      	str	r2, [r3, #60]	; 0x3c
 80044b6:	697b      	ldr	r3, [r7, #20]
 80044b8:	681b      	ldr	r3, [r3, #0]
 80044ba:	681a      	ldr	r2, [r3, #0]
 80044bc:	697b      	ldr	r3, [r7, #20]
 80044be:	681b      	ldr	r3, [r3, #0]
 80044c0:	f422 6280 	bic.w	r2, r2, #1024	; 0x400
 80044c4:	601a      	str	r2, [r3, #0]
 80044c6:	697b      	ldr	r3, [r7, #20]
 80044c8:	2200      	movs	r2, #0
 80044ca:	855a      	strh	r2, [r3, #42]	; 0x2a
 80044cc:	697b      	ldr	r3, [r7, #20]
 80044ce:	6b5b      	ldr	r3, [r3, #52]	; 0x34
 80044d0:	2b00      	cmp	r3, #0
 80044d2:	d003      	beq.n	80044dc <I2C_DMAAbort+0xa4>
 80044d4:	697b      	ldr	r3, [r7, #20]
 80044d6:	6b5b      	ldr	r3, [r3, #52]	; 0x34
 80044d8:	2200      	movs	r2, #0
 80044da:	651a      	str	r2, [r3, #80]	; 0x50
 80044dc:	697b      	ldr	r3, [r7, #20]
 80044de:	6b9b      	ldr	r3, [r3, #56]	; 0x38
 80044e0:	2b00      	cmp	r3, #0
 80044e2:	d003      	beq.n	80044ec <I2C_DMAAbort+0xb4>
 80044e4:	697b      	ldr	r3, [r7, #20]
 80044e6:	6b9b      	ldr	r3, [r3, #56]	; 0x38
 80044e8:	2200      	movs	r2, #0
 80044ea:	651a      	str	r2, [r3, #80]	; 0x50
 80044ec:	697b      	ldr	r3, [r7, #20]
 80044ee:	681b      	ldr	r3, [r3, #0]
 80044f0:	681a      	ldr	r2, [r3, #0]
 80044f2:	697b      	ldr	r3, [r7, #20]
 80044f4:	681b      	ldr	r3, [r3, #0]
 80044f6:	f022 0201 	bic.w	r2, r2, #1
 80044fa:	601a      	str	r2, [r3, #0]
 80044fc:	697b      	ldr	r3, [r7, #20]
 80044fe:	f893 303d 	ldrb.w	r3, [r3, #61]	; 0x3d
 8004502:	b2db      	uxtb	r3, r3
 8004504:	2b60      	cmp	r3, #96	; 0x60
 8004506:	d10e      	bne.n	8004526 <I2C_DMAAbort+0xee>
 8004508:	697b      	ldr	r3, [r7, #20]
 800450a:	2220      	movs	r2, #32
 800450c:	f883 203d 	strb.w	r2, [r3, #61]	; 0x3d
 8004510:	697b      	ldr	r3, [r7, #20]
 8004512:	2200      	movs	r2, #0
 8004514:	f883 203e 	strb.w	r2, [r3, #62]	; 0x3e
 8004518:	697b      	ldr	r3, [r7, #20]
 800451a:	2200      	movs	r2, #0
 800451c:	641a      	str	r2, [r3, #64]	; 0x40
 800451e:	6978      	ldr	r0, [r7, #20]
 8004520:	f7fe fc3e 	bl	8002da0 <HAL_I2C_AbortCpltCallback>
 8004524:	e027      	b.n	8004576 <I2C_DMAAbort+0x13e>
 8004526:	7cfb      	ldrb	r3, [r7, #19]
 8004528:	f003 0328 	and.w	r3, r3, #40	; 0x28
 800452c:	2b28      	cmp	r3, #40	; 0x28
 800452e:	d117      	bne.n	8004560 <I2C_DMAAbort+0x128>
 8004530:	697b      	ldr	r3, [r7, #20]
 8004532:	681b      	ldr	r3, [r3, #0]
 8004534:	681a      	ldr	r2, [r3, #0]
 8004536:	697b      	ldr	r3, [r7, #20]
 8004538:	681b      	ldr	r3, [r3, #0]
 800453a:	f042 0201 	orr.w	r2, r2, #1
 800453e:	601a      	str	r2, [r3, #0]
 8004540:	697b      	ldr	r3, [r7, #20]
 8004542:	681b      	ldr	r3, [r3, #0]
 8004544:	681a      	ldr	r2, [r3, #0]
 8004546:	697b      	ldr	r3, [r7, #20]
 8004548:	681b      	ldr	r3, [r3, #0]
 800454a:	f442 6280 	orr.w	r2, r2, #1024	; 0x400
 800454e:	601a      	str	r2, [r3, #0]
 8004550:	697b      	ldr	r3, [r7, #20]
 8004552:	2200      	movs	r2, #0
 8004554:	631a      	str	r2, [r3, #48]	; 0x30
 8004556:	697b      	ldr	r3, [r7, #20]
 8004558:	2228      	movs	r2, #40	; 0x28
 800455a:	f883 203d 	strb.w	r2, [r3, #61]	; 0x3d
 800455e:	e007      	b.n	8004570 <I2C_DMAAbort+0x138>
 8004560:	697b      	ldr	r3, [r7, #20]
 8004562:	2220      	movs	r2, #32
 8004564:	f883 203d 	strb.w	r2, [r3, #61]	; 0x3d
 8004568:	697b      	ldr	r3, [r7, #20]
 800456a:	2200      	movs	r2, #0
 800456c:	f883 203e 	strb.w	r2, [r3, #62]	; 0x3e
 8004570:	6978      	ldr	r0, [r7, #20]
 8004572:	f7fe fc0b 	bl	8002d8c <HAL_I2C_ErrorCallback>
 8004576:	bf00      	nop
 8004578:	3718      	adds	r7, #24
 800457a:	46bd      	mov	sp, r7
 800457c:	bd80      	pop	{r7, pc}
 800457e:	bf00      	nop
 8004580:	2000001c 	.word	0x2000001c
 8004584:	14f8b589 	.word	0x14f8b589

08004588 <I2C_WaitOnFlagUntilTimeout>:
 8004588:	b580      	push	{r7, lr}
 800458a:	b084      	sub	sp, #16
 800458c:	af00      	add	r7, sp, #0
 800458e:	60f8      	str	r0, [r7, #12]
 8004590:	60b9      	str	r1, [r7, #8]
 8004592:	603b      	str	r3, [r7, #0]
 8004594:	4613      	mov	r3, r2
 8004596:	71fb      	strb	r3, [r7, #7]
 8004598:	e025      	b.n	80045e6 <I2C_WaitOnFlagUntilTimeout+0x5e>
 800459a:	683b      	ldr	r3, [r7, #0]
 800459c:	f1b3 3fff 	cmp.w	r3, #4294967295
 80045a0:	d021      	beq.n	80045e6 <I2C_WaitOnFlagUntilTimeout+0x5e>
 80045a2:	f7fd f899 	bl	80016d8 <HAL_GetTick>
 80045a6:	4602      	mov	r2, r0
 80045a8:	69bb      	ldr	r3, [r7, #24]
 80045aa:	1ad3      	subs	r3, r2, r3
 80045ac:	683a      	ldr	r2, [r7, #0]
 80045ae:	429a      	cmp	r2, r3
 80045b0:	d302      	bcc.n	80045b8 <I2C_WaitOnFlagUntilTimeout+0x30>
 80045b2:	683b      	ldr	r3, [r7, #0]
 80045b4:	2b00      	cmp	r3, #0
 80045b6:	d116      	bne.n	80045e6 <I2C_WaitOnFlagUntilTimeout+0x5e>
 80045b8:	68fb      	ldr	r3, [r7, #12]
 80045ba:	2200      	movs	r2, #0
 80045bc:	631a      	str	r2, [r3, #48]	; 0x30
 80045be:	68fb      	ldr	r3, [r7, #12]
 80045c0:	2220      	movs	r2, #32
 80045c2:	f883 203d 	strb.w	r2, [r3, #61]	; 0x3d
 80045c6:	68fb      	ldr	r3, [r7, #12]
 80045c8:	2200      	movs	r2, #0
 80045ca:	f883 203e 	strb.w	r2, [r3, #62]	; 0x3e
 80045ce:	68fb      	ldr	r3, [r7, #12]
 80045d0:	6c1b      	ldr	r3, [r3, #64]	; 0x40
 80045d2:	f043 0220 	orr.w	r2, r3, #32
 80045d6:	68fb      	ldr	r3, [r7, #12]
 80045d8:	641a      	str	r2, [r3, #64]	; 0x40
 80045da:	68fb      	ldr	r3, [r7, #12]
 80045dc:	2200      	movs	r2, #0
 80045de:	f883 203c 	strb.w	r2, [r3, #60]	; 0x3c
 80045e2:	2301      	movs	r3, #1
 80045e4:	e023      	b.n	800462e <I2C_WaitOnFlagUntilTimeout+0xa6>
 80045e6:	68bb      	ldr	r3, [r7, #8]
 80045e8:	0c1b      	lsrs	r3, r3, #16
 80045ea:	b2db      	uxtb	r3, r3
 80045ec:	2b01      	cmp	r3, #1
 80045ee:	d10d      	bne.n	800460c <I2C_WaitOnFlagUntilTimeout+0x84>
 80045f0:	68fb      	ldr	r3, [r7, #12]
 80045f2:	681b      	ldr	r3, [r3, #0]
 80045f4:	695b      	ldr	r3, [r3, #20]
 80045f6:	43da      	mvns	r2, r3
 80045f8:	68bb      	ldr	r3, [r7, #8]
 80045fa:	4013      	ands	r3, r2
 80045fc:	b29b      	uxth	r3, r3
 80045fe:	2b00      	cmp	r3, #0
 8004600:	bf0c      	ite	eq
 8004602:	2301      	moveq	r3, #1
 8004604:	2300      	movne	r3, #0
 8004606:	b2db      	uxtb	r3, r3
 8004608:	461a      	mov	r2, r3
 800460a:	e00c      	b.n	8004626 <I2C_WaitOnFlagUntilTimeout+0x9e>
 800460c:	68fb      	ldr	r3, [r7, #12]
 800460e:	681b      	ldr	r3, [r3, #0]
 8004610:	699b      	ldr	r3, [r3, #24]
 8004612:	43da      	mvns	r2, r3
 8004614:	68bb      	ldr	r3, [r7, #8]
 8004616:	4013      	ands	r3, r2
 8004618:	b29b      	uxth	r3, r3
 800461a:	2b00      	cmp	r3, #0
 800461c:	bf0c      	ite	eq
 800461e:	2301      	moveq	r3, #1
 8004620:	2300      	movne	r3, #0
 8004622:	b2db      	uxtb	r3, r3
 8004624:	461a      	mov	r2, r3
 8004626:	79fb      	ldrb	r3, [r7, #7]
 8004628:	429a      	cmp	r2, r3
 800462a:	d0b6      	beq.n	800459a <I2C_WaitOnFlagUntilTimeout+0x12>
 800462c:	2300      	movs	r3, #0
 800462e:	4618      	mov	r0, r3
 8004630:	3710      	adds	r7, #16
 8004632:	46bd      	mov	sp, r7
 8004634:	bd80      	pop	{r7, pc}

08004636 <I2C_WaitOnMasterAddressFlagUntilTimeout>:
 8004636:	b580      	push	{r7, lr}
 8004638:	b084      	sub	sp, #16
 800463a:	af00      	add	r7, sp, #0
 800463c:	60f8      	str	r0, [r7, #12]
 800463e:	60b9      	str	r1, [r7, #8]
 8004640:	607a      	str	r2, [r7, #4]
 8004642:	603b      	str	r3, [r7, #0]
 8004644:	e051      	b.n	80046ea <I2C_WaitOnMasterAddressFlagUntilTimeout+0xb4>
 8004646:	68fb      	ldr	r3, [r7, #12]
 8004648:	681b      	ldr	r3, [r3, #0]
 800464a:	695b      	ldr	r3, [r3, #20]
 800464c:	f403 6380 	and.w	r3, r3, #1024	; 0x400
 8004650:	f5b3 6f80 	cmp.w	r3, #1024	; 0x400
 8004654:	d123      	bne.n	800469e <I2C_WaitOnMasterAddressFlagUntilTimeout+0x68>
 8004656:	68fb      	ldr	r3, [r7, #12]
 8004658:	681b      	ldr	r3, [r3, #0]
 800465a:	681a      	ldr	r2, [r3, #0]
 800465c:	68fb      	ldr	r3, [r7, #12]
 800465e:	681b      	ldr	r3, [r3, #0]
 8004660:	f442 7200 	orr.w	r2, r2, #512	; 0x200
 8004664:	601a      	str	r2, [r3, #0]
 8004666:	68fb      	ldr	r3, [r7, #12]
 8004668:	681b      	ldr	r3, [r3, #0]
 800466a:	f46f 6280 	mvn.w	r2, #1024	; 0x400
 800466e:	615a      	str	r2, [r3, #20]
 8004670:	68fb      	ldr	r3, [r7, #12]
 8004672:	2200      	movs	r2, #0
 8004674:	631a      	str	r2, [r3, #48]	; 0x30
 8004676:	68fb      	ldr	r3, [r7, #12]
 8004678:	2220      	movs	r2, #32
 800467a:	f883 203d 	strb.w	r2, [r3, #61]	; 0x3d
 800467e:	68fb      	ldr	r3, [r7, #12]
 8004680:	2200      	movs	r2, #0
 8004682:	f883 203e 	strb.w	r2, [r3, #62]	; 0x3e
 8004686:	68fb      	ldr	r3, [r7, #12]
 8004688:	6c1b      	ldr	r3, [r3, #64]	; 0x40
 800468a:	f043 0204 	orr.w	r2, r3, #4
 800468e:	68fb      	ldr	r3, [r7, #12]
 8004690:	641a      	str	r2, [r3, #64]	; 0x40
 8004692:	68fb      	ldr	r3, [r7, #12]
 8004694:	2200      	movs	r2, #0
 8004696:	f883 203c 	strb.w	r2, [r3, #60]	; 0x3c
 800469a:	2301      	movs	r3, #1
 800469c:	e046      	b.n	800472c <I2C_WaitOnMasterAddressFlagUntilTimeout+0xf6>
 800469e:	687b      	ldr	r3, [r7, #4]
 80046a0:	f1b3 3fff 	cmp.w	r3, #4294967295
 80046a4:	d021      	beq.n	80046ea <I2C_WaitOnMasterAddressFlagUntilTimeout+0xb4>
 80046a6:	f7fd f817 	bl	80016d8 <HAL_GetTick>
 80046aa:	4602      	mov	r2, r0
 80046ac:	683b      	ldr	r3, [r7, #0]
 80046ae:	1ad3      	subs	r3, r2, r3
 80046b0:	687a      	ldr	r2, [r7, #4]
 80046b2:	429a      	cmp	r2, r3
 80046b4:	d302      	bcc.n	80046bc <I2C_WaitOnMasterAddressFlagUntilTimeout+0x86>
 80046b6:	687b      	ldr	r3, [r7, #4]
 80046b8:	2b00      	cmp	r3, #0
 80046ba:	d116      	bne.n	80046ea <I2C_WaitOnMasterAddressFlagUntilTimeout+0xb4>
 80046bc:	68fb      	ldr	r3, [r7, #12]
 80046be:	2200      	movs	r2, #0
 80046c0:	631a      	str	r2, [r3, #48]	; 0x30
 80046c2:	68fb      	ldr	r3, [r7, #12]
 80046c4:	2220      	movs	r2, #32
 80046c6:	f883 203d 	strb.w	r2, [r3, #61]	; 0x3d
 80046ca:	68fb      	ldr	r3, [r7, #12]
 80046cc:	2200      	movs	r2, #0
 80046ce:	f883 203e 	strb.w	r2, [r3, #62]	; 0x3e
 80046d2:	68fb      	ldr	r3, [r7, #12]
 80046d4:	6c1b      	ldr	r3, [r3, #64]	; 0x40
 80046d6:	f043 0220 	orr.w	r2, r3, #32
 80046da:	68fb      	ldr	r3, [r7, #12]
 80046dc:	641a      	str	r2, [r3, #64]	; 0x40
 80046de:	68fb      	ldr	r3, [r7, #12]
 80046e0:	2200      	movs	r2, #0
 80046e2:	f883 203c 	strb.w	r2, [r3, #60]	; 0x3c
 80046e6:	2301      	movs	r3, #1
 80046e8:	e020      	b.n	800472c <I2C_WaitOnMasterAddressFlagUntilTimeout+0xf6>
 80046ea:	68bb      	ldr	r3, [r7, #8]
 80046ec:	0c1b      	lsrs	r3, r3, #16
 80046ee:	b2db      	uxtb	r3, r3
 80046f0:	2b01      	cmp	r3, #1
 80046f2:	d10c      	bne.n	800470e <I2C_WaitOnMasterAddressFlagUntilTimeout+0xd8>
 80046f4:	68fb      	ldr	r3, [r7, #12]
 80046f6:	681b      	ldr	r3, [r3, #0]
 80046f8:	695b      	ldr	r3, [r3, #20]
 80046fa:	43da      	mvns	r2, r3
 80046fc:	68bb      	ldr	r3, [r7, #8]
 80046fe:	4013      	ands	r3, r2
 8004700:	b29b      	uxth	r3, r3
 8004702:	2b00      	cmp	r3, #0
 8004704:	bf14      	ite	ne
 8004706:	2301      	movne	r3, #1
 8004708:	2300      	moveq	r3, #0
 800470a:	b2db      	uxtb	r3, r3
 800470c:	e00b      	b.n	8004726 <I2C_WaitOnMasterAddressFlagUntilTimeout+0xf0>
 800470e:	68fb      	ldr	r3, [r7, #12]
 8004710:	681b      	ldr	r3, [r3, #0]
 8004712:	699b      	ldr	r3, [r3, #24]
 8004714:	43da      	mvns	r2, r3
 8004716:	68bb      	ldr	r3, [r7, #8]
 8004718:	4013      	ands	r3, r2
 800471a:	b29b      	uxth	r3, r3
 800471c:	2b00      	cmp	r3, #0
 800471e:	bf14      	ite	ne
 8004720:	2301      	movne	r3, #1
 8004722:	2300      	moveq	r3, #0
 8004724:	b2db      	uxtb	r3, r3
 8004726:	2b00      	cmp	r3, #0
 8004728:	d18d      	bne.n	8004646 <I2C_WaitOnMasterAddressFlagUntilTimeout+0x10>
 800472a:	2300      	movs	r3, #0
 800472c:	4618      	mov	r0, r3
 800472e:	3710      	adds	r7, #16
 8004730:	46bd      	mov	sp, r7
 8004732:	bd80      	pop	{r7, pc}

08004734 <I2C_WaitOnTXEFlagUntilTimeout>:
 8004734:	b580      	push	{r7, lr}
 8004736:	b084      	sub	sp, #16
 8004738:	af00      	add	r7, sp, #0
 800473a:	60f8      	str	r0, [r7, #12]
 800473c:	60b9      	str	r1, [r7, #8]
 800473e:	607a      	str	r2, [r7, #4]
 8004740:	e02d      	b.n	800479e <I2C_WaitOnTXEFlagUntilTimeout+0x6a>
 8004742:	68f8      	ldr	r0, [r7, #12]
 8004744:	f000 f900 	bl	8004948 <I2C_IsAcknowledgeFailed>
 8004748:	4603      	mov	r3, r0
 800474a:	2b00      	cmp	r3, #0
 800474c:	d001      	beq.n	8004752 <I2C_WaitOnTXEFlagUntilTimeout+0x1e>
 800474e:	2301      	movs	r3, #1
 8004750:	e02d      	b.n	80047ae <I2C_WaitOnTXEFlagUntilTimeout+0x7a>
 8004752:	68bb      	ldr	r3, [r7, #8]
 8004754:	f1b3 3fff 	cmp.w	r3, #4294967295
 8004758:	d021      	beq.n	800479e <I2C_WaitOnTXEFlagUntilTimeout+0x6a>
 800475a:	f7fc ffbd 	bl	80016d8 <HAL_GetTick>
 800475e:	4602      	mov	r2, r0
 8004760:	687b      	ldr	r3, [r7, #4]
 8004762:	1ad3      	subs	r3, r2, r3
 8004764:	68ba      	ldr	r2, [r7, #8]
 8004766:	429a      	cmp	r2, r3
 8004768:	d302      	bcc.n	8004770 <I2C_WaitOnTXEFlagUntilTimeout+0x3c>
 800476a:	68bb      	ldr	r3, [r7, #8]
 800476c:	2b00      	cmp	r3, #0
 800476e:	d116      	bne.n	800479e <I2C_WaitOnTXEFlagUntilTimeout+0x6a>
 8004770:	68fb      	ldr	r3, [r7, #12]
 8004772:	2200      	movs	r2, #0
 8004774:	631a      	str	r2, [r3, #48]	; 0x30
 8004776:	68fb      	ldr	r3, [r7, #12]
 8004778:	2220      	movs	r2, #32
 800477a:	f883 203d 	strb.w	r2, [r3, #61]	; 0x3d
 800477e:	68fb      	ldr	r3, [r7, #12]
 8004780:	2200      	movs	r2, #0
 8004782:	f883 203e 	strb.w	r2, [r3, #62]	; 0x3e
 8004786:	68fb      	ldr	r3, [r7, #12]
 8004788:	6c1b      	ldr	r3, [r3, #64]	; 0x40
 800478a:	f043 0220 	orr.w	r2, r3, #32
 800478e:	68fb      	ldr	r3, [r7, #12]
 8004790:	641a      	str	r2, [r3, #64]	; 0x40
 8004792:	68fb      	ldr	r3, [r7, #12]
 8004794:	2200      	movs	r2, #0
 8004796:	f883 203c 	strb.w	r2, [r3, #60]	; 0x3c
 800479a:	2301      	movs	r3, #1
 800479c:	e007      	b.n	80047ae <I2C_WaitOnTXEFlagUntilTimeout+0x7a>
 800479e:	68fb      	ldr	r3, [r7, #12]
 80047a0:	681b      	ldr	r3, [r3, #0]
 80047a2:	695b      	ldr	r3, [r3, #20]
 80047a4:	f003 0380 	and.w	r3, r3, #128	; 0x80
 80047a8:	2b80      	cmp	r3, #128	; 0x80
 80047aa:	d1ca      	bne.n	8004742 <I2C_WaitOnTXEFlagUntilTimeout+0xe>
 80047ac:	2300      	movs	r3, #0
 80047ae:	4618      	mov	r0, r3
 80047b0:	3710      	adds	r7, #16
 80047b2:	46bd      	mov	sp, r7
 80047b4:	bd80      	pop	{r7, pc}

080047b6 <I2C_WaitOnBTFFlagUntilTimeout>:
 80047b6:	b580      	push	{r7, lr}
 80047b8:	b084      	sub	sp, #16
 80047ba:	af00      	add	r7, sp, #0
 80047bc:	60f8      	str	r0, [r7, #12]
 80047be:	60b9      	str	r1, [r7, #8]
 80047c0:	607a      	str	r2, [r7, #4]
 80047c2:	e02d      	b.n	8004820 <I2C_WaitOnBTFFlagUntilTimeout+0x6a>
 80047c4:	68f8      	ldr	r0, [r7, #12]
 80047c6:	f000 f8bf 	bl	8004948 <I2C_IsAcknowledgeFailed>
 80047ca:	4603      	mov	r3, r0
 80047cc:	2b00      	cmp	r3, #0
 80047ce:	d001      	beq.n	80047d4 <I2C_WaitOnBTFFlagUntilTimeout+0x1e>
 80047d0:	2301      	movs	r3, #1
 80047d2:	e02d      	b.n	8004830 <I2C_WaitOnBTFFlagUntilTimeout+0x7a>
 80047d4:	68bb      	ldr	r3, [r7, #8]
 80047d6:	f1b3 3fff 	cmp.w	r3, #4294967295
 80047da:	d021      	beq.n	8004820 <I2C_WaitOnBTFFlagUntilTimeout+0x6a>
 80047dc:	f7fc ff7c 	bl	80016d8 <HAL_GetTick>
 80047e0:	4602      	mov	r2, r0
 80047e2:	687b      	ldr	r3, [r7, #4]
 80047e4:	1ad3      	subs	r3, r2, r3
 80047e6:	68ba      	ldr	r2, [r7, #8]
 80047e8:	429a      	cmp	r2, r3
 80047ea:	d302      	bcc.n	80047f2 <I2C_WaitOnBTFFlagUntilTimeout+0x3c>
 80047ec:	68bb      	ldr	r3, [r7, #8]
 80047ee:	2b00      	cmp	r3, #0
 80047f0:	d116      	bne.n	8004820 <I2C_WaitOnBTFFlagUntilTimeout+0x6a>
 80047f2:	68fb      	ldr	r3, [r7, #12]
 80047f4:	2200      	movs	r2, #0
 80047f6:	631a      	str	r2, [r3, #48]	; 0x30
 80047f8:	68fb      	ldr	r3, [r7, #12]
 80047fa:	2220      	movs	r2, #32
 80047fc:	f883 203d 	strb.w	r2, [r3, #61]	; 0x3d
 8004800:	68fb      	ldr	r3, [r7, #12]
 8004802:	2200      	movs	r2, #0
 8004804:	f883 203e 	strb.w	r2, [r3, #62]	; 0x3e
 8004808:	68fb      	ldr	r3, [r7, #12]
 800480a:	6c1b      	ldr	r3, [r3, #64]	; 0x40
 800480c:	f043 0220 	orr.w	r2, r3, #32
 8004810:	68fb      	ldr	r3, [r7, #12]
 8004812:	641a      	str	r2, [r3, #64]	; 0x40
 8004814:	68fb      	ldr	r3, [r7, #12]
 8004816:	2200      	movs	r2, #0
 8004818:	f883 203c 	strb.w	r2, [r3, #60]	; 0x3c
 800481c:	2301      	movs	r3, #1
 800481e:	e007      	b.n	8004830 <I2C_WaitOnBTFFlagUntilTimeout+0x7a>
 8004820:	68fb      	ldr	r3, [r7, #12]
 8004822:	681b      	ldr	r3, [r3, #0]
 8004824:	695b      	ldr	r3, [r3, #20]
 8004826:	f003 0304 	and.w	r3, r3, #4
 800482a:	2b04      	cmp	r3, #4
 800482c:	d1ca      	bne.n	80047c4 <I2C_WaitOnBTFFlagUntilTimeout+0xe>
 800482e:	2300      	movs	r3, #0
 8004830:	4618      	mov	r0, r3
 8004832:	3710      	adds	r7, #16
 8004834:	46bd      	mov	sp, r7
 8004836:	bd80      	pop	{r7, pc}

08004838 <I2C_WaitOnSTOPRequestThroughIT>:
 8004838:	b480      	push	{r7}
 800483a:	b085      	sub	sp, #20
 800483c:	af00      	add	r7, sp, #0
 800483e:	6078      	str	r0, [r7, #4]
 8004840:	2300      	movs	r3, #0
 8004842:	60fb      	str	r3, [r7, #12]
 8004844:	4b13      	ldr	r3, [pc, #76]	; (8004894 <I2C_WaitOnSTOPRequestThroughIT+0x5c>)
 8004846:	681b      	ldr	r3, [r3, #0]
 8004848:	08db      	lsrs	r3, r3, #3
 800484a:	4a13      	ldr	r2, [pc, #76]	; (8004898 <I2C_WaitOnSTOPRequestThroughIT+0x60>)
 800484c:	fba2 2303 	umull	r2, r3, r2, r3
 8004850:	0a1a      	lsrs	r2, r3, #8
 8004852:	4613      	mov	r3, r2
 8004854:	009b      	lsls	r3, r3, #2
 8004856:	4413      	add	r3, r2
 8004858:	60fb      	str	r3, [r7, #12]
 800485a:	68fb      	ldr	r3, [r7, #12]
 800485c:	3b01      	subs	r3, #1
 800485e:	60fb      	str	r3, [r7, #12]
 8004860:	68fb      	ldr	r3, [r7, #12]
 8004862:	2b00      	cmp	r3, #0
 8004864:	d107      	bne.n	8004876 <I2C_WaitOnSTOPRequestThroughIT+0x3e>
 8004866:	687b      	ldr	r3, [r7, #4]
 8004868:	6c1b      	ldr	r3, [r3, #64]	; 0x40
 800486a:	f043 0220 	orr.w	r2, r3, #32
 800486e:	687b      	ldr	r3, [r7, #4]
 8004870:	641a      	str	r2, [r3, #64]	; 0x40
 8004872:	2301      	movs	r3, #1
 8004874:	e008      	b.n	8004888 <I2C_WaitOnSTOPRequestThroughIT+0x50>
 8004876:	687b      	ldr	r3, [r7, #4]
 8004878:	681b      	ldr	r3, [r3, #0]
 800487a:	681b      	ldr	r3, [r3, #0]
 800487c:	f403 7300 	and.w	r3, r3, #512	; 0x200
 8004880:	f5b3 7f00 	cmp.w	r3, #512	; 0x200
 8004884:	d0e9      	beq.n	800485a <I2C_WaitOnSTOPRequestThroughIT+0x22>
 8004886:	2300      	movs	r3, #0
 8004888:	4618      	mov	r0, r3
 800488a:	3714      	adds	r7, #20
 800488c:	46bd      	mov	sp, r7
 800488e:	f85d 7b04 	ldr.w	r7, [sp], #4
 8004892:	4770      	bx	lr
 8004894:	2000001c 	.word	0x2000001c
 8004898:	14f8b589 	.word	0x14f8b589

0800489c <I2C_WaitOnRXNEFlagUntilTimeout>:
 800489c:	b580      	push	{r7, lr}
 800489e:	b084      	sub	sp, #16
 80048a0:	af00      	add	r7, sp, #0
 80048a2:	60f8      	str	r0, [r7, #12]
 80048a4:	60b9      	str	r1, [r7, #8]
 80048a6:	607a      	str	r2, [r7, #4]
 80048a8:	e042      	b.n	8004930 <I2C_WaitOnRXNEFlagUntilTimeout+0x94>
 80048aa:	68fb      	ldr	r3, [r7, #12]
 80048ac:	681b      	ldr	r3, [r3, #0]
 80048ae:	695b      	ldr	r3, [r3, #20]
 80048b0:	f003 0310 	and.w	r3, r3, #16
 80048b4:	2b10      	cmp	r3, #16
 80048b6:	d119      	bne.n	80048ec <I2C_WaitOnRXNEFlagUntilTimeout+0x50>
 80048b8:	68fb      	ldr	r3, [r7, #12]
 80048ba:	681b      	ldr	r3, [r3, #0]
 80048bc:	f06f 0210 	mvn.w	r2, #16
 80048c0:	615a      	str	r2, [r3, #20]
 80048c2:	68fb      	ldr	r3, [r7, #12]
 80048c4:	2200      	movs	r2, #0
 80048c6:	631a      	str	r2, [r3, #48]	; 0x30
 80048c8:	68fb      	ldr	r3, [r7, #12]
 80048ca:	2220      	movs	r2, #32
 80048cc:	f883 203d 	strb.w	r2, [r3, #61]	; 0x3d
 80048d0:	68fb      	ldr	r3, [r7, #12]
 80048d2:	2200      	movs	r2, #0
 80048d4:	f883 203e 	strb.w	r2, [r3, #62]	; 0x3e
 80048d8:	68fb      	ldr	r3, [r7, #12]
 80048da:	6c1a      	ldr	r2, [r3, #64]	; 0x40
 80048dc:	68fb      	ldr	r3, [r7, #12]
 80048de:	641a      	str	r2, [r3, #64]	; 0x40
 80048e0:	68fb      	ldr	r3, [r7, #12]
 80048e2:	2200      	movs	r2, #0
 80048e4:	f883 203c 	strb.w	r2, [r3, #60]	; 0x3c
 80048e8:	2301      	movs	r3, #1
 80048ea:	e029      	b.n	8004940 <I2C_WaitOnRXNEFlagUntilTimeout+0xa4>
 80048ec:	f7fc fef4 	bl	80016d8 <HAL_GetTick>
 80048f0:	4602      	mov	r2, r0
 80048f2:	687b      	ldr	r3, [r7, #4]
 80048f4:	1ad3      	subs	r3, r2, r3
 80048f6:	68ba      	ldr	r2, [r7, #8]
 80048f8:	429a      	cmp	r2, r3
 80048fa:	d302      	bcc.n	8004902 <I2C_WaitOnRXNEFlagUntilTimeout+0x66>
 80048fc:	68bb      	ldr	r3, [r7, #8]
 80048fe:	2b00      	cmp	r3, #0
 8004900:	d116      	bne.n	8004930 <I2C_WaitOnRXNEFlagUntilTimeout+0x94>
 8004902:	68fb      	ldr	r3, [r7, #12]
 8004904:	2200      	movs	r2, #0
 8004906:	631a      	str	r2, [r3, #48]	; 0x30
 8004908:	68fb      	ldr	r3, [r7, #12]
 800490a:	2220      	movs	r2, #32
 800490c:	f883 203d 	strb.w	r2, [r3, #61]	; 0x3d
 8004910:	68fb      	ldr	r3, [r7, #12]
 8004912:	2200      	movs	r2, #0
 8004914:	f883 203e 	strb.w	r2, [r3, #62]	; 0x3e
 8004918:	68fb      	ldr	r3, [r7, #12]
 800491a:	6c1b      	ldr	r3, [r3, #64]	; 0x40
 800491c:	f043 0220 	orr.w	r2, r3, #32
 8004920:	68fb      	ldr	r3, [r7, #12]
 8004922:	641a      	str	r2, [r3, #64]	; 0x40
 8004924:	68fb      	ldr	r3, [r7, #12]
 8004926:	2200      	movs	r2, #0
 8004928:	f883 203c 	strb.w	r2, [r3, #60]	; 0x3c
 800492c:	2301      	movs	r3, #1
 800492e:	e007      	b.n	8004940 <I2C_WaitOnRXNEFlagUntilTimeout+0xa4>
 8004930:	68fb      	ldr	r3, [r7, #12]
 8004932:	681b      	ldr	r3, [r3, #0]
 8004934:	695b      	ldr	r3, [r3, #20]
 8004936:	f003 0340 	and.w	r3, r3, #64	; 0x40
 800493a:	2b40      	cmp	r3, #64	; 0x40
 800493c:	d1b5      	bne.n	80048aa <I2C_WaitOnRXNEFlagUntilTimeout+0xe>
 800493e:	2300      	movs	r3, #0
 8004940:	4618      	mov	r0, r3
 8004942:	3710      	adds	r7, #16
 8004944:	46bd      	mov	sp, r7
 8004946:	bd80      	pop	{r7, pc}

08004948 <I2C_IsAcknowledgeFailed>:
 8004948:	b480      	push	{r7}
 800494a:	b083      	sub	sp, #12
 800494c:	af00      	add	r7, sp, #0
 800494e:	6078      	str	r0, [r7, #4]
 8004950:	687b      	ldr	r3, [r7, #4]
 8004952:	681b      	ldr	r3, [r3, #0]
 8004954:	695b      	ldr	r3, [r3, #20]
 8004956:	f403 6380 	and.w	r3, r3, #1024	; 0x400
 800495a:	f5b3 6f80 	cmp.w	r3, #1024	; 0x400
 800495e:	d11b      	bne.n	8004998 <I2C_IsAcknowledgeFailed+0x50>
 8004960:	687b      	ldr	r3, [r7, #4]
 8004962:	681b      	ldr	r3, [r3, #0]
 8004964:	f46f 6280 	mvn.w	r2, #1024	; 0x400
 8004968:	615a      	str	r2, [r3, #20]
 800496a:	687b      	ldr	r3, [r7, #4]
 800496c:	2200      	movs	r2, #0
 800496e:	631a      	str	r2, [r3, #48]	; 0x30
 8004970:	687b      	ldr	r3, [r7, #4]
 8004972:	2220      	movs	r2, #32
 8004974:	f883 203d 	strb.w	r2, [r3, #61]	; 0x3d
 8004978:	687b      	ldr	r3, [r7, #4]
 800497a:	2200      	movs	r2, #0
 800497c:	f883 203e 	strb.w	r2, [r3, #62]	; 0x3e
 8004980:	687b      	ldr	r3, [r7, #4]
 8004982:	6c1b      	ldr	r3, [r3, #64]	; 0x40
 8004984:	f043 0204 	orr.w	r2, r3, #4
 8004988:	687b      	ldr	r3, [r7, #4]
 800498a:	641a      	str	r2, [r3, #64]	; 0x40
 800498c:	687b      	ldr	r3, [r7, #4]
 800498e:	2200      	movs	r2, #0
 8004990:	f883 203c 	strb.w	r2, [r3, #60]	; 0x3c
 8004994:	2301      	movs	r3, #1
 8004996:	e000      	b.n	800499a <I2C_IsAcknowledgeFailed+0x52>
 8004998:	2300      	movs	r3, #0
 800499a:	4618      	mov	r0, r3
 800499c:	370c      	adds	r7, #12
 800499e:	46bd      	mov	sp, r7
 80049a0:	f85d 7b04 	ldr.w	r7, [sp], #4
 80049a4:	4770      	bx	lr

080049a6 <I2C_ConvertOtherXferOptions>:
 80049a6:	b480      	push	{r7}
 80049a8:	b083      	sub	sp, #12
 80049aa:	af00      	add	r7, sp, #0
 80049ac:	6078      	str	r0, [r7, #4]
 80049ae:	687b      	ldr	r3, [r7, #4]
 80049b0:	6adb      	ldr	r3, [r3, #44]	; 0x2c
 80049b2:	f5b3 0f2a 	cmp.w	r3, #11141120	; 0xaa0000
 80049b6:	d103      	bne.n	80049c0 <I2C_ConvertOtherXferOptions+0x1a>
 80049b8:	687b      	ldr	r3, [r7, #4]
 80049ba:	2201      	movs	r2, #1
 80049bc:	62da      	str	r2, [r3, #44]	; 0x2c
 80049be:	e007      	b.n	80049d0 <I2C_ConvertOtherXferOptions+0x2a>
 80049c0:	687b      	ldr	r3, [r7, #4]
 80049c2:	6adb      	ldr	r3, [r3, #44]	; 0x2c
 80049c4:	f1b3 4f2a 	cmp.w	r3, #2852126720	; 0xaa000000
 80049c8:	d102      	bne.n	80049d0 <I2C_ConvertOtherXferOptions+0x2a>
 80049ca:	687b      	ldr	r3, [r7, #4]
 80049cc:	2208      	movs	r2, #8
 80049ce:	62da      	str	r2, [r3, #44]	; 0x2c
 80049d0:	bf00      	nop
 80049d2:	370c      	adds	r7, #12
 80049d4:	46bd      	mov	sp, r7
 80049d6:	f85d 7b04 	ldr.w	r7, [sp], #4
 80049da:	4770      	bx	lr

080049dc <HAL_RCC_OscConfig>:
 80049dc:	b580      	push	{r7, lr}
 80049de:	b086      	sub	sp, #24
 80049e0:	af00      	add	r7, sp, #0
 80049e2:	6078      	str	r0, [r7, #4]
 80049e4:	687b      	ldr	r3, [r7, #4]
 80049e6:	2b00      	cmp	r3, #0
 80049e8:	d101      	bne.n	80049ee <HAL_RCC_OscConfig+0x12>
 80049ea:	2301      	movs	r3, #1
 80049ec:	e264      	b.n	8004eb8 <HAL_RCC_OscConfig+0x4dc>
 80049ee:	687b      	ldr	r3, [r7, #4]
 80049f0:	681b      	ldr	r3, [r3, #0]
 80049f2:	f003 0301 	and.w	r3, r3, #1
 80049f6:	2b00      	cmp	r3, #0
 80049f8:	d075      	beq.n	8004ae6 <HAL_RCC_OscConfig+0x10a>
 80049fa:	4ba3      	ldr	r3, [pc, #652]	; (8004c88 <HAL_RCC_OscConfig+0x2ac>)
 80049fc:	689b      	ldr	r3, [r3, #8]
 80049fe:	f003 030c 	and.w	r3, r3, #12
 8004a02:	2b04      	cmp	r3, #4
 8004a04:	d00c      	beq.n	8004a20 <HAL_RCC_OscConfig+0x44>
 8004a06:	4ba0      	ldr	r3, [pc, #640]	; (8004c88 <HAL_RCC_OscConfig+0x2ac>)
 8004a08:	689b      	ldr	r3, [r3, #8]
 8004a0a:	f003 030c 	and.w	r3, r3, #12
 8004a0e:	2b08      	cmp	r3, #8
 8004a10:	d112      	bne.n	8004a38 <HAL_RCC_OscConfig+0x5c>
 8004a12:	4b9d      	ldr	r3, [pc, #628]	; (8004c88 <HAL_RCC_OscConfig+0x2ac>)
 8004a14:	685b      	ldr	r3, [r3, #4]
 8004a16:	f403 0380 	and.w	r3, r3, #4194304	; 0x400000
 8004a1a:	f5b3 0f80 	cmp.w	r3, #4194304	; 0x400000
 8004a1e:	d10b      	bne.n	8004a38 <HAL_RCC_OscConfig+0x5c>
 8004a20:	4b99      	ldr	r3, [pc, #612]	; (8004c88 <HAL_RCC_OscConfig+0x2ac>)
 8004a22:	681b      	ldr	r3, [r3, #0]
 8004a24:	f403 3300 	and.w	r3, r3, #131072	; 0x20000
 8004a28:	2b00      	cmp	r3, #0
 8004a2a:	d05b      	beq.n	8004ae4 <HAL_RCC_OscConfig+0x108>
 8004a2c:	687b      	ldr	r3, [r7, #4]
 8004a2e:	685b      	ldr	r3, [r3, #4]
 8004a30:	2b00      	cmp	r3, #0
 8004a32:	d157      	bne.n	8004ae4 <HAL_RCC_OscConfig+0x108>
 8004a34:	2301      	movs	r3, #1
 8004a36:	e23f      	b.n	8004eb8 <HAL_RCC_OscConfig+0x4dc>
 8004a38:	687b      	ldr	r3, [r7, #4]
 8004a3a:	685b      	ldr	r3, [r3, #4]
 8004a3c:	f5b3 3f80 	cmp.w	r3, #65536	; 0x10000
 8004a40:	d106      	bne.n	8004a50 <HAL_RCC_OscConfig+0x74>
 8004a42:	4b91      	ldr	r3, [pc, #580]	; (8004c88 <HAL_RCC_OscConfig+0x2ac>)
 8004a44:	681b      	ldr	r3, [r3, #0]
 8004a46:	4a90      	ldr	r2, [pc, #576]	; (8004c88 <HAL_RCC_OscConfig+0x2ac>)
 8004a48:	f443 3380 	orr.w	r3, r3, #65536	; 0x10000
 8004a4c:	6013      	str	r3, [r2, #0]
 8004a4e:	e01d      	b.n	8004a8c <HAL_RCC_OscConfig+0xb0>
 8004a50:	687b      	ldr	r3, [r7, #4]
 8004a52:	685b      	ldr	r3, [r3, #4]
 8004a54:	f5b3 2fa0 	cmp.w	r3, #327680	; 0x50000
 8004a58:	d10c      	bne.n	8004a74 <HAL_RCC_OscConfig+0x98>
 8004a5a:	4b8b      	ldr	r3, [pc, #556]	; (8004c88 <HAL_RCC_OscConfig+0x2ac>)
 8004a5c:	681b      	ldr	r3, [r3, #0]
 8004a5e:	4a8a      	ldr	r2, [pc, #552]	; (8004c88 <HAL_RCC_OscConfig+0x2ac>)
 8004a60:	f443 2380 	orr.w	r3, r3, #262144	; 0x40000
 8004a64:	6013      	str	r3, [r2, #0]
 8004a66:	4b88      	ldr	r3, [pc, #544]	; (8004c88 <HAL_RCC_OscConfig+0x2ac>)
 8004a68:	681b      	ldr	r3, [r3, #0]
 8004a6a:	4a87      	ldr	r2, [pc, #540]	; (8004c88 <HAL_RCC_OscConfig+0x2ac>)
 8004a6c:	f443 3380 	orr.w	r3, r3, #65536	; 0x10000
 8004a70:	6013      	str	r3, [r2, #0]
 8004a72:	e00b      	b.n	8004a8c <HAL_RCC_OscConfig+0xb0>
 8004a74:	4b84      	ldr	r3, [pc, #528]	; (8004c88 <HAL_RCC_OscConfig+0x2ac>)
 8004a76:	681b      	ldr	r3, [r3, #0]
 8004a78:	4a83      	ldr	r2, [pc, #524]	; (8004c88 <HAL_RCC_OscConfig+0x2ac>)
 8004a7a:	f423 3380 	bic.w	r3, r3, #65536	; 0x10000
 8004a7e:	6013      	str	r3, [r2, #0]
 8004a80:	4b81      	ldr	r3, [pc, #516]	; (8004c88 <HAL_RCC_OscConfig+0x2ac>)
 8004a82:	681b      	ldr	r3, [r3, #0]
 8004a84:	4a80      	ldr	r2, [pc, #512]	; (8004c88 <HAL_RCC_OscConfig+0x2ac>)
 8004a86:	f423 2380 	bic.w	r3, r3, #262144	; 0x40000
 8004a8a:	6013      	str	r3, [r2, #0]
 8004a8c:	687b      	ldr	r3, [r7, #4]
 8004a8e:	685b      	ldr	r3, [r3, #4]
 8004a90:	2b00      	cmp	r3, #0
 8004a92:	d013      	beq.n	8004abc <HAL_RCC_OscConfig+0xe0>
 8004a94:	f7fc fe20 	bl	80016d8 <HAL_GetTick>
 8004a98:	6138      	str	r0, [r7, #16]
 8004a9a:	e008      	b.n	8004aae <HAL_RCC_OscConfig+0xd2>
 8004a9c:	f7fc fe1c 	bl	80016d8 <HAL_GetTick>
 8004aa0:	4602      	mov	r2, r0
 8004aa2:	693b      	ldr	r3, [r7, #16]
 8004aa4:	1ad3      	subs	r3, r2, r3
 8004aa6:	2b64      	cmp	r3, #100	; 0x64
 8004aa8:	d901      	bls.n	8004aae <HAL_RCC_OscConfig+0xd2>
 8004aaa:	2303      	movs	r3, #3
 8004aac:	e204      	b.n	8004eb8 <HAL_RCC_OscConfig+0x4dc>
 8004aae:	4b76      	ldr	r3, [pc, #472]	; (8004c88 <HAL_RCC_OscConfig+0x2ac>)
 8004ab0:	681b      	ldr	r3, [r3, #0]
 8004ab2:	f403 3300 	and.w	r3, r3, #131072	; 0x20000
 8004ab6:	2b00      	cmp	r3, #0
 8004ab8:	d0f0      	beq.n	8004a9c <HAL_RCC_OscConfig+0xc0>
 8004aba:	e014      	b.n	8004ae6 <HAL_RCC_OscConfig+0x10a>
 8004abc:	f7fc fe0c 	bl	80016d8 <HAL_GetTick>
 8004ac0:	6138      	str	r0, [r7, #16]
 8004ac2:	e008      	b.n	8004ad6 <HAL_RCC_OscConfig+0xfa>
 8004ac4:	f7fc fe08 	bl	80016d8 <HAL_GetTick>
 8004ac8:	4602      	mov	r2, r0
 8004aca:	693b      	ldr	r3, [r7, #16]
 8004acc:	1ad3      	subs	r3, r2, r3
 8004ace:	2b64      	cmp	r3, #100	; 0x64
 8004ad0:	d901      	bls.n	8004ad6 <HAL_RCC_OscConfig+0xfa>
 8004ad2:	2303      	movs	r3, #3
 8004ad4:	e1f0      	b.n	8004eb8 <HAL_RCC_OscConfig+0x4dc>
 8004ad6:	4b6c      	ldr	r3, [pc, #432]	; (8004c88 <HAL_RCC_OscConfig+0x2ac>)
 8004ad8:	681b      	ldr	r3, [r3, #0]
 8004ada:	f403 3300 	and.w	r3, r3, #131072	; 0x20000
 8004ade:	2b00      	cmp	r3, #0
 8004ae0:	d1f0      	bne.n	8004ac4 <HAL_RCC_OscConfig+0xe8>
 8004ae2:	e000      	b.n	8004ae6 <HAL_RCC_OscConfig+0x10a>
 8004ae4:	bf00      	nop
 8004ae6:	687b      	ldr	r3, [r7, #4]
 8004ae8:	681b      	ldr	r3, [r3, #0]
 8004aea:	f003 0302 	and.w	r3, r3, #2
 8004aee:	2b00      	cmp	r3, #0
 8004af0:	d063      	beq.n	8004bba <HAL_RCC_OscConfig+0x1de>
 8004af2:	4b65      	ldr	r3, [pc, #404]	; (8004c88 <HAL_RCC_OscConfig+0x2ac>)
 8004af4:	689b      	ldr	r3, [r3, #8]
 8004af6:	f003 030c 	and.w	r3, r3, #12
 8004afa:	2b00      	cmp	r3, #0
 8004afc:	d00b      	beq.n	8004b16 <HAL_RCC_OscConfig+0x13a>
 8004afe:	4b62      	ldr	r3, [pc, #392]	; (8004c88 <HAL_RCC_OscConfig+0x2ac>)
 8004b00:	689b      	ldr	r3, [r3, #8]
 8004b02:	f003 030c 	and.w	r3, r3, #12
 8004b06:	2b08      	cmp	r3, #8
 8004b08:	d11c      	bne.n	8004b44 <HAL_RCC_OscConfig+0x168>
 8004b0a:	4b5f      	ldr	r3, [pc, #380]	; (8004c88 <HAL_RCC_OscConfig+0x2ac>)
 8004b0c:	685b      	ldr	r3, [r3, #4]
 8004b0e:	f403 0380 	and.w	r3, r3, #4194304	; 0x400000
 8004b12:	2b00      	cmp	r3, #0
 8004b14:	d116      	bne.n	8004b44 <HAL_RCC_OscConfig+0x168>
 8004b16:	4b5c      	ldr	r3, [pc, #368]	; (8004c88 <HAL_RCC_OscConfig+0x2ac>)
 8004b18:	681b      	ldr	r3, [r3, #0]
 8004b1a:	f003 0302 	and.w	r3, r3, #2
 8004b1e:	2b00      	cmp	r3, #0
 8004b20:	d005      	beq.n	8004b2e <HAL_RCC_OscConfig+0x152>
 8004b22:	687b      	ldr	r3, [r7, #4]
 8004b24:	68db      	ldr	r3, [r3, #12]
 8004b26:	2b01      	cmp	r3, #1
 8004b28:	d001      	beq.n	8004b2e <HAL_RCC_OscConfig+0x152>
 8004b2a:	2301      	movs	r3, #1
 8004b2c:	e1c4      	b.n	8004eb8 <HAL_RCC_OscConfig+0x4dc>
 8004b2e:	4b56      	ldr	r3, [pc, #344]	; (8004c88 <HAL_RCC_OscConfig+0x2ac>)
 8004b30:	681b      	ldr	r3, [r3, #0]
 8004b32:	f023 02f8 	bic.w	r2, r3, #248	; 0xf8
 8004b36:	687b      	ldr	r3, [r7, #4]
 8004b38:	691b      	ldr	r3, [r3, #16]
 8004b3a:	00db      	lsls	r3, r3, #3
 8004b3c:	4952      	ldr	r1, [pc, #328]	; (8004c88 <HAL_RCC_OscConfig+0x2ac>)
 8004b3e:	4313      	orrs	r3, r2
 8004b40:	600b      	str	r3, [r1, #0]
 8004b42:	e03a      	b.n	8004bba <HAL_RCC_OscConfig+0x1de>
 8004b44:	687b      	ldr	r3, [r7, #4]
 8004b46:	68db      	ldr	r3, [r3, #12]
 8004b48:	2b00      	cmp	r3, #0
 8004b4a:	d020      	beq.n	8004b8e <HAL_RCC_OscConfig+0x1b2>
 8004b4c:	4b4f      	ldr	r3, [pc, #316]	; (8004c8c <HAL_RCC_OscConfig+0x2b0>)
 8004b4e:	2201      	movs	r2, #1
 8004b50:	601a      	str	r2, [r3, #0]
 8004b52:	f7fc fdc1 	bl	80016d8 <HAL_GetTick>
 8004b56:	6138      	str	r0, [r7, #16]
 8004b58:	e008      	b.n	8004b6c <HAL_RCC_OscConfig+0x190>
 8004b5a:	f7fc fdbd 	bl	80016d8 <HAL_GetTick>
 8004b5e:	4602      	mov	r2, r0
 8004b60:	693b      	ldr	r3, [r7, #16]
 8004b62:	1ad3      	subs	r3, r2, r3
 8004b64:	2b02      	cmp	r3, #2
 8004b66:	d901      	bls.n	8004b6c <HAL_RCC_OscConfig+0x190>
 8004b68:	2303      	movs	r3, #3
 8004b6a:	e1a5      	b.n	8004eb8 <HAL_RCC_OscConfig+0x4dc>
 8004b6c:	4b46      	ldr	r3, [pc, #280]	; (8004c88 <HAL_RCC_OscConfig+0x2ac>)
 8004b6e:	681b      	ldr	r3, [r3, #0]
 8004b70:	f003 0302 	and.w	r3, r3, #2
 8004b74:	2b00      	cmp	r3, #0
 8004b76:	d0f0      	beq.n	8004b5a <HAL_RCC_OscConfig+0x17e>
 8004b78:	4b43      	ldr	r3, [pc, #268]	; (8004c88 <HAL_RCC_OscConfig+0x2ac>)
 8004b7a:	681b      	ldr	r3, [r3, #0]
 8004b7c:	f023 02f8 	bic.w	r2, r3, #248	; 0xf8
 8004b80:	687b      	ldr	r3, [r7, #4]
 8004b82:	691b      	ldr	r3, [r3, #16]
 8004b84:	00db      	lsls	r3, r3, #3
 8004b86:	4940      	ldr	r1, [pc, #256]	; (8004c88 <HAL_RCC_OscConfig+0x2ac>)
 8004b88:	4313      	orrs	r3, r2
 8004b8a:	600b      	str	r3, [r1, #0]
 8004b8c:	e015      	b.n	8004bba <HAL_RCC_OscConfig+0x1de>
 8004b8e:	4b3f      	ldr	r3, [pc, #252]	; (8004c8c <HAL_RCC_OscConfig+0x2b0>)
 8004b90:	2200      	movs	r2, #0
 8004b92:	601a      	str	r2, [r3, #0]
 8004b94:	f7fc fda0 	bl	80016d8 <HAL_GetTick>
 8004b98:	6138      	str	r0, [r7, #16]
 8004b9a:	e008      	b.n	8004bae <HAL_RCC_OscConfig+0x1d2>
 8004b9c:	f7fc fd9c 	bl	80016d8 <HAL_GetTick>
 8004ba0:	4602      	mov	r2, r0
 8004ba2:	693b      	ldr	r3, [r7, #16]
 8004ba4:	1ad3      	subs	r3, r2, r3
 8004ba6:	2b02      	cmp	r3, #2
 8004ba8:	d901      	bls.n	8004bae <HAL_RCC_OscConfig+0x1d2>
 8004baa:	2303      	movs	r3, #3
 8004bac:	e184      	b.n	8004eb8 <HAL_RCC_OscConfig+0x4dc>
 8004bae:	4b36      	ldr	r3, [pc, #216]	; (8004c88 <HAL_RCC_OscConfig+0x2ac>)
 8004bb0:	681b      	ldr	r3, [r3, #0]
 8004bb2:	f003 0302 	and.w	r3, r3, #2
 8004bb6:	2b00      	cmp	r3, #0
 8004bb8:	d1f0      	bne.n	8004b9c <HAL_RCC_OscConfig+0x1c0>
 8004bba:	687b      	ldr	r3, [r7, #4]
 8004bbc:	681b      	ldr	r3, [r3, #0]
 8004bbe:	f003 0308 	and.w	r3, r3, #8
 8004bc2:	2b00      	cmp	r3, #0
 8004bc4:	d030      	beq.n	8004c28 <HAL_RCC_OscConfig+0x24c>
 8004bc6:	687b      	ldr	r3, [r7, #4]
 8004bc8:	695b      	ldr	r3, [r3, #20]
 8004bca:	2b00      	cmp	r3, #0
 8004bcc:	d016      	beq.n	8004bfc <HAL_RCC_OscConfig+0x220>
 8004bce:	4b30      	ldr	r3, [pc, #192]	; (8004c90 <HAL_RCC_OscConfig+0x2b4>)
 8004bd0:	2201      	movs	r2, #1
 8004bd2:	601a      	str	r2, [r3, #0]
 8004bd4:	f7fc fd80 	bl	80016d8 <HAL_GetTick>
 8004bd8:	6138      	str	r0, [r7, #16]
 8004bda:	e008      	b.n	8004bee <HAL_RCC_OscConfig+0x212>
 8004bdc:	f7fc fd7c 	bl	80016d8 <HAL_GetTick>
 8004be0:	4602      	mov	r2, r0
 8004be2:	693b      	ldr	r3, [r7, #16]
 8004be4:	1ad3      	subs	r3, r2, r3
 8004be6:	2b02      	cmp	r3, #2
 8004be8:	d901      	bls.n	8004bee <HAL_RCC_OscConfig+0x212>
 8004bea:	2303      	movs	r3, #3
 8004bec:	e164      	b.n	8004eb8 <HAL_RCC_OscConfig+0x4dc>
 8004bee:	4b26      	ldr	r3, [pc, #152]	; (8004c88 <HAL_RCC_OscConfig+0x2ac>)
 8004bf0:	6f5b      	ldr	r3, [r3, #116]	; 0x74
 8004bf2:	f003 0302 	and.w	r3, r3, #2
 8004bf6:	2b00      	cmp	r3, #0
 8004bf8:	d0f0      	beq.n	8004bdc <HAL_RCC_OscConfig+0x200>
 8004bfa:	e015      	b.n	8004c28 <HAL_RCC_OscConfig+0x24c>
 8004bfc:	4b24      	ldr	r3, [pc, #144]	; (8004c90 <HAL_RCC_OscConfig+0x2b4>)
 8004bfe:	2200      	movs	r2, #0
 8004c00:	601a      	str	r2, [r3, #0]
 8004c02:	f7fc fd69 	bl	80016d8 <HAL_GetTick>
 8004c06:	6138      	str	r0, [r7, #16]
 8004c08:	e008      	b.n	8004c1c <HAL_RCC_OscConfig+0x240>
 8004c0a:	f7fc fd65 	bl	80016d8 <HAL_GetTick>
 8004c0e:	4602      	mov	r2, r0
 8004c10:	693b      	ldr	r3, [r7, #16]
 8004c12:	1ad3      	subs	r3, r2, r3
 8004c14:	2b02      	cmp	r3, #2
 8004c16:	d901      	bls.n	8004c1c <HAL_RCC_OscConfig+0x240>
 8004c18:	2303      	movs	r3, #3
 8004c1a:	e14d      	b.n	8004eb8 <HAL_RCC_OscConfig+0x4dc>
 8004c1c:	4b1a      	ldr	r3, [pc, #104]	; (8004c88 <HAL_RCC_OscConfig+0x2ac>)
 8004c1e:	6f5b      	ldr	r3, [r3, #116]	; 0x74
 8004c20:	f003 0302 	and.w	r3, r3, #2
 8004c24:	2b00      	cmp	r3, #0
 8004c26:	d1f0      	bne.n	8004c0a <HAL_RCC_OscConfig+0x22e>
 8004c28:	687b      	ldr	r3, [r7, #4]
 8004c2a:	681b      	ldr	r3, [r3, #0]
 8004c2c:	f003 0304 	and.w	r3, r3, #4
 8004c30:	2b00      	cmp	r3, #0
 8004c32:	f000 80a0 	beq.w	8004d76 <HAL_RCC_OscConfig+0x39a>
 8004c36:	2300      	movs	r3, #0
 8004c38:	75fb      	strb	r3, [r7, #23]
 8004c3a:	4b13      	ldr	r3, [pc, #76]	; (8004c88 <HAL_RCC_OscConfig+0x2ac>)
 8004c3c:	6c1b      	ldr	r3, [r3, #64]	; 0x40
 8004c3e:	f003 5380 	and.w	r3, r3, #268435456	; 0x10000000
 8004c42:	2b00      	cmp	r3, #0
 8004c44:	d10f      	bne.n	8004c66 <HAL_RCC_OscConfig+0x28a>
 8004c46:	2300      	movs	r3, #0
 8004c48:	60bb      	str	r3, [r7, #8]
 8004c4a:	4b0f      	ldr	r3, [pc, #60]	; (8004c88 <HAL_RCC_OscConfig+0x2ac>)
 8004c4c:	6c1b      	ldr	r3, [r3, #64]	; 0x40
 8004c4e:	4a0e      	ldr	r2, [pc, #56]	; (8004c88 <HAL_RCC_OscConfig+0x2ac>)
 8004c50:	f043 5380 	orr.w	r3, r3, #268435456	; 0x10000000
 8004c54:	6413      	str	r3, [r2, #64]	; 0x40
 8004c56:	4b0c      	ldr	r3, [pc, #48]	; (8004c88 <HAL_RCC_OscConfig+0x2ac>)
 8004c58:	6c1b      	ldr	r3, [r3, #64]	; 0x40
 8004c5a:	f003 5380 	and.w	r3, r3, #268435456	; 0x10000000
 8004c5e:	60bb      	str	r3, [r7, #8]
 8004c60:	68bb      	ldr	r3, [r7, #8]
 8004c62:	2301      	movs	r3, #1
 8004c64:	75fb      	strb	r3, [r7, #23]
 8004c66:	4b0b      	ldr	r3, [pc, #44]	; (8004c94 <HAL_RCC_OscConfig+0x2b8>)
 8004c68:	681b      	ldr	r3, [r3, #0]
 8004c6a:	f403 7380 	and.w	r3, r3, #256	; 0x100
 8004c6e:	2b00      	cmp	r3, #0
 8004c70:	d121      	bne.n	8004cb6 <HAL_RCC_OscConfig+0x2da>
 8004c72:	4b08      	ldr	r3, [pc, #32]	; (8004c94 <HAL_RCC_OscConfig+0x2b8>)
 8004c74:	681b      	ldr	r3, [r3, #0]
 8004c76:	4a07      	ldr	r2, [pc, #28]	; (8004c94 <HAL_RCC_OscConfig+0x2b8>)
 8004c78:	f443 7380 	orr.w	r3, r3, #256	; 0x100
 8004c7c:	6013      	str	r3, [r2, #0]
 8004c7e:	f7fc fd2b 	bl	80016d8 <HAL_GetTick>
 8004c82:	6138      	str	r0, [r7, #16]
 8004c84:	e011      	b.n	8004caa <HAL_RCC_OscConfig+0x2ce>
 8004c86:	bf00      	nop
 8004c88:	40023800 	.word	0x40023800
 8004c8c:	42470000 	.word	0x42470000
 8004c90:	42470e80 	.word	0x42470e80
 8004c94:	40007000 	.word	0x40007000
 8004c98:	f7fc fd1e 	bl	80016d8 <HAL_GetTick>
 8004c9c:	4602      	mov	r2, r0
 8004c9e:	693b      	ldr	r3, [r7, #16]
 8004ca0:	1ad3      	subs	r3, r2, r3
 8004ca2:	2b02      	cmp	r3, #2
 8004ca4:	d901      	bls.n	8004caa <HAL_RCC_OscConfig+0x2ce>
 8004ca6:	2303      	movs	r3, #3
 8004ca8:	e106      	b.n	8004eb8 <HAL_RCC_OscConfig+0x4dc>
 8004caa:	4b85      	ldr	r3, [pc, #532]	; (8004ec0 <HAL_RCC_OscConfig+0x4e4>)
 8004cac:	681b      	ldr	r3, [r3, #0]
 8004cae:	f403 7380 	and.w	r3, r3, #256	; 0x100
 8004cb2:	2b00      	cmp	r3, #0
 8004cb4:	d0f0      	beq.n	8004c98 <HAL_RCC_OscConfig+0x2bc>
 8004cb6:	687b      	ldr	r3, [r7, #4]
 8004cb8:	689b      	ldr	r3, [r3, #8]
 8004cba:	2b01      	cmp	r3, #1
 8004cbc:	d106      	bne.n	8004ccc <HAL_RCC_OscConfig+0x2f0>
 8004cbe:	4b81      	ldr	r3, [pc, #516]	; (8004ec4 <HAL_RCC_OscConfig+0x4e8>)
 8004cc0:	6f1b      	ldr	r3, [r3, #112]	; 0x70
 8004cc2:	4a80      	ldr	r2, [pc, #512]	; (8004ec4 <HAL_RCC_OscConfig+0x4e8>)
 8004cc4:	f043 0301 	orr.w	r3, r3, #1
 8004cc8:	6713      	str	r3, [r2, #112]	; 0x70
 8004cca:	e01c      	b.n	8004d06 <HAL_RCC_OscConfig+0x32a>
 8004ccc:	687b      	ldr	r3, [r7, #4]
 8004cce:	689b      	ldr	r3, [r3, #8]
 8004cd0:	2b05      	cmp	r3, #5
 8004cd2:	d10c      	bne.n	8004cee <HAL_RCC_OscConfig+0x312>
 8004cd4:	4b7b      	ldr	r3, [pc, #492]	; (8004ec4 <HAL_RCC_OscConfig+0x4e8>)
 8004cd6:	6f1b      	ldr	r3, [r3, #112]	; 0x70
 8004cd8:	4a7a      	ldr	r2, [pc, #488]	; (8004ec4 <HAL_RCC_OscConfig+0x4e8>)
 8004cda:	f043 0304 	orr.w	r3, r3, #4
 8004cde:	6713      	str	r3, [r2, #112]	; 0x70
 8004ce0:	4b78      	ldr	r3, [pc, #480]	; (8004ec4 <HAL_RCC_OscConfig+0x4e8>)
 8004ce2:	6f1b      	ldr	r3, [r3, #112]	; 0x70
 8004ce4:	4a77      	ldr	r2, [pc, #476]	; (8004ec4 <HAL_RCC_OscConfig+0x4e8>)
 8004ce6:	f043 0301 	orr.w	r3, r3, #1
 8004cea:	6713      	str	r3, [r2, #112]	; 0x70
 8004cec:	e00b      	b.n	8004d06 <HAL_RCC_OscConfig+0x32a>
 8004cee:	4b75      	ldr	r3, [pc, #468]	; (8004ec4 <HAL_RCC_OscConfig+0x4e8>)
 8004cf0:	6f1b      	ldr	r3, [r3, #112]	; 0x70
 8004cf2:	4a74      	ldr	r2, [pc, #464]	; (8004ec4 <HAL_RCC_OscConfig+0x4e8>)
 8004cf4:	f023 0301 	bic.w	r3, r3, #1
 8004cf8:	6713      	str	r3, [r2, #112]	; 0x70
 8004cfa:	4b72      	ldr	r3, [pc, #456]	; (8004ec4 <HAL_RCC_OscConfig+0x4e8>)
 8004cfc:	6f1b      	ldr	r3, [r3, #112]	; 0x70
 8004cfe:	4a71      	ldr	r2, [pc, #452]	; (8004ec4 <HAL_RCC_OscConfig+0x4e8>)
 8004d00:	f023 0304 	bic.w	r3, r3, #4
 8004d04:	6713      	str	r3, [r2, #112]	; 0x70
 8004d06:	687b      	ldr	r3, [r7, #4]
 8004d08:	689b      	ldr	r3, [r3, #8]
 8004d0a:	2b00      	cmp	r3, #0
 8004d0c:	d015      	beq.n	8004d3a <HAL_RCC_OscConfig+0x35e>
 8004d0e:	f7fc fce3 	bl	80016d8 <HAL_GetTick>
 8004d12:	6138      	str	r0, [r7, #16]
 8004d14:	e00a      	b.n	8004d2c <HAL_RCC_OscConfig+0x350>
 8004d16:	f7fc fcdf 	bl	80016d8 <HAL_GetTick>
 8004d1a:	4602      	mov	r2, r0
 8004d1c:	693b      	ldr	r3, [r7, #16]
 8004d1e:	1ad3      	subs	r3, r2, r3
 8004d20:	f241 3288 	movw	r2, #5000	; 0x1388
 8004d24:	4293      	cmp	r3, r2
 8004d26:	d901      	bls.n	8004d2c <HAL_RCC_OscConfig+0x350>
 8004d28:	2303      	movs	r3, #3
 8004d2a:	e0c5      	b.n	8004eb8 <HAL_RCC_OscConfig+0x4dc>
 8004d2c:	4b65      	ldr	r3, [pc, #404]	; (8004ec4 <HAL_RCC_OscConfig+0x4e8>)
 8004d2e:	6f1b      	ldr	r3, [r3, #112]	; 0x70
 8004d30:	f003 0302 	and.w	r3, r3, #2
 8004d34:	2b00      	cmp	r3, #0
 8004d36:	d0ee      	beq.n	8004d16 <HAL_RCC_OscConfig+0x33a>
 8004d38:	e014      	b.n	8004d64 <HAL_RCC_OscConfig+0x388>
 8004d3a:	f7fc fccd 	bl	80016d8 <HAL_GetTick>
 8004d3e:	6138      	str	r0, [r7, #16]
 8004d40:	e00a      	b.n	8004d58 <HAL_RCC_OscConfig+0x37c>
 8004d42:	f7fc fcc9 	bl	80016d8 <HAL_GetTick>
 8004d46:	4602      	mov	r2, r0
 8004d48:	693b      	ldr	r3, [r7, #16]
 8004d4a:	1ad3      	subs	r3, r2, r3
 8004d4c:	f241 3288 	movw	r2, #5000	; 0x1388
 8004d50:	4293      	cmp	r3, r2
 8004d52:	d901      	bls.n	8004d58 <HAL_RCC_OscConfig+0x37c>
 8004d54:	2303      	movs	r3, #3
 8004d56:	e0af      	b.n	8004eb8 <HAL_RCC_OscConfig+0x4dc>
 8004d58:	4b5a      	ldr	r3, [pc, #360]	; (8004ec4 <HAL_RCC_OscConfig+0x4e8>)
 8004d5a:	6f1b      	ldr	r3, [r3, #112]	; 0x70
 8004d5c:	f003 0302 	and.w	r3, r3, #2
 8004d60:	2b00      	cmp	r3, #0
 8004d62:	d1ee      	bne.n	8004d42 <HAL_RCC_OscConfig+0x366>
 8004d64:	7dfb      	ldrb	r3, [r7, #23]
 8004d66:	2b01      	cmp	r3, #1
 8004d68:	d105      	bne.n	8004d76 <HAL_RCC_OscConfig+0x39a>
 8004d6a:	4b56      	ldr	r3, [pc, #344]	; (8004ec4 <HAL_RCC_OscConfig+0x4e8>)
 8004d6c:	6c1b      	ldr	r3, [r3, #64]	; 0x40
 8004d6e:	4a55      	ldr	r2, [pc, #340]	; (8004ec4 <HAL_RCC_OscConfig+0x4e8>)
 8004d70:	f023 5380 	bic.w	r3, r3, #268435456	; 0x10000000
 8004d74:	6413      	str	r3, [r2, #64]	; 0x40
 8004d76:	687b      	ldr	r3, [r7, #4]
 8004d78:	699b      	ldr	r3, [r3, #24]
 8004d7a:	2b00      	cmp	r3, #0
 8004d7c:	f000 809b 	beq.w	8004eb6 <HAL_RCC_OscConfig+0x4da>
 8004d80:	4b50      	ldr	r3, [pc, #320]	; (8004ec4 <HAL_RCC_OscConfig+0x4e8>)
 8004d82:	689b      	ldr	r3, [r3, #8]
 8004d84:	f003 030c 	and.w	r3, r3, #12
 8004d88:	2b08      	cmp	r3, #8
 8004d8a:	d05c      	beq.n	8004e46 <HAL_RCC_OscConfig+0x46a>
 8004d8c:	687b      	ldr	r3, [r7, #4]
 8004d8e:	699b      	ldr	r3, [r3, #24]
 8004d90:	2b02      	cmp	r3, #2
 8004d92:	d141      	bne.n	8004e18 <HAL_RCC_OscConfig+0x43c>
 8004d94:	4b4c      	ldr	r3, [pc, #304]	; (8004ec8 <HAL_RCC_OscConfig+0x4ec>)
 8004d96:	2200      	movs	r2, #0
 8004d98:	601a      	str	r2, [r3, #0]
 8004d9a:	f7fc fc9d 	bl	80016d8 <HAL_GetTick>
 8004d9e:	6138      	str	r0, [r7, #16]
 8004da0:	e008      	b.n	8004db4 <HAL_RCC_OscConfig+0x3d8>
 8004da2:	f7fc fc99 	bl	80016d8 <HAL_GetTick>
 8004da6:	4602      	mov	r2, r0
 8004da8:	693b      	ldr	r3, [r7, #16]
 8004daa:	1ad3      	subs	r3, r2, r3
 8004dac:	2b02      	cmp	r3, #2
 8004dae:	d901      	bls.n	8004db4 <HAL_RCC_OscConfig+0x3d8>
 8004db0:	2303      	movs	r3, #3
 8004db2:	e081      	b.n	8004eb8 <HAL_RCC_OscConfig+0x4dc>
 8004db4:	4b43      	ldr	r3, [pc, #268]	; (8004ec4 <HAL_RCC_OscConfig+0x4e8>)
 8004db6:	681b      	ldr	r3, [r3, #0]
 8004db8:	f003 7300 	and.w	r3, r3, #33554432	; 0x2000000
 8004dbc:	2b00      	cmp	r3, #0
 8004dbe:	d1f0      	bne.n	8004da2 <HAL_RCC_OscConfig+0x3c6>
 8004dc0:	687b      	ldr	r3, [r7, #4]
 8004dc2:	69da      	ldr	r2, [r3, #28]
 8004dc4:	687b      	ldr	r3, [r7, #4]
 8004dc6:	6a1b      	ldr	r3, [r3, #32]
 8004dc8:	431a      	orrs	r2, r3
 8004dca:	687b      	ldr	r3, [r7, #4]
 8004dcc:	6a5b      	ldr	r3, [r3, #36]	; 0x24
 8004dce:	019b      	lsls	r3, r3, #6
 8004dd0:	431a      	orrs	r2, r3
 8004dd2:	687b      	ldr	r3, [r7, #4]
 8004dd4:	6a9b      	ldr	r3, [r3, #40]	; 0x28
 8004dd6:	085b      	lsrs	r3, r3, #1
 8004dd8:	3b01      	subs	r3, #1
 8004dda:	041b      	lsls	r3, r3, #16
 8004ddc:	431a      	orrs	r2, r3
 8004dde:	687b      	ldr	r3, [r7, #4]
 8004de0:	6adb      	ldr	r3, [r3, #44]	; 0x2c
 8004de2:	061b      	lsls	r3, r3, #24
 8004de4:	4937      	ldr	r1, [pc, #220]	; (8004ec4 <HAL_RCC_OscConfig+0x4e8>)
 8004de6:	4313      	orrs	r3, r2
 8004de8:	604b      	str	r3, [r1, #4]
 8004dea:	4b37      	ldr	r3, [pc, #220]	; (8004ec8 <HAL_RCC_OscConfig+0x4ec>)
 8004dec:	2201      	movs	r2, #1
 8004dee:	601a      	str	r2, [r3, #0]
 8004df0:	f7fc fc72 	bl	80016d8 <HAL_GetTick>
 8004df4:	6138      	str	r0, [r7, #16]
 8004df6:	e008      	b.n	8004e0a <HAL_RCC_OscConfig+0x42e>
 8004df8:	f7fc fc6e 	bl	80016d8 <HAL_GetTick>
 8004dfc:	4602      	mov	r2, r0
 8004dfe:	693b      	ldr	r3, [r7, #16]
 8004e00:	1ad3      	subs	r3, r2, r3
 8004e02:	2b02      	cmp	r3, #2
 8004e04:	d901      	bls.n	8004e0a <HAL_RCC_OscConfig+0x42e>
 8004e06:	2303      	movs	r3, #3
 8004e08:	e056      	b.n	8004eb8 <HAL_RCC_OscConfig+0x4dc>
 8004e0a:	4b2e      	ldr	r3, [pc, #184]	; (8004ec4 <HAL_RCC_OscConfig+0x4e8>)
 8004e0c:	681b      	ldr	r3, [r3, #0]
 8004e0e:	f003 7300 	and.w	r3, r3, #33554432	; 0x2000000
 8004e12:	2b00      	cmp	r3, #0
 8004e14:	d0f0      	beq.n	8004df8 <HAL_RCC_OscConfig+0x41c>
 8004e16:	e04e      	b.n	8004eb6 <HAL_RCC_OscConfig+0x4da>
 8004e18:	4b2b      	ldr	r3, [pc, #172]	; (8004ec8 <HAL_RCC_OscConfig+0x4ec>)
 8004e1a:	2200      	movs	r2, #0
 8004e1c:	601a      	str	r2, [r3, #0]
 8004e1e:	f7fc fc5b 	bl	80016d8 <HAL_GetTick>
 8004e22:	6138      	str	r0, [r7, #16]
 8004e24:	e008      	b.n	8004e38 <HAL_RCC_OscConfig+0x45c>
 8004e26:	f7fc fc57 	bl	80016d8 <HAL_GetTick>
 8004e2a:	4602      	mov	r2, r0
 8004e2c:	693b      	ldr	r3, [r7, #16]
 8004e2e:	1ad3      	subs	r3, r2, r3
 8004e30:	2b02      	cmp	r3, #2
 8004e32:	d901      	bls.n	8004e38 <HAL_RCC_OscConfig+0x45c>
 8004e34:	2303      	movs	r3, #3
 8004e36:	e03f      	b.n	8004eb8 <HAL_RCC_OscConfig+0x4dc>
 8004e38:	4b22      	ldr	r3, [pc, #136]	; (8004ec4 <HAL_RCC_OscConfig+0x4e8>)
 8004e3a:	681b      	ldr	r3, [r3, #0]
 8004e3c:	f003 7300 	and.w	r3, r3, #33554432	; 0x2000000
 8004e40:	2b00      	cmp	r3, #0
 8004e42:	d1f0      	bne.n	8004e26 <HAL_RCC_OscConfig+0x44a>
 8004e44:	e037      	b.n	8004eb6 <HAL_RCC_OscConfig+0x4da>
 8004e46:	687b      	ldr	r3, [r7, #4]
 8004e48:	699b      	ldr	r3, [r3, #24]
 8004e4a:	2b01      	cmp	r3, #1
 8004e4c:	d101      	bne.n	8004e52 <HAL_RCC_OscConfig+0x476>
 8004e4e:	2301      	movs	r3, #1
 8004e50:	e032      	b.n	8004eb8 <HAL_RCC_OscConfig+0x4dc>
 8004e52:	4b1c      	ldr	r3, [pc, #112]	; (8004ec4 <HAL_RCC_OscConfig+0x4e8>)
 8004e54:	685b      	ldr	r3, [r3, #4]
 8004e56:	60fb      	str	r3, [r7, #12]
 8004e58:	687b      	ldr	r3, [r7, #4]
 8004e5a:	699b      	ldr	r3, [r3, #24]
 8004e5c:	2b01      	cmp	r3, #1
 8004e5e:	d028      	beq.n	8004eb2 <HAL_RCC_OscConfig+0x4d6>
 8004e60:	68fb      	ldr	r3, [r7, #12]
 8004e62:	f403 0280 	and.w	r2, r3, #4194304	; 0x400000
 8004e66:	687b      	ldr	r3, [r7, #4]
 8004e68:	69db      	ldr	r3, [r3, #28]
 8004e6a:	429a      	cmp	r2, r3
 8004e6c:	d121      	bne.n	8004eb2 <HAL_RCC_OscConfig+0x4d6>
 8004e6e:	68fb      	ldr	r3, [r7, #12]
 8004e70:	f003 023f 	and.w	r2, r3, #63	; 0x3f
 8004e74:	687b      	ldr	r3, [r7, #4]
 8004e76:	6a1b      	ldr	r3, [r3, #32]
 8004e78:	429a      	cmp	r2, r3
 8004e7a:	d11a      	bne.n	8004eb2 <HAL_RCC_OscConfig+0x4d6>
 8004e7c:	68fa      	ldr	r2, [r7, #12]
 8004e7e:	f647 73c0 	movw	r3, #32704	; 0x7fc0
 8004e82:	4013      	ands	r3, r2
 8004e84:	687a      	ldr	r2, [r7, #4]
 8004e86:	6a52      	ldr	r2, [r2, #36]	; 0x24
 8004e88:	0192      	lsls	r2, r2, #6
 8004e8a:	4293      	cmp	r3, r2
 8004e8c:	d111      	bne.n	8004eb2 <HAL_RCC_OscConfig+0x4d6>
 8004e8e:	68fb      	ldr	r3, [r7, #12]
 8004e90:	f403 3240 	and.w	r2, r3, #196608	; 0x30000
 8004e94:	687b      	ldr	r3, [r7, #4]
 8004e96:	6a9b      	ldr	r3, [r3, #40]	; 0x28
 8004e98:	085b      	lsrs	r3, r3, #1
 8004e9a:	3b01      	subs	r3, #1
 8004e9c:	041b      	lsls	r3, r3, #16
 8004e9e:	429a      	cmp	r2, r3
 8004ea0:	d107      	bne.n	8004eb2 <HAL_RCC_OscConfig+0x4d6>
 8004ea2:	68fb      	ldr	r3, [r7, #12]
 8004ea4:	f003 6270 	and.w	r2, r3, #251658240	; 0xf000000
 8004ea8:	687b      	ldr	r3, [r7, #4]
 8004eaa:	6adb      	ldr	r3, [r3, #44]	; 0x2c
 8004eac:	061b      	lsls	r3, r3, #24
 8004eae:	429a      	cmp	r2, r3
 8004eb0:	d001      	beq.n	8004eb6 <HAL_RCC_OscConfig+0x4da>
 8004eb2:	2301      	movs	r3, #1
 8004eb4:	e000      	b.n	8004eb8 <HAL_RCC_OscConfig+0x4dc>
 8004eb6:	2300      	movs	r3, #0
 8004eb8:	4618      	mov	r0, r3
 8004eba:	3718      	adds	r7, #24
 8004ebc:	46bd      	mov	sp, r7
 8004ebe:	bd80      	pop	{r7, pc}
 8004ec0:	40007000 	.word	0x40007000
 8004ec4:	40023800 	.word	0x40023800
 8004ec8:	42470060 	.word	0x42470060

08004ecc <HAL_RCC_ClockConfig>:
 8004ecc:	b580      	push	{r7, lr}
 8004ece:	b084      	sub	sp, #16
 8004ed0:	af00      	add	r7, sp, #0
 8004ed2:	6078      	str	r0, [r7, #4]
 8004ed4:	6039      	str	r1, [r7, #0]
 8004ed6:	687b      	ldr	r3, [r7, #4]
 8004ed8:	2b00      	cmp	r3, #0
 8004eda:	d101      	bne.n	8004ee0 <HAL_RCC_ClockConfig+0x14>
 8004edc:	2301      	movs	r3, #1
 8004ede:	e0cc      	b.n	800507a <HAL_RCC_ClockConfig+0x1ae>
 8004ee0:	4b68      	ldr	r3, [pc, #416]	; (8005084 <HAL_RCC_ClockConfig+0x1b8>)
 8004ee2:	681b      	ldr	r3, [r3, #0]
 8004ee4:	f003 0307 	and.w	r3, r3, #7
 8004ee8:	683a      	ldr	r2, [r7, #0]
 8004eea:	429a      	cmp	r2, r3
 8004eec:	d90c      	bls.n	8004f08 <HAL_RCC_ClockConfig+0x3c>
 8004eee:	4b65      	ldr	r3, [pc, #404]	; (8005084 <HAL_RCC_ClockConfig+0x1b8>)
 8004ef0:	683a      	ldr	r2, [r7, #0]
 8004ef2:	b2d2      	uxtb	r2, r2
 8004ef4:	701a      	strb	r2, [r3, #0]
 8004ef6:	4b63      	ldr	r3, [pc, #396]	; (8005084 <HAL_RCC_ClockConfig+0x1b8>)
 8004ef8:	681b      	ldr	r3, [r3, #0]
 8004efa:	f003 0307 	and.w	r3, r3, #7
 8004efe:	683a      	ldr	r2, [r7, #0]
 8004f00:	429a      	cmp	r2, r3
 8004f02:	d001      	beq.n	8004f08 <HAL_RCC_ClockConfig+0x3c>
 8004f04:	2301      	movs	r3, #1
 8004f06:	e0b8      	b.n	800507a <HAL_RCC_ClockConfig+0x1ae>
 8004f08:	687b      	ldr	r3, [r7, #4]
 8004f0a:	681b      	ldr	r3, [r3, #0]
 8004f0c:	f003 0302 	and.w	r3, r3, #2
 8004f10:	2b00      	cmp	r3, #0
 8004f12:	d020      	beq.n	8004f56 <HAL_RCC_ClockConfig+0x8a>
 8004f14:	687b      	ldr	r3, [r7, #4]
 8004f16:	681b      	ldr	r3, [r3, #0]
 8004f18:	f003 0304 	and.w	r3, r3, #4
 8004f1c:	2b00      	cmp	r3, #0
 8004f1e:	d005      	beq.n	8004f2c <HAL_RCC_ClockConfig+0x60>
 8004f20:	4b59      	ldr	r3, [pc, #356]	; (8005088 <HAL_RCC_ClockConfig+0x1bc>)
 8004f22:	689b      	ldr	r3, [r3, #8]
 8004f24:	4a58      	ldr	r2, [pc, #352]	; (8005088 <HAL_RCC_ClockConfig+0x1bc>)
 8004f26:	f443 53e0 	orr.w	r3, r3, #7168	; 0x1c00
 8004f2a:	6093      	str	r3, [r2, #8]
 8004f2c:	687b      	ldr	r3, [r7, #4]
 8004f2e:	681b      	ldr	r3, [r3, #0]
 8004f30:	f003 0308 	and.w	r3, r3, #8
 8004f34:	2b00      	cmp	r3, #0
 8004f36:	d005      	beq.n	8004f44 <HAL_RCC_ClockConfig+0x78>
 8004f38:	4b53      	ldr	r3, [pc, #332]	; (8005088 <HAL_RCC_ClockConfig+0x1bc>)
 8004f3a:	689b      	ldr	r3, [r3, #8]
 8004f3c:	4a52      	ldr	r2, [pc, #328]	; (8005088 <HAL_RCC_ClockConfig+0x1bc>)
 8004f3e:	f443 4360 	orr.w	r3, r3, #57344	; 0xe000
 8004f42:	6093      	str	r3, [r2, #8]
 8004f44:	4b50      	ldr	r3, [pc, #320]	; (8005088 <HAL_RCC_ClockConfig+0x1bc>)
 8004f46:	689b      	ldr	r3, [r3, #8]
 8004f48:	f023 02f0 	bic.w	r2, r3, #240	; 0xf0
 8004f4c:	687b      	ldr	r3, [r7, #4]
 8004f4e:	689b      	ldr	r3, [r3, #8]
 8004f50:	494d      	ldr	r1, [pc, #308]	; (8005088 <HAL_RCC_ClockConfig+0x1bc>)
 8004f52:	4313      	orrs	r3, r2
 8004f54:	608b      	str	r3, [r1, #8]
 8004f56:	687b      	ldr	r3, [r7, #4]
 8004f58:	681b      	ldr	r3, [r3, #0]
 8004f5a:	f003 0301 	and.w	r3, r3, #1
 8004f5e:	2b00      	cmp	r3, #0
 8004f60:	d044      	beq.n	8004fec <HAL_RCC_ClockConfig+0x120>
 8004f62:	687b      	ldr	r3, [r7, #4]
 8004f64:	685b      	ldr	r3, [r3, #4]
 8004f66:	2b01      	cmp	r3, #1
 8004f68:	d107      	bne.n	8004f7a <HAL_RCC_ClockConfig+0xae>
 8004f6a:	4b47      	ldr	r3, [pc, #284]	; (8005088 <HAL_RCC_ClockConfig+0x1bc>)
 8004f6c:	681b      	ldr	r3, [r3, #0]
 8004f6e:	f403 3300 	and.w	r3, r3, #131072	; 0x20000
 8004f72:	2b00      	cmp	r3, #0
 8004f74:	d119      	bne.n	8004faa <HAL_RCC_ClockConfig+0xde>
 8004f76:	2301      	movs	r3, #1
 8004f78:	e07f      	b.n	800507a <HAL_RCC_ClockConfig+0x1ae>
 8004f7a:	687b      	ldr	r3, [r7, #4]
 8004f7c:	685b      	ldr	r3, [r3, #4]
 8004f7e:	2b02      	cmp	r3, #2
 8004f80:	d003      	beq.n	8004f8a <HAL_RCC_ClockConfig+0xbe>
 8004f82:	687b      	ldr	r3, [r7, #4]
 8004f84:	685b      	ldr	r3, [r3, #4]
 8004f86:	2b03      	cmp	r3, #3
 8004f88:	d107      	bne.n	8004f9a <HAL_RCC_ClockConfig+0xce>
 8004f8a:	4b3f      	ldr	r3, [pc, #252]	; (8005088 <HAL_RCC_ClockConfig+0x1bc>)
 8004f8c:	681b      	ldr	r3, [r3, #0]
 8004f8e:	f003 7300 	and.w	r3, r3, #33554432	; 0x2000000
 8004f92:	2b00      	cmp	r3, #0
 8004f94:	d109      	bne.n	8004faa <HAL_RCC_ClockConfig+0xde>
 8004f96:	2301      	movs	r3, #1
 8004f98:	e06f      	b.n	800507a <HAL_RCC_ClockConfig+0x1ae>
 8004f9a:	4b3b      	ldr	r3, [pc, #236]	; (8005088 <HAL_RCC_ClockConfig+0x1bc>)
 8004f9c:	681b      	ldr	r3, [r3, #0]
 8004f9e:	f003 0302 	and.w	r3, r3, #2
 8004fa2:	2b00      	cmp	r3, #0
 8004fa4:	d101      	bne.n	8004faa <HAL_RCC_ClockConfig+0xde>
 8004fa6:	2301      	movs	r3, #1
 8004fa8:	e067      	b.n	800507a <HAL_RCC_ClockConfig+0x1ae>
 8004faa:	4b37      	ldr	r3, [pc, #220]	; (8005088 <HAL_RCC_ClockConfig+0x1bc>)
 8004fac:	689b      	ldr	r3, [r3, #8]
 8004fae:	f023 0203 	bic.w	r2, r3, #3
 8004fb2:	687b      	ldr	r3, [r7, #4]
 8004fb4:	685b      	ldr	r3, [r3, #4]
 8004fb6:	4934      	ldr	r1, [pc, #208]	; (8005088 <HAL_RCC_ClockConfig+0x1bc>)
 8004fb8:	4313      	orrs	r3, r2
 8004fba:	608b      	str	r3, [r1, #8]
 8004fbc:	f7fc fb8c 	bl	80016d8 <HAL_GetTick>
 8004fc0:	60f8      	str	r0, [r7, #12]
 8004fc2:	e00a      	b.n	8004fda <HAL_RCC_ClockConfig+0x10e>
 8004fc4:	f7fc fb88 	bl	80016d8 <HAL_GetTick>
 8004fc8:	4602      	mov	r2, r0
 8004fca:	68fb      	ldr	r3, [r7, #12]
 8004fcc:	1ad3      	subs	r3, r2, r3
 8004fce:	f241 3288 	movw	r2, #5000	; 0x1388
 8004fd2:	4293      	cmp	r3, r2
 8004fd4:	d901      	bls.n	8004fda <HAL_RCC_ClockConfig+0x10e>
 8004fd6:	2303      	movs	r3, #3
 8004fd8:	e04f      	b.n	800507a <HAL_RCC_ClockConfig+0x1ae>
 8004fda:	4b2b      	ldr	r3, [pc, #172]	; (8005088 <HAL_RCC_ClockConfig+0x1bc>)
 8004fdc:	689b      	ldr	r3, [r3, #8]
 8004fde:	f003 020c 	and.w	r2, r3, #12
 8004fe2:	687b      	ldr	r3, [r7, #4]
 8004fe4:	685b      	ldr	r3, [r3, #4]
 8004fe6:	009b      	lsls	r3, r3, #2
 8004fe8:	429a      	cmp	r2, r3
 8004fea:	d1eb      	bne.n	8004fc4 <HAL_RCC_ClockConfig+0xf8>
 8004fec:	4b25      	ldr	r3, [pc, #148]	; (8005084 <HAL_RCC_ClockConfig+0x1b8>)
 8004fee:	681b      	ldr	r3, [r3, #0]
 8004ff0:	f003 0307 	and.w	r3, r3, #7
 8004ff4:	683a      	ldr	r2, [r7, #0]
 8004ff6:	429a      	cmp	r2, r3
 8004ff8:	d20c      	bcs.n	8005014 <HAL_RCC_ClockConfig+0x148>
 8004ffa:	4b22      	ldr	r3, [pc, #136]	; (8005084 <HAL_RCC_ClockConfig+0x1b8>)
 8004ffc:	683a      	ldr	r2, [r7, #0]
 8004ffe:	b2d2      	uxtb	r2, r2
 8005000:	701a      	strb	r2, [r3, #0]
 8005002:	4b20      	ldr	r3, [pc, #128]	; (8005084 <HAL_RCC_ClockConfig+0x1b8>)
 8005004:	681b      	ldr	r3, [r3, #0]
 8005006:	f003 0307 	and.w	r3, r3, #7
 800500a:	683a      	ldr	r2, [r7, #0]
 800500c:	429a      	cmp	r2, r3
 800500e:	d001      	beq.n	8005014 <HAL_RCC_ClockConfig+0x148>
 8005010:	2301      	movs	r3, #1
 8005012:	e032      	b.n	800507a <HAL_RCC_ClockConfig+0x1ae>
 8005014:	687b      	ldr	r3, [r7, #4]
 8005016:	681b      	ldr	r3, [r3, #0]
 8005018:	f003 0304 	and.w	r3, r3, #4
 800501c:	2b00      	cmp	r3, #0
 800501e:	d008      	beq.n	8005032 <HAL_RCC_ClockConfig+0x166>
 8005020:	4b19      	ldr	r3, [pc, #100]	; (8005088 <HAL_RCC_ClockConfig+0x1bc>)
 8005022:	689b      	ldr	r3, [r3, #8]
 8005024:	f423 52e0 	bic.w	r2, r3, #7168	; 0x1c00
 8005028:	687b      	ldr	r3, [r7, #4]
 800502a:	68db      	ldr	r3, [r3, #12]
 800502c:	4916      	ldr	r1, [pc, #88]	; (8005088 <HAL_RCC_ClockConfig+0x1bc>)
 800502e:	4313      	orrs	r3, r2
 8005030:	608b      	str	r3, [r1, #8]
 8005032:	687b      	ldr	r3, [r7, #4]
 8005034:	681b      	ldr	r3, [r3, #0]
 8005036:	f003 0308 	and.w	r3, r3, #8
 800503a:	2b00      	cmp	r3, #0
 800503c:	d009      	beq.n	8005052 <HAL_RCC_ClockConfig+0x186>
 800503e:	4b12      	ldr	r3, [pc, #72]	; (8005088 <HAL_RCC_ClockConfig+0x1bc>)
 8005040:	689b      	ldr	r3, [r3, #8]
 8005042:	f423 4260 	bic.w	r2, r3, #57344	; 0xe000
 8005046:	687b      	ldr	r3, [r7, #4]
 8005048:	691b      	ldr	r3, [r3, #16]
 800504a:	00db      	lsls	r3, r3, #3
 800504c:	490e      	ldr	r1, [pc, #56]	; (8005088 <HAL_RCC_ClockConfig+0x1bc>)
 800504e:	4313      	orrs	r3, r2
 8005050:	608b      	str	r3, [r1, #8]
 8005052:	f000 f821 	bl	8005098 <HAL_RCC_GetSysClockFreq>
 8005056:	4602      	mov	r2, r0
 8005058:	4b0b      	ldr	r3, [pc, #44]	; (8005088 <HAL_RCC_ClockConfig+0x1bc>)
 800505a:	689b      	ldr	r3, [r3, #8]
 800505c:	091b      	lsrs	r3, r3, #4
 800505e:	f003 030f 	and.w	r3, r3, #15
 8005062:	490a      	ldr	r1, [pc, #40]	; (800508c <HAL_RCC_ClockConfig+0x1c0>)
 8005064:	5ccb      	ldrb	r3, [r1, r3]
 8005066:	fa22 f303 	lsr.w	r3, r2, r3
 800506a:	4a09      	ldr	r2, [pc, #36]	; (8005090 <HAL_RCC_ClockConfig+0x1c4>)
 800506c:	6013      	str	r3, [r2, #0]
 800506e:	4b09      	ldr	r3, [pc, #36]	; (8005094 <HAL_RCC_ClockConfig+0x1c8>)
 8005070:	681b      	ldr	r3, [r3, #0]
 8005072:	4618      	mov	r0, r3
 8005074:	f7fc f93a 	bl	80012ec <HAL_InitTick>
 8005078:	2300      	movs	r3, #0
 800507a:	4618      	mov	r0, r3
 800507c:	3710      	adds	r7, #16
 800507e:	46bd      	mov	sp, r7
 8005080:	bd80      	pop	{r7, pc}
 8005082:	bf00      	nop
 8005084:	40023c00 	.word	0x40023c00
 8005088:	40023800 	.word	0x40023800
 800508c:	0800892c 	.word	0x0800892c
 8005090:	2000001c 	.word	0x2000001c
 8005094:	20000020 	.word	0x20000020

08005098 <HAL_RCC_GetSysClockFreq>:
 8005098:	e92d 43b0 	stmdb	sp!, {r4, r5, r7, r8, r9, lr}
 800509c:	b084      	sub	sp, #16
 800509e:	af00      	add	r7, sp, #0
 80050a0:	2300      	movs	r3, #0
 80050a2:	607b      	str	r3, [r7, #4]
 80050a4:	2300      	movs	r3, #0
 80050a6:	60fb      	str	r3, [r7, #12]
 80050a8:	2300      	movs	r3, #0
 80050aa:	603b      	str	r3, [r7, #0]
 80050ac:	2300      	movs	r3, #0
 80050ae:	60bb      	str	r3, [r7, #8]
 80050b0:	4b67      	ldr	r3, [pc, #412]	; (8005250 <HAL_RCC_GetSysClockFreq+0x1b8>)
 80050b2:	689b      	ldr	r3, [r3, #8]
 80050b4:	f003 030c 	and.w	r3, r3, #12
 80050b8:	2b08      	cmp	r3, #8
 80050ba:	d00d      	beq.n	80050d8 <HAL_RCC_GetSysClockFreq+0x40>
 80050bc:	2b08      	cmp	r3, #8
 80050be:	f200 80bd 	bhi.w	800523c <HAL_RCC_GetSysClockFreq+0x1a4>
 80050c2:	2b00      	cmp	r3, #0
 80050c4:	d002      	beq.n	80050cc <HAL_RCC_GetSysClockFreq+0x34>
 80050c6:	2b04      	cmp	r3, #4
 80050c8:	d003      	beq.n	80050d2 <HAL_RCC_GetSysClockFreq+0x3a>
 80050ca:	e0b7      	b.n	800523c <HAL_RCC_GetSysClockFreq+0x1a4>
 80050cc:	4b61      	ldr	r3, [pc, #388]	; (8005254 <HAL_RCC_GetSysClockFreq+0x1bc>)
 80050ce:	60bb      	str	r3, [r7, #8]
 80050d0:	e0b7      	b.n	8005242 <HAL_RCC_GetSysClockFreq+0x1aa>
 80050d2:	4b61      	ldr	r3, [pc, #388]	; (8005258 <HAL_RCC_GetSysClockFreq+0x1c0>)
 80050d4:	60bb      	str	r3, [r7, #8]
 80050d6:	e0b4      	b.n	8005242 <HAL_RCC_GetSysClockFreq+0x1aa>
 80050d8:	4b5d      	ldr	r3, [pc, #372]	; (8005250 <HAL_RCC_GetSysClockFreq+0x1b8>)
 80050da:	685b      	ldr	r3, [r3, #4]
 80050dc:	f003 033f 	and.w	r3, r3, #63	; 0x3f
 80050e0:	607b      	str	r3, [r7, #4]
 80050e2:	4b5b      	ldr	r3, [pc, #364]	; (8005250 <HAL_RCC_GetSysClockFreq+0x1b8>)
 80050e4:	685b      	ldr	r3, [r3, #4]
 80050e6:	f403 0380 	and.w	r3, r3, #4194304	; 0x400000
 80050ea:	2b00      	cmp	r3, #0
 80050ec:	d04d      	beq.n	800518a <HAL_RCC_GetSysClockFreq+0xf2>
 80050ee:	4b58      	ldr	r3, [pc, #352]	; (8005250 <HAL_RCC_GetSysClockFreq+0x1b8>)
 80050f0:	685b      	ldr	r3, [r3, #4]
 80050f2:	099b      	lsrs	r3, r3, #6
 80050f4:	461a      	mov	r2, r3
 80050f6:	f04f 0300 	mov.w	r3, #0
 80050fa:	f240 10ff 	movw	r0, #511	; 0x1ff
 80050fe:	f04f 0100 	mov.w	r1, #0
 8005102:	ea02 0800 	and.w	r8, r2, r0
 8005106:	ea03 0901 	and.w	r9, r3, r1
 800510a:	4640      	mov	r0, r8
 800510c:	4649      	mov	r1, r9
 800510e:	f04f 0200 	mov.w	r2, #0
 8005112:	f04f 0300 	mov.w	r3, #0
 8005116:	014b      	lsls	r3, r1, #5
 8005118:	ea43 63d0 	orr.w	r3, r3, r0, lsr #27
 800511c:	0142      	lsls	r2, r0, #5
 800511e:	4610      	mov	r0, r2
 8005120:	4619      	mov	r1, r3
 8005122:	ebb0 0008 	subs.w	r0, r0, r8
 8005126:	eb61 0109 	sbc.w	r1, r1, r9
 800512a:	f04f 0200 	mov.w	r2, #0
 800512e:	f04f 0300 	mov.w	r3, #0
 8005132:	018b      	lsls	r3, r1, #6
 8005134:	ea43 6390 	orr.w	r3, r3, r0, lsr #26
 8005138:	0182      	lsls	r2, r0, #6
 800513a:	1a12      	subs	r2, r2, r0
 800513c:	eb63 0301 	sbc.w	r3, r3, r1
 8005140:	f04f 0000 	mov.w	r0, #0
 8005144:	f04f 0100 	mov.w	r1, #0
 8005148:	00d9      	lsls	r1, r3, #3
 800514a:	ea41 7152 	orr.w	r1, r1, r2, lsr #29
 800514e:	00d0      	lsls	r0, r2, #3
 8005150:	4602      	mov	r2, r0
 8005152:	460b      	mov	r3, r1
 8005154:	eb12 0208 	adds.w	r2, r2, r8
 8005158:	eb43 0309 	adc.w	r3, r3, r9
 800515c:	f04f 0000 	mov.w	r0, #0
 8005160:	f04f 0100 	mov.w	r1, #0
 8005164:	0259      	lsls	r1, r3, #9
 8005166:	ea41 51d2 	orr.w	r1, r1, r2, lsr #23
 800516a:	0250      	lsls	r0, r2, #9
 800516c:	4602      	mov	r2, r0
 800516e:	460b      	mov	r3, r1
 8005170:	4610      	mov	r0, r2
 8005172:	4619      	mov	r1, r3
 8005174:	687b      	ldr	r3, [r7, #4]
 8005176:	461a      	mov	r2, r3
 8005178:	f04f 0300 	mov.w	r3, #0
 800517c:	f7fb f828 	bl	80001d0 <__aeabi_uldivmod>
 8005180:	4602      	mov	r2, r0
 8005182:	460b      	mov	r3, r1
 8005184:	4613      	mov	r3, r2
 8005186:	60fb      	str	r3, [r7, #12]
 8005188:	e04a      	b.n	8005220 <HAL_RCC_GetSysClockFreq+0x188>
 800518a:	4b31      	ldr	r3, [pc, #196]	; (8005250 <HAL_RCC_GetSysClockFreq+0x1b8>)
 800518c:	685b      	ldr	r3, [r3, #4]
 800518e:	099b      	lsrs	r3, r3, #6
 8005190:	461a      	mov	r2, r3
 8005192:	f04f 0300 	mov.w	r3, #0
 8005196:	f240 10ff 	movw	r0, #511	; 0x1ff
 800519a:	f04f 0100 	mov.w	r1, #0
 800519e:	ea02 0400 	and.w	r4, r2, r0
 80051a2:	ea03 0501 	and.w	r5, r3, r1
 80051a6:	4620      	mov	r0, r4
 80051a8:	4629      	mov	r1, r5
 80051aa:	f04f 0200 	mov.w	r2, #0
 80051ae:	f04f 0300 	mov.w	r3, #0
 80051b2:	014b      	lsls	r3, r1, #5
 80051b4:	ea43 63d0 	orr.w	r3, r3, r0, lsr #27
 80051b8:	0142      	lsls	r2, r0, #5
 80051ba:	4610      	mov	r0, r2
 80051bc:	4619      	mov	r1, r3
 80051be:	1b00      	subs	r0, r0, r4
 80051c0:	eb61 0105 	sbc.w	r1, r1, r5
 80051c4:	f04f 0200 	mov.w	r2, #0
 80051c8:	f04f 0300 	mov.w	r3, #0
 80051cc:	018b      	lsls	r3, r1, #6
 80051ce:	ea43 6390 	orr.w	r3, r3, r0, lsr #26
 80051d2:	0182      	lsls	r2, r0, #6
 80051d4:	1a12      	subs	r2, r2, r0
 80051d6:	eb63 0301 	sbc.w	r3, r3, r1
 80051da:	f04f 0000 	mov.w	r0, #0
 80051de:	f04f 0100 	mov.w	r1, #0
 80051e2:	00d9      	lsls	r1, r3, #3
 80051e4:	ea41 7152 	orr.w	r1, r1, r2, lsr #29
 80051e8:	00d0      	lsls	r0, r2, #3
 80051ea:	4602      	mov	r2, r0
 80051ec:	460b      	mov	r3, r1
 80051ee:	1912      	adds	r2, r2, r4
 80051f0:	eb45 0303 	adc.w	r3, r5, r3
 80051f4:	f04f 0000 	mov.w	r0, #0
 80051f8:	f04f 0100 	mov.w	r1, #0
 80051fc:	0299      	lsls	r1, r3, #10
 80051fe:	ea41 5192 	orr.w	r1, r1, r2, lsr #22
 8005202:	0290      	lsls	r0, r2, #10
 8005204:	4602      	mov	r2, r0
 8005206:	460b      	mov	r3, r1
 8005208:	4610      	mov	r0, r2
 800520a:	4619      	mov	r1, r3
 800520c:	687b      	ldr	r3, [r7, #4]
 800520e:	461a      	mov	r2, r3
 8005210:	f04f 0300 	mov.w	r3, #0
 8005214:	f7fa ffdc 	bl	80001d0 <__aeabi_uldivmod>
 8005218:	4602      	mov	r2, r0
 800521a:	460b      	mov	r3, r1
 800521c:	4613      	mov	r3, r2
 800521e:	60fb      	str	r3, [r7, #12]
 8005220:	4b0b      	ldr	r3, [pc, #44]	; (8005250 <HAL_RCC_GetSysClockFreq+0x1b8>)
 8005222:	685b      	ldr	r3, [r3, #4]
 8005224:	0c1b      	lsrs	r3, r3, #16
 8005226:	f003 0303 	and.w	r3, r3, #3
 800522a:	3301      	adds	r3, #1
 800522c:	005b      	lsls	r3, r3, #1
 800522e:	603b      	str	r3, [r7, #0]
 8005230:	68fa      	ldr	r2, [r7, #12]
 8005232:	683b      	ldr	r3, [r7, #0]
 8005234:	fbb2 f3f3 	udiv	r3, r2, r3
 8005238:	60bb      	str	r3, [r7, #8]
 800523a:	e002      	b.n	8005242 <HAL_RCC_GetSysClockFreq+0x1aa>
 800523c:	4b05      	ldr	r3, [pc, #20]	; (8005254 <HAL_RCC_GetSysClockFreq+0x1bc>)
 800523e:	60bb      	str	r3, [r7, #8]
 8005240:	bf00      	nop
 8005242:	68bb      	ldr	r3, [r7, #8]
 8005244:	4618      	mov	r0, r3
 8005246:	3710      	adds	r7, #16
 8005248:	46bd      	mov	sp, r7
 800524a:	e8bd 83b0 	ldmia.w	sp!, {r4, r5, r7, r8, r9, pc}
 800524e:	bf00      	nop
 8005250:	40023800 	.word	0x40023800
 8005254:	00f42400 	.word	0x00f42400
 8005258:	007a1200 	.word	0x007a1200

0800525c <HAL_RCC_GetHCLKFreq>:
 800525c:	b480      	push	{r7}
 800525e:	af00      	add	r7, sp, #0
 8005260:	4b03      	ldr	r3, [pc, #12]	; (8005270 <HAL_RCC_GetHCLKFreq+0x14>)
 8005262:	681b      	ldr	r3, [r3, #0]
 8005264:	4618      	mov	r0, r3
 8005266:	46bd      	mov	sp, r7
 8005268:	f85d 7b04 	ldr.w	r7, [sp], #4
 800526c:	4770      	bx	lr
 800526e:	bf00      	nop
 8005270:	2000001c 	.word	0x2000001c

08005274 <HAL_RCC_GetPCLK1Freq>:
 8005274:	b580      	push	{r7, lr}
 8005276:	af00      	add	r7, sp, #0
 8005278:	f7ff fff0 	bl	800525c <HAL_RCC_GetHCLKFreq>
 800527c:	4602      	mov	r2, r0
 800527e:	4b05      	ldr	r3, [pc, #20]	; (8005294 <HAL_RCC_GetPCLK1Freq+0x20>)
 8005280:	689b      	ldr	r3, [r3, #8]
 8005282:	0a9b      	lsrs	r3, r3, #10
 8005284:	f003 0307 	and.w	r3, r3, #7
 8005288:	4903      	ldr	r1, [pc, #12]	; (8005298 <HAL_RCC_GetPCLK1Freq+0x24>)
 800528a:	5ccb      	ldrb	r3, [r1, r3]
 800528c:	fa22 f303 	lsr.w	r3, r2, r3
 8005290:	4618      	mov	r0, r3
 8005292:	bd80      	pop	{r7, pc}
 8005294:	40023800 	.word	0x40023800
 8005298:	0800893c 	.word	0x0800893c

0800529c <HAL_RCC_GetPCLK2Freq>:
 800529c:	b580      	push	{r7, lr}
 800529e:	af00      	add	r7, sp, #0
 80052a0:	f7ff ffdc 	bl	800525c <HAL_RCC_GetHCLKFreq>
 80052a4:	4602      	mov	r2, r0
 80052a6:	4b05      	ldr	r3, [pc, #20]	; (80052bc <HAL_RCC_GetPCLK2Freq+0x20>)
 80052a8:	689b      	ldr	r3, [r3, #8]
 80052aa:	0b5b      	lsrs	r3, r3, #13
 80052ac:	f003 0307 	and.w	r3, r3, #7
 80052b0:	4903      	ldr	r1, [pc, #12]	; (80052c0 <HAL_RCC_GetPCLK2Freq+0x24>)
 80052b2:	5ccb      	ldrb	r3, [r1, r3]
 80052b4:	fa22 f303 	lsr.w	r3, r2, r3
 80052b8:	4618      	mov	r0, r3
 80052ba:	bd80      	pop	{r7, pc}
 80052bc:	40023800 	.word	0x40023800
 80052c0:	0800893c 	.word	0x0800893c

080052c4 <HAL_RCC_GetClockConfig>:
 80052c4:	b480      	push	{r7}
 80052c6:	b083      	sub	sp, #12
 80052c8:	af00      	add	r7, sp, #0
 80052ca:	6078      	str	r0, [r7, #4]
 80052cc:	6039      	str	r1, [r7, #0]
 80052ce:	687b      	ldr	r3, [r7, #4]
 80052d0:	220f      	movs	r2, #15
 80052d2:	601a      	str	r2, [r3, #0]
 80052d4:	4b12      	ldr	r3, [pc, #72]	; (8005320 <HAL_RCC_GetClockConfig+0x5c>)
 80052d6:	689b      	ldr	r3, [r3, #8]
 80052d8:	f003 0203 	and.w	r2, r3, #3
 80052dc:	687b      	ldr	r3, [r7, #4]
 80052de:	605a      	str	r2, [r3, #4]
 80052e0:	4b0f      	ldr	r3, [pc, #60]	; (8005320 <HAL_RCC_GetClockConfig+0x5c>)
 80052e2:	689b      	ldr	r3, [r3, #8]
 80052e4:	f003 02f0 	and.w	r2, r3, #240	; 0xf0
 80052e8:	687b      	ldr	r3, [r7, #4]
 80052ea:	609a      	str	r2, [r3, #8]
 80052ec:	4b0c      	ldr	r3, [pc, #48]	; (8005320 <HAL_RCC_GetClockConfig+0x5c>)
 80052ee:	689b      	ldr	r3, [r3, #8]
 80052f0:	f403 52e0 	and.w	r2, r3, #7168	; 0x1c00
 80052f4:	687b      	ldr	r3, [r7, #4]
 80052f6:	60da      	str	r2, [r3, #12]
 80052f8:	4b09      	ldr	r3, [pc, #36]	; (8005320 <HAL_RCC_GetClockConfig+0x5c>)
 80052fa:	689b      	ldr	r3, [r3, #8]
 80052fc:	08db      	lsrs	r3, r3, #3
 80052fe:	f403 52e0 	and.w	r2, r3, #7168	; 0x1c00
 8005302:	687b      	ldr	r3, [r7, #4]
 8005304:	611a      	str	r2, [r3, #16]
 8005306:	4b07      	ldr	r3, [pc, #28]	; (8005324 <HAL_RCC_GetClockConfig+0x60>)
 8005308:	681b      	ldr	r3, [r3, #0]
 800530a:	f003 0207 	and.w	r2, r3, #7
 800530e:	683b      	ldr	r3, [r7, #0]
 8005310:	601a      	str	r2, [r3, #0]
 8005312:	bf00      	nop
 8005314:	370c      	adds	r7, #12
 8005316:	46bd      	mov	sp, r7
 8005318:	f85d 7b04 	ldr.w	r7, [sp], #4
 800531c:	4770      	bx	lr
 800531e:	bf00      	nop
 8005320:	40023800 	.word	0x40023800
 8005324:	40023c00 	.word	0x40023c00

08005328 <HAL_TIM_Base_Init>:
 8005328:	b580      	push	{r7, lr}
 800532a:	b082      	sub	sp, #8
 800532c:	af00      	add	r7, sp, #0
 800532e:	6078      	str	r0, [r7, #4]
 8005330:	687b      	ldr	r3, [r7, #4]
 8005332:	2b00      	cmp	r3, #0
 8005334:	d101      	bne.n	800533a <HAL_TIM_Base_Init+0x12>
 8005336:	2301      	movs	r3, #1
 8005338:	e041      	b.n	80053be <HAL_TIM_Base_Init+0x96>
 800533a:	687b      	ldr	r3, [r7, #4]
 800533c:	f893 303d 	ldrb.w	r3, [r3, #61]	; 0x3d
 8005340:	b2db      	uxtb	r3, r3
 8005342:	2b00      	cmp	r3, #0
 8005344:	d106      	bne.n	8005354 <HAL_TIM_Base_Init+0x2c>
 8005346:	687b      	ldr	r3, [r7, #4]
 8005348:	2200      	movs	r2, #0
 800534a:	f883 203c 	strb.w	r2, [r3, #60]	; 0x3c
 800534e:	6878      	ldr	r0, [r7, #4]
 8005350:	f000 f839 	bl	80053c6 <HAL_TIM_Base_MspInit>
 8005354:	687b      	ldr	r3, [r7, #4]
 8005356:	2202      	movs	r2, #2
 8005358:	f883 203d 	strb.w	r2, [r3, #61]	; 0x3d
 800535c:	687b      	ldr	r3, [r7, #4]
 800535e:	681a      	ldr	r2, [r3, #0]
 8005360:	687b      	ldr	r3, [r7, #4]
 8005362:	3304      	adds	r3, #4
 8005364:	4619      	mov	r1, r3
 8005366:	4610      	mov	r0, r2
 8005368:	f000 f9d8 	bl	800571c <TIM_Base_SetConfig>
 800536c:	687b      	ldr	r3, [r7, #4]
 800536e:	2201      	movs	r2, #1
 8005370:	f883 2046 	strb.w	r2, [r3, #70]	; 0x46
 8005374:	687b      	ldr	r3, [r7, #4]
 8005376:	2201      	movs	r2, #1
 8005378:	f883 203e 	strb.w	r2, [r3, #62]	; 0x3e
 800537c:	687b      	ldr	r3, [r7, #4]
 800537e:	2201      	movs	r2, #1
 8005380:	f883 203f 	strb.w	r2, [r3, #63]	; 0x3f
 8005384:	687b      	ldr	r3, [r7, #4]
 8005386:	2201      	movs	r2, #1
 8005388:	f883 2040 	strb.w	r2, [r3, #64]	; 0x40
 800538c:	687b      	ldr	r3, [r7, #4]
 800538e:	2201      	movs	r2, #1
 8005390:	f883 2041 	strb.w	r2, [r3, #65]	; 0x41
 8005394:	687b      	ldr	r3, [r7, #4]
 8005396:	2201      	movs	r2, #1
 8005398:	f883 2042 	strb.w	r2, [r3, #66]	; 0x42
 800539c:	687b      	ldr	r3, [r7, #4]
 800539e:	2201      	movs	r2, #1
 80053a0:	f883 2043 	strb.w	r2, [r3, #67]	; 0x43
 80053a4:	687b      	ldr	r3, [r7, #4]
 80053a6:	2201      	movs	r2, #1
 80053a8:	f883 2044 	strb.w	r2, [r3, #68]	; 0x44
 80053ac:	687b      	ldr	r3, [r7, #4]
 80053ae:	2201      	movs	r2, #1
 80053b0:	f883 2045 	strb.w	r2, [r3, #69]	; 0x45
 80053b4:	687b      	ldr	r3, [r7, #4]
 80053b6:	2201      	movs	r2, #1
 80053b8:	f883 203d 	strb.w	r2, [r3, #61]	; 0x3d
 80053bc:	2300      	movs	r3, #0
 80053be:	4618      	mov	r0, r3
 80053c0:	3708      	adds	r7, #8
 80053c2:	46bd      	mov	sp, r7
 80053c4:	bd80      	pop	{r7, pc}

080053c6 <HAL_TIM_Base_MspInit>:
 80053c6:	b480      	push	{r7}
 80053c8:	b083      	sub	sp, #12
 80053ca:	af00      	add	r7, sp, #0
 80053cc:	6078      	str	r0, [r7, #4]
 80053ce:	bf00      	nop
 80053d0:	370c      	adds	r7, #12
 80053d2:	46bd      	mov	sp, r7
 80053d4:	f85d 7b04 	ldr.w	r7, [sp], #4
 80053d8:	4770      	bx	lr
	...

080053dc <HAL_TIM_Base_Start_IT>:
 80053dc:	b480      	push	{r7}
 80053de:	b085      	sub	sp, #20
 80053e0:	af00      	add	r7, sp, #0
 80053e2:	6078      	str	r0, [r7, #4]
 80053e4:	687b      	ldr	r3, [r7, #4]
 80053e6:	f893 303d 	ldrb.w	r3, [r3, #61]	; 0x3d
 80053ea:	b2db      	uxtb	r3, r3
 80053ec:	2b01      	cmp	r3, #1
 80053ee:	d001      	beq.n	80053f4 <HAL_TIM_Base_Start_IT+0x18>
 80053f0:	2301      	movs	r3, #1
 80053f2:	e04e      	b.n	8005492 <HAL_TIM_Base_Start_IT+0xb6>
 80053f4:	687b      	ldr	r3, [r7, #4]
 80053f6:	2202      	movs	r2, #2
 80053f8:	f883 203d 	strb.w	r2, [r3, #61]	; 0x3d
 80053fc:	687b      	ldr	r3, [r7, #4]
 80053fe:	681b      	ldr	r3, [r3, #0]
 8005400:	68da      	ldr	r2, [r3, #12]
 8005402:	687b      	ldr	r3, [r7, #4]
 8005404:	681b      	ldr	r3, [r3, #0]
 8005406:	f042 0201 	orr.w	r2, r2, #1
 800540a:	60da      	str	r2, [r3, #12]
 800540c:	687b      	ldr	r3, [r7, #4]
 800540e:	681b      	ldr	r3, [r3, #0]
 8005410:	4a23      	ldr	r2, [pc, #140]	; (80054a0 <HAL_TIM_Base_Start_IT+0xc4>)
 8005412:	4293      	cmp	r3, r2
 8005414:	d022      	beq.n	800545c <HAL_TIM_Base_Start_IT+0x80>
 8005416:	687b      	ldr	r3, [r7, #4]
 8005418:	681b      	ldr	r3, [r3, #0]
 800541a:	f1b3 4f80 	cmp.w	r3, #1073741824	; 0x40000000
 800541e:	d01d      	beq.n	800545c <HAL_TIM_Base_Start_IT+0x80>
 8005420:	687b      	ldr	r3, [r7, #4]
 8005422:	681b      	ldr	r3, [r3, #0]
 8005424:	4a1f      	ldr	r2, [pc, #124]	; (80054a4 <HAL_TIM_Base_Start_IT+0xc8>)
 8005426:	4293      	cmp	r3, r2
 8005428:	d018      	beq.n	800545c <HAL_TIM_Base_Start_IT+0x80>
 800542a:	687b      	ldr	r3, [r7, #4]
 800542c:	681b      	ldr	r3, [r3, #0]
 800542e:	4a1e      	ldr	r2, [pc, #120]	; (80054a8 <HAL_TIM_Base_Start_IT+0xcc>)
 8005430:	4293      	cmp	r3, r2
 8005432:	d013      	beq.n	800545c <HAL_TIM_Base_Start_IT+0x80>
 8005434:	687b      	ldr	r3, [r7, #4]
 8005436:	681b      	ldr	r3, [r3, #0]
 8005438:	4a1c      	ldr	r2, [pc, #112]	; (80054ac <HAL_TIM_Base_Start_IT+0xd0>)
 800543a:	4293      	cmp	r3, r2
 800543c:	d00e      	beq.n	800545c <HAL_TIM_Base_Start_IT+0x80>
 800543e:	687b      	ldr	r3, [r7, #4]
 8005440:	681b      	ldr	r3, [r3, #0]
 8005442:	4a1b      	ldr	r2, [pc, #108]	; (80054b0 <HAL_TIM_Base_Start_IT+0xd4>)
 8005444:	4293      	cmp	r3, r2
 8005446:	d009      	beq.n	800545c <HAL_TIM_Base_Start_IT+0x80>
 8005448:	687b      	ldr	r3, [r7, #4]
 800544a:	681b      	ldr	r3, [r3, #0]
 800544c:	4a19      	ldr	r2, [pc, #100]	; (80054b4 <HAL_TIM_Base_Start_IT+0xd8>)
 800544e:	4293      	cmp	r3, r2
 8005450:	d004      	beq.n	800545c <HAL_TIM_Base_Start_IT+0x80>
 8005452:	687b      	ldr	r3, [r7, #4]
 8005454:	681b      	ldr	r3, [r3, #0]
 8005456:	4a18      	ldr	r2, [pc, #96]	; (80054b8 <HAL_TIM_Base_Start_IT+0xdc>)
 8005458:	4293      	cmp	r3, r2
 800545a:	d111      	bne.n	8005480 <HAL_TIM_Base_Start_IT+0xa4>
 800545c:	687b      	ldr	r3, [r7, #4]
 800545e:	681b      	ldr	r3, [r3, #0]
 8005460:	689b      	ldr	r3, [r3, #8]
 8005462:	f003 0307 	and.w	r3, r3, #7
 8005466:	60fb      	str	r3, [r7, #12]
 8005468:	68fb      	ldr	r3, [r7, #12]
 800546a:	2b06      	cmp	r3, #6
 800546c:	d010      	beq.n	8005490 <HAL_TIM_Base_Start_IT+0xb4>
 800546e:	687b      	ldr	r3, [r7, #4]
 8005470:	681b      	ldr	r3, [r3, #0]
 8005472:	681a      	ldr	r2, [r3, #0]
 8005474:	687b      	ldr	r3, [r7, #4]
 8005476:	681b      	ldr	r3, [r3, #0]
 8005478:	f042 0201 	orr.w	r2, r2, #1
 800547c:	601a      	str	r2, [r3, #0]
 800547e:	e007      	b.n	8005490 <HAL_TIM_Base_Start_IT+0xb4>
 8005480:	687b      	ldr	r3, [r7, #4]
 8005482:	681b      	ldr	r3, [r3, #0]
 8005484:	681a      	ldr	r2, [r3, #0]
 8005486:	687b      	ldr	r3, [r7, #4]
 8005488:	681b      	ldr	r3, [r3, #0]
 800548a:	f042 0201 	orr.w	r2, r2, #1
 800548e:	601a      	str	r2, [r3, #0]
 8005490:	2300      	movs	r3, #0
 8005492:	4618      	mov	r0, r3
 8005494:	3714      	adds	r7, #20
 8005496:	46bd      	mov	sp, r7
 8005498:	f85d 7b04 	ldr.w	r7, [sp], #4
 800549c:	4770      	bx	lr
 800549e:	bf00      	nop
 80054a0:	40010000 	.word	0x40010000
 80054a4:	40000400 	.word	0x40000400
 80054a8:	40000800 	.word	0x40000800
 80054ac:	40000c00 	.word	0x40000c00
 80054b0:	40010400 	.word	0x40010400
 80054b4:	40014000 	.word	0x40014000
 80054b8:	40001800 	.word	0x40001800

080054bc <HAL_TIM_IRQHandler>:
 80054bc:	b580      	push	{r7, lr}
 80054be:	b082      	sub	sp, #8
 80054c0:	af00      	add	r7, sp, #0
 80054c2:	6078      	str	r0, [r7, #4]
 80054c4:	687b      	ldr	r3, [r7, #4]
 80054c6:	681b      	ldr	r3, [r3, #0]
 80054c8:	691b      	ldr	r3, [r3, #16]
 80054ca:	f003 0302 	and.w	r3, r3, #2
 80054ce:	2b02      	cmp	r3, #2
 80054d0:	d122      	bne.n	8005518 <HAL_TIM_IRQHandler+0x5c>
 80054d2:	687b      	ldr	r3, [r7, #4]
 80054d4:	681b      	ldr	r3, [r3, #0]
 80054d6:	68db      	ldr	r3, [r3, #12]
 80054d8:	f003 0302 	and.w	r3, r3, #2
 80054dc:	2b02      	cmp	r3, #2
 80054de:	d11b      	bne.n	8005518 <HAL_TIM_IRQHandler+0x5c>
 80054e0:	687b      	ldr	r3, [r7, #4]
 80054e2:	681b      	ldr	r3, [r3, #0]
 80054e4:	f06f 0202 	mvn.w	r2, #2
 80054e8:	611a      	str	r2, [r3, #16]
 80054ea:	687b      	ldr	r3, [r7, #4]
 80054ec:	2201      	movs	r2, #1
 80054ee:	771a      	strb	r2, [r3, #28]
 80054f0:	687b      	ldr	r3, [r7, #4]
 80054f2:	681b      	ldr	r3, [r3, #0]
 80054f4:	699b      	ldr	r3, [r3, #24]
 80054f6:	f003 0303 	and.w	r3, r3, #3
 80054fa:	2b00      	cmp	r3, #0
 80054fc:	d003      	beq.n	8005506 <HAL_TIM_IRQHandler+0x4a>
 80054fe:	6878      	ldr	r0, [r7, #4]
 8005500:	f000 f8ee 	bl	80056e0 <HAL_TIM_IC_CaptureCallback>
 8005504:	e005      	b.n	8005512 <HAL_TIM_IRQHandler+0x56>
 8005506:	6878      	ldr	r0, [r7, #4]
 8005508:	f000 f8e0 	bl	80056cc <HAL_TIM_OC_DelayElapsedCallback>
 800550c:	6878      	ldr	r0, [r7, #4]
 800550e:	f000 f8f1 	bl	80056f4 <HAL_TIM_PWM_PulseFinishedCallback>
 8005512:	687b      	ldr	r3, [r7, #4]
 8005514:	2200      	movs	r2, #0
 8005516:	771a      	strb	r2, [r3, #28]
 8005518:	687b      	ldr	r3, [r7, #4]
 800551a:	681b      	ldr	r3, [r3, #0]
 800551c:	691b      	ldr	r3, [r3, #16]
 800551e:	f003 0304 	and.w	r3, r3, #4
 8005522:	2b04      	cmp	r3, #4
 8005524:	d122      	bne.n	800556c <HAL_TIM_IRQHandler+0xb0>
 8005526:	687b      	ldr	r3, [r7, #4]
 8005528:	681b      	ldr	r3, [r3, #0]
 800552a:	68db      	ldr	r3, [r3, #12]
 800552c:	f003 0304 	and.w	r3, r3, #4
 8005530:	2b04      	cmp	r3, #4
 8005532:	d11b      	bne.n	800556c <HAL_TIM_IRQHandler+0xb0>
 8005534:	687b      	ldr	r3, [r7, #4]
 8005536:	681b      	ldr	r3, [r3, #0]
 8005538:	f06f 0204 	mvn.w	r2, #4
 800553c:	611a      	str	r2, [r3, #16]
 800553e:	687b      	ldr	r3, [r7, #4]
 8005540:	2202      	movs	r2, #2
 8005542:	771a      	strb	r2, [r3, #28]
 8005544:	687b      	ldr	r3, [r7, #4]
 8005546:	681b      	ldr	r3, [r3, #0]
 8005548:	699b      	ldr	r3, [r3, #24]
 800554a:	f403 7340 	and.w	r3, r3, #768	; 0x300
 800554e:	2b00      	cmp	r3, #0
 8005550:	d003      	beq.n	800555a <HAL_TIM_IRQHandler+0x9e>
 8005552:	6878      	ldr	r0, [r7, #4]
 8005554:	f000 f8c4 	bl	80056e0 <HAL_TIM_IC_CaptureCallback>
 8005558:	e005      	b.n	8005566 <HAL_TIM_IRQHandler+0xaa>
 800555a:	6878      	ldr	r0, [r7, #4]
 800555c:	f000 f8b6 	bl	80056cc <HAL_TIM_OC_DelayElapsedCallback>
 8005560:	6878      	ldr	r0, [r7, #4]
 8005562:	f000 f8c7 	bl	80056f4 <HAL_TIM_PWM_PulseFinishedCallback>
 8005566:	687b      	ldr	r3, [r7, #4]
 8005568:	2200      	movs	r2, #0
 800556a:	771a      	strb	r2, [r3, #28]
 800556c:	687b      	ldr	r3, [r7, #4]
 800556e:	681b      	ldr	r3, [r3, #0]
 8005570:	691b      	ldr	r3, [r3, #16]
 8005572:	f003 0308 	and.w	r3, r3, #8
 8005576:	2b08      	cmp	r3, #8
 8005578:	d122      	bne.n	80055c0 <HAL_TIM_IRQHandler+0x104>
 800557a:	687b      	ldr	r3, [r7, #4]
 800557c:	681b      	ldr	r3, [r3, #0]
 800557e:	68db      	ldr	r3, [r3, #12]
 8005580:	f003 0308 	and.w	r3, r3, #8
 8005584:	2b08      	cmp	r3, #8
 8005586:	d11b      	bne.n	80055c0 <HAL_TIM_IRQHandler+0x104>
 8005588:	687b      	ldr	r3, [r7, #4]
 800558a:	681b      	ldr	r3, [r3, #0]
 800558c:	f06f 0208 	mvn.w	r2, #8
 8005590:	611a      	str	r2, [r3, #16]
 8005592:	687b      	ldr	r3, [r7, #4]
 8005594:	2204      	movs	r2, #4
 8005596:	771a      	strb	r2, [r3, #28]
 8005598:	687b      	ldr	r3, [r7, #4]
 800559a:	681b      	ldr	r3, [r3, #0]
 800559c:	69db      	ldr	r3, [r3, #28]
 800559e:	f003 0303 	and.w	r3, r3, #3
 80055a2:	2b00      	cmp	r3, #0
 80055a4:	d003      	beq.n	80055ae <HAL_TIM_IRQHandler+0xf2>
 80055a6:	6878      	ldr	r0, [r7, #4]
 80055a8:	f000 f89a 	bl	80056e0 <HAL_TIM_IC_CaptureCallback>
 80055ac:	e005      	b.n	80055ba <HAL_TIM_IRQHandler+0xfe>
 80055ae:	6878      	ldr	r0, [r7, #4]
 80055b0:	f000 f88c 	bl	80056cc <HAL_TIM_OC_DelayElapsedCallback>
 80055b4:	6878      	ldr	r0, [r7, #4]
 80055b6:	f000 f89d 	bl	80056f4 <HAL_TIM_PWM_PulseFinishedCallback>
 80055ba:	687b      	ldr	r3, [r7, #4]
 80055bc:	2200      	movs	r2, #0
 80055be:	771a      	strb	r2, [r3, #28]
 80055c0:	687b      	ldr	r3, [r7, #4]
 80055c2:	681b      	ldr	r3, [r3, #0]
 80055c4:	691b      	ldr	r3, [r3, #16]
 80055c6:	f003 0310 	and.w	r3, r3, #16
 80055ca:	2b10      	cmp	r3, #16
 80055cc:	d122      	bne.n	8005614 <HAL_TIM_IRQHandler+0x158>
 80055ce:	687b      	ldr	r3, [r7, #4]
 80055d0:	681b      	ldr	r3, [r3, #0]
 80055d2:	68db      	ldr	r3, [r3, #12]
 80055d4:	f003 0310 	and.w	r3, r3, #16
 80055d8:	2b10      	cmp	r3, #16
 80055da:	d11b      	bne.n	8005614 <HAL_TIM_IRQHandler+0x158>
 80055dc:	687b      	ldr	r3, [r7, #4]
 80055de:	681b      	ldr	r3, [r3, #0]
 80055e0:	f06f 0210 	mvn.w	r2, #16
 80055e4:	611a      	str	r2, [r3, #16]
 80055e6:	687b      	ldr	r3, [r7, #4]
 80055e8:	2208      	movs	r2, #8
 80055ea:	771a      	strb	r2, [r3, #28]
 80055ec:	687b      	ldr	r3, [r7, #4]
 80055ee:	681b      	ldr	r3, [r3, #0]
 80055f0:	69db      	ldr	r3, [r3, #28]
 80055f2:	f403 7340 	and.w	r3, r3, #768	; 0x300
 80055f6:	2b00      	cmp	r3, #0
 80055f8:	d003      	beq.n	8005602 <HAL_TIM_IRQHandler+0x146>
 80055fa:	6878      	ldr	r0, [r7, #4]
 80055fc:	f000 f870 	bl	80056e0 <HAL_TIM_IC_CaptureCallback>
 8005600:	e005      	b.n	800560e <HAL_TIM_IRQHandler+0x152>
 8005602:	6878      	ldr	r0, [r7, #4]
 8005604:	f000 f862 	bl	80056cc <HAL_TIM_OC_DelayElapsedCallback>
 8005608:	6878      	ldr	r0, [r7, #4]
 800560a:	f000 f873 	bl	80056f4 <HAL_TIM_PWM_PulseFinishedCallback>
 800560e:	687b      	ldr	r3, [r7, #4]
 8005610:	2200      	movs	r2, #0
 8005612:	771a      	strb	r2, [r3, #28]
 8005614:	687b      	ldr	r3, [r7, #4]
 8005616:	681b      	ldr	r3, [r3, #0]
 8005618:	691b      	ldr	r3, [r3, #16]
 800561a:	f003 0301 	and.w	r3, r3, #1
 800561e:	2b01      	cmp	r3, #1
 8005620:	d10e      	bne.n	8005640 <HAL_TIM_IRQHandler+0x184>
 8005622:	687b      	ldr	r3, [r7, #4]
 8005624:	681b      	ldr	r3, [r3, #0]
 8005626:	68db      	ldr	r3, [r3, #12]
 8005628:	f003 0301 	and.w	r3, r3, #1
 800562c:	2b01      	cmp	r3, #1
 800562e:	d107      	bne.n	8005640 <HAL_TIM_IRQHandler+0x184>
 8005630:	687b      	ldr	r3, [r7, #4]
 8005632:	681b      	ldr	r3, [r3, #0]
 8005634:	f06f 0201 	mvn.w	r2, #1
 8005638:	611a      	str	r2, [r3, #16]
 800563a:	6878      	ldr	r0, [r7, #4]
 800563c:	f7fb fc9e 	bl	8000f7c <HAL_TIM_PeriodElapsedCallback>
 8005640:	687b      	ldr	r3, [r7, #4]
 8005642:	681b      	ldr	r3, [r3, #0]
 8005644:	691b      	ldr	r3, [r3, #16]
 8005646:	f003 0380 	and.w	r3, r3, #128	; 0x80
 800564a:	2b80      	cmp	r3, #128	; 0x80
 800564c:	d10e      	bne.n	800566c <HAL_TIM_IRQHandler+0x1b0>
 800564e:	687b      	ldr	r3, [r7, #4]
 8005650:	681b      	ldr	r3, [r3, #0]
 8005652:	68db      	ldr	r3, [r3, #12]
 8005654:	f003 0380 	and.w	r3, r3, #128	; 0x80
 8005658:	2b80      	cmp	r3, #128	; 0x80
 800565a:	d107      	bne.n	800566c <HAL_TIM_IRQHandler+0x1b0>
 800565c:	687b      	ldr	r3, [r7, #4]
 800565e:	681b      	ldr	r3, [r3, #0]
 8005660:	f06f 0280 	mvn.w	r2, #128	; 0x80
 8005664:	611a      	str	r2, [r3, #16]
 8005666:	6878      	ldr	r0, [r7, #4]
 8005668:	f000 f902 	bl	8005870 <HAL_TIMEx_BreakCallback>
 800566c:	687b      	ldr	r3, [r7, #4]
 800566e:	681b      	ldr	r3, [r3, #0]
 8005670:	691b      	ldr	r3, [r3, #16]
 8005672:	f003 0340 	and.w	r3, r3, #64	; 0x40
 8005676:	2b40      	cmp	r3, #64	; 0x40
 8005678:	d10e      	bne.n	8005698 <HAL_TIM_IRQHandler+0x1dc>
 800567a:	687b      	ldr	r3, [r7, #4]
 800567c:	681b      	ldr	r3, [r3, #0]
 800567e:	68db      	ldr	r3, [r3, #12]
 8005680:	f003 0340 	and.w	r3, r3, #64	; 0x40
 8005684:	2b40      	cmp	r3, #64	; 0x40
 8005686:	d107      	bne.n	8005698 <HAL_TIM_IRQHandler+0x1dc>
 8005688:	687b      	ldr	r3, [r7, #4]
 800568a:	681b      	ldr	r3, [r3, #0]
 800568c:	f06f 0240 	mvn.w	r2, #64	; 0x40
 8005690:	611a      	str	r2, [r3, #16]
 8005692:	6878      	ldr	r0, [r7, #4]
 8005694:	f000 f838 	bl	8005708 <HAL_TIM_TriggerCallback>
 8005698:	687b      	ldr	r3, [r7, #4]
 800569a:	681b      	ldr	r3, [r3, #0]
 800569c:	691b      	ldr	r3, [r3, #16]
 800569e:	f003 0320 	and.w	r3, r3, #32
 80056a2:	2b20      	cmp	r3, #32
 80056a4:	d10e      	bne.n	80056c4 <HAL_TIM_IRQHandler+0x208>
 80056a6:	687b      	ldr	r3, [r7, #4]
 80056a8:	681b      	ldr	r3, [r3, #0]
 80056aa:	68db      	ldr	r3, [r3, #12]
 80056ac:	f003 0320 	and.w	r3, r3, #32
 80056b0:	2b20      	cmp	r3, #32
 80056b2:	d107      	bne.n	80056c4 <HAL_TIM_IRQHandler+0x208>
 80056b4:	687b      	ldr	r3, [r7, #4]
 80056b6:	681b      	ldr	r3, [r3, #0]
 80056b8:	f06f 0220 	mvn.w	r2, #32
 80056bc:	611a      	str	r2, [r3, #16]
 80056be:	6878      	ldr	r0, [r7, #4]
 80056c0:	f000 f8cc 	bl	800585c <HAL_TIMEx_CommutCallback>
 80056c4:	bf00      	nop
 80056c6:	3708      	adds	r7, #8
 80056c8:	46bd      	mov	sp, r7
 80056ca:	bd80      	pop	{r7, pc}

080056cc <HAL_TIM_OC_DelayElapsedCallback>:
 80056cc:	b480      	push	{r7}
 80056ce:	b083      	sub	sp, #12
 80056d0:	af00      	add	r7, sp, #0
 80056d2:	6078      	str	r0, [r7, #4]
 80056d4:	bf00      	nop
 80056d6:	370c      	adds	r7, #12
 80056d8:	46bd      	mov	sp, r7
 80056da:	f85d 7b04 	ldr.w	r7, [sp], #4
 80056de:	4770      	bx	lr

080056e0 <HAL_TIM_IC_CaptureCallback>:
 80056e0:	b480      	push	{r7}
 80056e2:	b083      	sub	sp, #12
 80056e4:	af00      	add	r7, sp, #0
 80056e6:	6078      	str	r0, [r7, #4]
 80056e8:	bf00      	nop
 80056ea:	370c      	adds	r7, #12
 80056ec:	46bd      	mov	sp, r7
 80056ee:	f85d 7b04 	ldr.w	r7, [sp], #4
 80056f2:	4770      	bx	lr

080056f4 <HAL_TIM_PWM_PulseFinishedCallback>:
 80056f4:	b480      	push	{r7}
 80056f6:	b083      	sub	sp, #12
 80056f8:	af00      	add	r7, sp, #0
 80056fa:	6078      	str	r0, [r7, #4]
 80056fc:	bf00      	nop
 80056fe:	370c      	adds	r7, #12
 8005700:	46bd      	mov	sp, r7
 8005702:	f85d 7b04 	ldr.w	r7, [sp], #4
 8005706:	4770      	bx	lr

08005708 <HAL_TIM_TriggerCallback>:
 8005708:	b480      	push	{r7}
 800570a:	b083      	sub	sp, #12
 800570c:	af00      	add	r7, sp, #0
 800570e:	6078      	str	r0, [r7, #4]
 8005710:	bf00      	nop
 8005712:	370c      	adds	r7, #12
 8005714:	46bd      	mov	sp, r7
 8005716:	f85d 7b04 	ldr.w	r7, [sp], #4
 800571a:	4770      	bx	lr

0800571c <TIM_Base_SetConfig>:
 800571c:	b480      	push	{r7}
 800571e:	b085      	sub	sp, #20
 8005720:	af00      	add	r7, sp, #0
 8005722:	6078      	str	r0, [r7, #4]
 8005724:	6039      	str	r1, [r7, #0]
 8005726:	687b      	ldr	r3, [r7, #4]
 8005728:	681b      	ldr	r3, [r3, #0]
 800572a:	60fb      	str	r3, [r7, #12]
 800572c:	687b      	ldr	r3, [r7, #4]
 800572e:	4a40      	ldr	r2, [pc, #256]	; (8005830 <TIM_Base_SetConfig+0x114>)
 8005730:	4293      	cmp	r3, r2
 8005732:	d013      	beq.n	800575c <TIM_Base_SetConfig+0x40>
 8005734:	687b      	ldr	r3, [r7, #4]
 8005736:	f1b3 4f80 	cmp.w	r3, #1073741824	; 0x40000000
 800573a:	d00f      	beq.n	800575c <TIM_Base_SetConfig+0x40>
 800573c:	687b      	ldr	r3, [r7, #4]
 800573e:	4a3d      	ldr	r2, [pc, #244]	; (8005834 <TIM_Base_SetConfig+0x118>)
 8005740:	4293      	cmp	r3, r2
 8005742:	d00b      	beq.n	800575c <TIM_Base_SetConfig+0x40>
 8005744:	687b      	ldr	r3, [r7, #4]
 8005746:	4a3c      	ldr	r2, [pc, #240]	; (8005838 <TIM_Base_SetConfig+0x11c>)
 8005748:	4293      	cmp	r3, r2
 800574a:	d007      	beq.n	800575c <TIM_Base_SetConfig+0x40>
 800574c:	687b      	ldr	r3, [r7, #4]
 800574e:	4a3b      	ldr	r2, [pc, #236]	; (800583c <TIM_Base_SetConfig+0x120>)
 8005750:	4293      	cmp	r3, r2
 8005752:	d003      	beq.n	800575c <TIM_Base_SetConfig+0x40>
 8005754:	687b      	ldr	r3, [r7, #4]
 8005756:	4a3a      	ldr	r2, [pc, #232]	; (8005840 <TIM_Base_SetConfig+0x124>)
 8005758:	4293      	cmp	r3, r2
 800575a:	d108      	bne.n	800576e <TIM_Base_SetConfig+0x52>
 800575c:	68fb      	ldr	r3, [r7, #12]
 800575e:	f023 0370 	bic.w	r3, r3, #112	; 0x70
 8005762:	60fb      	str	r3, [r7, #12]
 8005764:	683b      	ldr	r3, [r7, #0]
 8005766:	685b      	ldr	r3, [r3, #4]
 8005768:	68fa      	ldr	r2, [r7, #12]
 800576a:	4313      	orrs	r3, r2
 800576c:	60fb      	str	r3, [r7, #12]
 800576e:	687b      	ldr	r3, [r7, #4]
 8005770:	4a2f      	ldr	r2, [pc, #188]	; (8005830 <TIM_Base_SetConfig+0x114>)
 8005772:	4293      	cmp	r3, r2
 8005774:	d02b      	beq.n	80057ce <TIM_Base_SetConfig+0xb2>
 8005776:	687b      	ldr	r3, [r7, #4]
 8005778:	f1b3 4f80 	cmp.w	r3, #1073741824	; 0x40000000
 800577c:	d027      	beq.n	80057ce <TIM_Base_SetConfig+0xb2>
 800577e:	687b      	ldr	r3, [r7, #4]
 8005780:	4a2c      	ldr	r2, [pc, #176]	; (8005834 <TIM_Base_SetConfig+0x118>)
 8005782:	4293      	cmp	r3, r2
 8005784:	d023      	beq.n	80057ce <TIM_Base_SetConfig+0xb2>
 8005786:	687b      	ldr	r3, [r7, #4]
 8005788:	4a2b      	ldr	r2, [pc, #172]	; (8005838 <TIM_Base_SetConfig+0x11c>)
 800578a:	4293      	cmp	r3, r2
 800578c:	d01f      	beq.n	80057ce <TIM_Base_SetConfig+0xb2>
 800578e:	687b      	ldr	r3, [r7, #4]
 8005790:	4a2a      	ldr	r2, [pc, #168]	; (800583c <TIM_Base_SetConfig+0x120>)
 8005792:	4293      	cmp	r3, r2
 8005794:	d01b      	beq.n	80057ce <TIM_Base_SetConfig+0xb2>
 8005796:	687b      	ldr	r3, [r7, #4]
 8005798:	4a29      	ldr	r2, [pc, #164]	; (8005840 <TIM_Base_SetConfig+0x124>)
 800579a:	4293      	cmp	r3, r2
 800579c:	d017      	beq.n	80057ce <TIM_Base_SetConfig+0xb2>
 800579e:	687b      	ldr	r3, [r7, #4]
 80057a0:	4a28      	ldr	r2, [pc, #160]	; (8005844 <TIM_Base_SetConfig+0x128>)
 80057a2:	4293      	cmp	r3, r2
 80057a4:	d013      	beq.n	80057ce <TIM_Base_SetConfig+0xb2>
 80057a6:	687b      	ldr	r3, [r7, #4]
 80057a8:	4a27      	ldr	r2, [pc, #156]	; (8005848 <TIM_Base_SetConfig+0x12c>)
 80057aa:	4293      	cmp	r3, r2
 80057ac:	d00f      	beq.n	80057ce <TIM_Base_SetConfig+0xb2>
 80057ae:	687b      	ldr	r3, [r7, #4]
 80057b0:	4a26      	ldr	r2, [pc, #152]	; (800584c <TIM_Base_SetConfig+0x130>)
 80057b2:	4293      	cmp	r3, r2
 80057b4:	d00b      	beq.n	80057ce <TIM_Base_SetConfig+0xb2>
 80057b6:	687b      	ldr	r3, [r7, #4]
 80057b8:	4a25      	ldr	r2, [pc, #148]	; (8005850 <TIM_Base_SetConfig+0x134>)
 80057ba:	4293      	cmp	r3, r2
 80057bc:	d007      	beq.n	80057ce <TIM_Base_SetConfig+0xb2>
 80057be:	687b      	ldr	r3, [r7, #4]
 80057c0:	4a24      	ldr	r2, [pc, #144]	; (8005854 <TIM_Base_SetConfig+0x138>)
 80057c2:	4293      	cmp	r3, r2
 80057c4:	d003      	beq.n	80057ce <TIM_Base_SetConfig+0xb2>
 80057c6:	687b      	ldr	r3, [r7, #4]
 80057c8:	4a23      	ldr	r2, [pc, #140]	; (8005858 <TIM_Base_SetConfig+0x13c>)
 80057ca:	4293      	cmp	r3, r2
 80057cc:	d108      	bne.n	80057e0 <TIM_Base_SetConfig+0xc4>
 80057ce:	68fb      	ldr	r3, [r7, #12]
 80057d0:	f423 7340 	bic.w	r3, r3, #768	; 0x300
 80057d4:	60fb      	str	r3, [r7, #12]
 80057d6:	683b      	ldr	r3, [r7, #0]
 80057d8:	68db      	ldr	r3, [r3, #12]
 80057da:	68fa      	ldr	r2, [r7, #12]
 80057dc:	4313      	orrs	r3, r2
 80057de:	60fb      	str	r3, [r7, #12]
 80057e0:	68fb      	ldr	r3, [r7, #12]
 80057e2:	f023 0280 	bic.w	r2, r3, #128	; 0x80
 80057e6:	683b      	ldr	r3, [r7, #0]
 80057e8:	695b      	ldr	r3, [r3, #20]
 80057ea:	4313      	orrs	r3, r2
 80057ec:	60fb      	str	r3, [r7, #12]
 80057ee:	687b      	ldr	r3, [r7, #4]
 80057f0:	68fa      	ldr	r2, [r7, #12]
 80057f2:	601a      	str	r2, [r3, #0]
 80057f4:	683b      	ldr	r3, [r7, #0]
 80057f6:	689a      	ldr	r2, [r3, #8]
 80057f8:	687b      	ldr	r3, [r7, #4]
 80057fa:	62da      	str	r2, [r3, #44]	; 0x2c
 80057fc:	683b      	ldr	r3, [r7, #0]
 80057fe:	681a      	ldr	r2, [r3, #0]
 8005800:	687b      	ldr	r3, [r7, #4]
 8005802:	629a      	str	r2, [r3, #40]	; 0x28
 8005804:	687b      	ldr	r3, [r7, #4]
 8005806:	4a0a      	ldr	r2, [pc, #40]	; (8005830 <TIM_Base_SetConfig+0x114>)
 8005808:	4293      	cmp	r3, r2
 800580a:	d003      	beq.n	8005814 <TIM_Base_SetConfig+0xf8>
 800580c:	687b      	ldr	r3, [r7, #4]
 800580e:	4a0c      	ldr	r2, [pc, #48]	; (8005840 <TIM_Base_SetConfig+0x124>)
 8005810:	4293      	cmp	r3, r2
 8005812:	d103      	bne.n	800581c <TIM_Base_SetConfig+0x100>
 8005814:	683b      	ldr	r3, [r7, #0]
 8005816:	691a      	ldr	r2, [r3, #16]
 8005818:	687b      	ldr	r3, [r7, #4]
 800581a:	631a      	str	r2, [r3, #48]	; 0x30
 800581c:	687b      	ldr	r3, [r7, #4]
 800581e:	2201      	movs	r2, #1
 8005820:	615a      	str	r2, [r3, #20]
 8005822:	bf00      	nop
 8005824:	3714      	adds	r7, #20
 8005826:	46bd      	mov	sp, r7
 8005828:	f85d 7b04 	ldr.w	r7, [sp], #4
 800582c:	4770      	bx	lr
 800582e:	bf00      	nop
 8005830:	40010000 	.word	0x40010000
 8005834:	40000400 	.word	0x40000400
 8005838:	40000800 	.word	0x40000800
 800583c:	40000c00 	.word	0x40000c00
 8005840:	40010400 	.word	0x40010400
 8005844:	40014000 	.word	0x40014000
 8005848:	40014400 	.word	0x40014400
 800584c:	40014800 	.word	0x40014800
 8005850:	40001800 	.word	0x40001800
 8005854:	40001c00 	.word	0x40001c00
 8005858:	40002000 	.word	0x40002000

0800585c <HAL_TIMEx_CommutCallback>:
 800585c:	b480      	push	{r7}
 800585e:	b083      	sub	sp, #12
 8005860:	af00      	add	r7, sp, #0
 8005862:	6078      	str	r0, [r7, #4]
 8005864:	bf00      	nop
 8005866:	370c      	adds	r7, #12
 8005868:	46bd      	mov	sp, r7
 800586a:	f85d 7b04 	ldr.w	r7, [sp], #4
 800586e:	4770      	bx	lr

08005870 <HAL_TIMEx_BreakCallback>:
 8005870:	b480      	push	{r7}
 8005872:	b083      	sub	sp, #12
 8005874:	af00      	add	r7, sp, #0
 8005876:	6078      	str	r0, [r7, #4]
 8005878:	bf00      	nop
 800587a:	370c      	adds	r7, #12
 800587c:	46bd      	mov	sp, r7
 800587e:	f85d 7b04 	ldr.w	r7, [sp], #4
 8005882:	4770      	bx	lr

08005884 <HAL_UART_Init>:
 8005884:	b580      	push	{r7, lr}
 8005886:	b082      	sub	sp, #8
 8005888:	af00      	add	r7, sp, #0
 800588a:	6078      	str	r0, [r7, #4]
 800588c:	687b      	ldr	r3, [r7, #4]
 800588e:	2b00      	cmp	r3, #0
 8005890:	d101      	bne.n	8005896 <HAL_UART_Init+0x12>
 8005892:	2301      	movs	r3, #1
 8005894:	e03f      	b.n	8005916 <HAL_UART_Init+0x92>
 8005896:	687b      	ldr	r3, [r7, #4]
 8005898:	f893 303d 	ldrb.w	r3, [r3, #61]	; 0x3d
 800589c:	b2db      	uxtb	r3, r3
 800589e:	2b00      	cmp	r3, #0
 80058a0:	d106      	bne.n	80058b0 <HAL_UART_Init+0x2c>
 80058a2:	687b      	ldr	r3, [r7, #4]
 80058a4:	2200      	movs	r2, #0
 80058a6:	f883 203c 	strb.w	r2, [r3, #60]	; 0x3c
 80058aa:	6878      	ldr	r0, [r7, #4]
 80058ac:	f7fb fe26 	bl	80014fc <HAL_UART_MspInit>
 80058b0:	687b      	ldr	r3, [r7, #4]
 80058b2:	2224      	movs	r2, #36	; 0x24
 80058b4:	f883 203d 	strb.w	r2, [r3, #61]	; 0x3d
 80058b8:	687b      	ldr	r3, [r7, #4]
 80058ba:	681b      	ldr	r3, [r3, #0]
 80058bc:	68da      	ldr	r2, [r3, #12]
 80058be:	687b      	ldr	r3, [r7, #4]
 80058c0:	681b      	ldr	r3, [r3, #0]
 80058c2:	f422 5200 	bic.w	r2, r2, #8192	; 0x2000
 80058c6:	60da      	str	r2, [r3, #12]
 80058c8:	6878      	ldr	r0, [r7, #4]
 80058ca:	f000 fe7d 	bl	80065c8 <UART_SetConfig>
 80058ce:	687b      	ldr	r3, [r7, #4]
 80058d0:	681b      	ldr	r3, [r3, #0]
 80058d2:	691a      	ldr	r2, [r3, #16]
 80058d4:	687b      	ldr	r3, [r7, #4]
 80058d6:	681b      	ldr	r3, [r3, #0]
 80058d8:	f422 4290 	bic.w	r2, r2, #18432	; 0x4800
 80058dc:	611a      	str	r2, [r3, #16]
 80058de:	687b      	ldr	r3, [r7, #4]
 80058e0:	681b      	ldr	r3, [r3, #0]
 80058e2:	695a      	ldr	r2, [r3, #20]
 80058e4:	687b      	ldr	r3, [r7, #4]
 80058e6:	681b      	ldr	r3, [r3, #0]
 80058e8:	f022 022a 	bic.w	r2, r2, #42	; 0x2a
 80058ec:	615a      	str	r2, [r3, #20]
 80058ee:	687b      	ldr	r3, [r7, #4]
 80058f0:	681b      	ldr	r3, [r3, #0]
 80058f2:	68da      	ldr	r2, [r3, #12]
 80058f4:	687b      	ldr	r3, [r7, #4]
 80058f6:	681b      	ldr	r3, [r3, #0]
 80058f8:	f442 5200 	orr.w	r2, r2, #8192	; 0x2000
 80058fc:	60da      	str	r2, [r3, #12]
 80058fe:	687b      	ldr	r3, [r7, #4]
 8005900:	2200      	movs	r2, #0
 8005902:	641a      	str	r2, [r3, #64]	; 0x40
 8005904:	687b      	ldr	r3, [r7, #4]
 8005906:	2220      	movs	r2, #32
 8005908:	f883 203d 	strb.w	r2, [r3, #61]	; 0x3d
 800590c:	687b      	ldr	r3, [r7, #4]
 800590e:	2220      	movs	r2, #32
 8005910:	f883 203e 	strb.w	r2, [r3, #62]	; 0x3e
 8005914:	2300      	movs	r3, #0
 8005916:	4618      	mov	r0, r3
 8005918:	3708      	adds	r7, #8
 800591a:	46bd      	mov	sp, r7
 800591c:	bd80      	pop	{r7, pc}

0800591e <HAL_UART_Transmit>:
 800591e:	b580      	push	{r7, lr}
 8005920:	b08a      	sub	sp, #40	; 0x28
 8005922:	af02      	add	r7, sp, #8
 8005924:	60f8      	str	r0, [r7, #12]
 8005926:	60b9      	str	r1, [r7, #8]
 8005928:	603b      	str	r3, [r7, #0]
 800592a:	4613      	mov	r3, r2
 800592c:	80fb      	strh	r3, [r7, #6]
 800592e:	2300      	movs	r3, #0
 8005930:	617b      	str	r3, [r7, #20]
 8005932:	68fb      	ldr	r3, [r7, #12]
 8005934:	f893 303d 	ldrb.w	r3, [r3, #61]	; 0x3d
 8005938:	b2db      	uxtb	r3, r3
 800593a:	2b20      	cmp	r3, #32
 800593c:	d17c      	bne.n	8005a38 <HAL_UART_Transmit+0x11a>
 800593e:	68bb      	ldr	r3, [r7, #8]
 8005940:	2b00      	cmp	r3, #0
 8005942:	d002      	beq.n	800594a <HAL_UART_Transmit+0x2c>
 8005944:	88fb      	ldrh	r3, [r7, #6]
 8005946:	2b00      	cmp	r3, #0
 8005948:	d101      	bne.n	800594e <HAL_UART_Transmit+0x30>
 800594a:	2301      	movs	r3, #1
 800594c:	e075      	b.n	8005a3a <HAL_UART_Transmit+0x11c>
 800594e:	68fb      	ldr	r3, [r7, #12]
 8005950:	f893 303c 	ldrb.w	r3, [r3, #60]	; 0x3c
 8005954:	2b01      	cmp	r3, #1
 8005956:	d101      	bne.n	800595c <HAL_UART_Transmit+0x3e>
 8005958:	2302      	movs	r3, #2
 800595a:	e06e      	b.n	8005a3a <HAL_UART_Transmit+0x11c>
 800595c:	68fb      	ldr	r3, [r7, #12]
 800595e:	2201      	movs	r2, #1
 8005960:	f883 203c 	strb.w	r2, [r3, #60]	; 0x3c
 8005964:	68fb      	ldr	r3, [r7, #12]
 8005966:	2200      	movs	r2, #0
 8005968:	641a      	str	r2, [r3, #64]	; 0x40
 800596a:	68fb      	ldr	r3, [r7, #12]
 800596c:	2221      	movs	r2, #33	; 0x21
 800596e:	f883 203d 	strb.w	r2, [r3, #61]	; 0x3d
 8005972:	f7fb feb1 	bl	80016d8 <HAL_GetTick>
 8005976:	6178      	str	r0, [r7, #20]
 8005978:	68fb      	ldr	r3, [r7, #12]
 800597a:	88fa      	ldrh	r2, [r7, #6]
 800597c:	849a      	strh	r2, [r3, #36]	; 0x24
 800597e:	68fb      	ldr	r3, [r7, #12]
 8005980:	88fa      	ldrh	r2, [r7, #6]
 8005982:	84da      	strh	r2, [r3, #38]	; 0x26
 8005984:	68fb      	ldr	r3, [r7, #12]
 8005986:	689b      	ldr	r3, [r3, #8]
 8005988:	f5b3 5f80 	cmp.w	r3, #4096	; 0x1000
 800598c:	d108      	bne.n	80059a0 <HAL_UART_Transmit+0x82>
 800598e:	68fb      	ldr	r3, [r7, #12]
 8005990:	691b      	ldr	r3, [r3, #16]
 8005992:	2b00      	cmp	r3, #0
 8005994:	d104      	bne.n	80059a0 <HAL_UART_Transmit+0x82>
 8005996:	2300      	movs	r3, #0
 8005998:	61fb      	str	r3, [r7, #28]
 800599a:	68bb      	ldr	r3, [r7, #8]
 800599c:	61bb      	str	r3, [r7, #24]
 800599e:	e003      	b.n	80059a8 <HAL_UART_Transmit+0x8a>
 80059a0:	68bb      	ldr	r3, [r7, #8]
 80059a2:	61fb      	str	r3, [r7, #28]
 80059a4:	2300      	movs	r3, #0
 80059a6:	61bb      	str	r3, [r7, #24]
 80059a8:	68fb      	ldr	r3, [r7, #12]
 80059aa:	2200      	movs	r2, #0
 80059ac:	f883 203c 	strb.w	r2, [r3, #60]	; 0x3c
 80059b0:	e02a      	b.n	8005a08 <HAL_UART_Transmit+0xea>
 80059b2:	683b      	ldr	r3, [r7, #0]
 80059b4:	9300      	str	r3, [sp, #0]
 80059b6:	697b      	ldr	r3, [r7, #20]
 80059b8:	2200      	movs	r2, #0
 80059ba:	2180      	movs	r1, #128	; 0x80
 80059bc:	68f8      	ldr	r0, [r7, #12]
 80059be:	f000 fbc1 	bl	8006144 <UART_WaitOnFlagUntilTimeout>
 80059c2:	4603      	mov	r3, r0
 80059c4:	2b00      	cmp	r3, #0
 80059c6:	d001      	beq.n	80059cc <HAL_UART_Transmit+0xae>
 80059c8:	2303      	movs	r3, #3
 80059ca:	e036      	b.n	8005a3a <HAL_UART_Transmit+0x11c>
 80059cc:	69fb      	ldr	r3, [r7, #28]
 80059ce:	2b00      	cmp	r3, #0
 80059d0:	d10b      	bne.n	80059ea <HAL_UART_Transmit+0xcc>
 80059d2:	69bb      	ldr	r3, [r7, #24]
 80059d4:	881b      	ldrh	r3, [r3, #0]
 80059d6:	461a      	mov	r2, r3
 80059d8:	68fb      	ldr	r3, [r7, #12]
 80059da:	681b      	ldr	r3, [r3, #0]
 80059dc:	f3c2 0208 	ubfx	r2, r2, #0, #9
 80059e0:	605a      	str	r2, [r3, #4]
 80059e2:	69bb      	ldr	r3, [r7, #24]
 80059e4:	3302      	adds	r3, #2
 80059e6:	61bb      	str	r3, [r7, #24]
 80059e8:	e007      	b.n	80059fa <HAL_UART_Transmit+0xdc>
 80059ea:	69fb      	ldr	r3, [r7, #28]
 80059ec:	781a      	ldrb	r2, [r3, #0]
 80059ee:	68fb      	ldr	r3, [r7, #12]
 80059f0:	681b      	ldr	r3, [r3, #0]
 80059f2:	605a      	str	r2, [r3, #4]
 80059f4:	69fb      	ldr	r3, [r7, #28]
 80059f6:	3301      	adds	r3, #1
 80059f8:	61fb      	str	r3, [r7, #28]
 80059fa:	68fb      	ldr	r3, [r7, #12]
 80059fc:	8cdb      	ldrh	r3, [r3, #38]	; 0x26
 80059fe:	b29b      	uxth	r3, r3
 8005a00:	3b01      	subs	r3, #1
 8005a02:	b29a      	uxth	r2, r3
 8005a04:	68fb      	ldr	r3, [r7, #12]
 8005a06:	84da      	strh	r2, [r3, #38]	; 0x26
 8005a08:	68fb      	ldr	r3, [r7, #12]
 8005a0a:	8cdb      	ldrh	r3, [r3, #38]	; 0x26
 8005a0c:	b29b      	uxth	r3, r3
 8005a0e:	2b00      	cmp	r3, #0
 8005a10:	d1cf      	bne.n	80059b2 <HAL_UART_Transmit+0x94>
 8005a12:	683b      	ldr	r3, [r7, #0]
 8005a14:	9300      	str	r3, [sp, #0]
 8005a16:	697b      	ldr	r3, [r7, #20]
 8005a18:	2200      	movs	r2, #0
 8005a1a:	2140      	movs	r1, #64	; 0x40
 8005a1c:	68f8      	ldr	r0, [r7, #12]
 8005a1e:	f000 fb91 	bl	8006144 <UART_WaitOnFlagUntilTimeout>
 8005a22:	4603      	mov	r3, r0
 8005a24:	2b00      	cmp	r3, #0
 8005a26:	d001      	beq.n	8005a2c <HAL_UART_Transmit+0x10e>
 8005a28:	2303      	movs	r3, #3
 8005a2a:	e006      	b.n	8005a3a <HAL_UART_Transmit+0x11c>
 8005a2c:	68fb      	ldr	r3, [r7, #12]
 8005a2e:	2220      	movs	r2, #32
 8005a30:	f883 203d 	strb.w	r2, [r3, #61]	; 0x3d
 8005a34:	2300      	movs	r3, #0
 8005a36:	e000      	b.n	8005a3a <HAL_UART_Transmit+0x11c>
 8005a38:	2302      	movs	r3, #2
 8005a3a:	4618      	mov	r0, r3
 8005a3c:	3720      	adds	r7, #32
 8005a3e:	46bd      	mov	sp, r7
 8005a40:	bd80      	pop	{r7, pc}

08005a42 <HAL_UART_Receive_IT>:
 8005a42:	b580      	push	{r7, lr}
 8005a44:	b084      	sub	sp, #16
 8005a46:	af00      	add	r7, sp, #0
 8005a48:	60f8      	str	r0, [r7, #12]
 8005a4a:	60b9      	str	r1, [r7, #8]
 8005a4c:	4613      	mov	r3, r2
 8005a4e:	80fb      	strh	r3, [r7, #6]
 8005a50:	68fb      	ldr	r3, [r7, #12]
 8005a52:	f893 303e 	ldrb.w	r3, [r3, #62]	; 0x3e
 8005a56:	b2db      	uxtb	r3, r3
 8005a58:	2b20      	cmp	r3, #32
 8005a5a:	d11d      	bne.n	8005a98 <HAL_UART_Receive_IT+0x56>
 8005a5c:	68bb      	ldr	r3, [r7, #8]
 8005a5e:	2b00      	cmp	r3, #0
 8005a60:	d002      	beq.n	8005a68 <HAL_UART_Receive_IT+0x26>
 8005a62:	88fb      	ldrh	r3, [r7, #6]
 8005a64:	2b00      	cmp	r3, #0
 8005a66:	d101      	bne.n	8005a6c <HAL_UART_Receive_IT+0x2a>
 8005a68:	2301      	movs	r3, #1
 8005a6a:	e016      	b.n	8005a9a <HAL_UART_Receive_IT+0x58>
 8005a6c:	68fb      	ldr	r3, [r7, #12]
 8005a6e:	f893 303c 	ldrb.w	r3, [r3, #60]	; 0x3c
 8005a72:	2b01      	cmp	r3, #1
 8005a74:	d101      	bne.n	8005a7a <HAL_UART_Receive_IT+0x38>
 8005a76:	2302      	movs	r3, #2
 8005a78:	e00f      	b.n	8005a9a <HAL_UART_Receive_IT+0x58>
 8005a7a:	68fb      	ldr	r3, [r7, #12]
 8005a7c:	2201      	movs	r2, #1
 8005a7e:	f883 203c 	strb.w	r2, [r3, #60]	; 0x3c
 8005a82:	68fb      	ldr	r3, [r7, #12]
 8005a84:	2200      	movs	r2, #0
 8005a86:	631a      	str	r2, [r3, #48]	; 0x30
 8005a88:	88fb      	ldrh	r3, [r7, #6]
 8005a8a:	461a      	mov	r2, r3
 8005a8c:	68b9      	ldr	r1, [r7, #8]
 8005a8e:	68f8      	ldr	r0, [r7, #12]
 8005a90:	f000 fbc6 	bl	8006220 <UART_Start_Receive_IT>
 8005a94:	4603      	mov	r3, r0
 8005a96:	e000      	b.n	8005a9a <HAL_UART_Receive_IT+0x58>
 8005a98:	2302      	movs	r3, #2
 8005a9a:	4618      	mov	r0, r3
 8005a9c:	3710      	adds	r7, #16
 8005a9e:	46bd      	mov	sp, r7
 8005aa0:	bd80      	pop	{r7, pc}

08005aa2 <HAL_UART_AbortReceive>:
 8005aa2:	b580      	push	{r7, lr}
 8005aa4:	b09a      	sub	sp, #104	; 0x68
 8005aa6:	af00      	add	r7, sp, #0
 8005aa8:	6078      	str	r0, [r7, #4]
 8005aaa:	687b      	ldr	r3, [r7, #4]
 8005aac:	681b      	ldr	r3, [r3, #0]
 8005aae:	330c      	adds	r3, #12
 8005ab0:	64bb      	str	r3, [r7, #72]	; 0x48
 8005ab2:	6cbb      	ldr	r3, [r7, #72]	; 0x48
 8005ab4:	e853 3f00 	ldrex	r3, [r3]
 8005ab8:	647b      	str	r3, [r7, #68]	; 0x44
 8005aba:	6c7b      	ldr	r3, [r7, #68]	; 0x44
 8005abc:	f423 7390 	bic.w	r3, r3, #288	; 0x120
 8005ac0:	667b      	str	r3, [r7, #100]	; 0x64
 8005ac2:	687b      	ldr	r3, [r7, #4]
 8005ac4:	681b      	ldr	r3, [r3, #0]
 8005ac6:	330c      	adds	r3, #12
 8005ac8:	6e7a      	ldr	r2, [r7, #100]	; 0x64
 8005aca:	657a      	str	r2, [r7, #84]	; 0x54
 8005acc:	653b      	str	r3, [r7, #80]	; 0x50
 8005ace:	6d39      	ldr	r1, [r7, #80]	; 0x50
 8005ad0:	6d7a      	ldr	r2, [r7, #84]	; 0x54
 8005ad2:	e841 2300 	strex	r3, r2, [r1]
 8005ad6:	64fb      	str	r3, [r7, #76]	; 0x4c
 8005ad8:	6cfb      	ldr	r3, [r7, #76]	; 0x4c
 8005ada:	2b00      	cmp	r3, #0
 8005adc:	d1e5      	bne.n	8005aaa <HAL_UART_AbortReceive+0x8>
 8005ade:	687b      	ldr	r3, [r7, #4]
 8005ae0:	681b      	ldr	r3, [r3, #0]
 8005ae2:	3314      	adds	r3, #20
 8005ae4:	637b      	str	r3, [r7, #52]	; 0x34
 8005ae6:	6b7b      	ldr	r3, [r7, #52]	; 0x34
 8005ae8:	e853 3f00 	ldrex	r3, [r3]
 8005aec:	633b      	str	r3, [r7, #48]	; 0x30
 8005aee:	6b3b      	ldr	r3, [r7, #48]	; 0x30
 8005af0:	f023 0301 	bic.w	r3, r3, #1
 8005af4:	663b      	str	r3, [r7, #96]	; 0x60
 8005af6:	687b      	ldr	r3, [r7, #4]
 8005af8:	681b      	ldr	r3, [r3, #0]
 8005afa:	3314      	adds	r3, #20
 8005afc:	6e3a      	ldr	r2, [r7, #96]	; 0x60
 8005afe:	643a      	str	r2, [r7, #64]	; 0x40
 8005b00:	63fb      	str	r3, [r7, #60]	; 0x3c
 8005b02:	6bf9      	ldr	r1, [r7, #60]	; 0x3c
 8005b04:	6c3a      	ldr	r2, [r7, #64]	; 0x40
 8005b06:	e841 2300 	strex	r3, r2, [r1]
 8005b0a:	63bb      	str	r3, [r7, #56]	; 0x38
 8005b0c:	6bbb      	ldr	r3, [r7, #56]	; 0x38
 8005b0e:	2b00      	cmp	r3, #0
 8005b10:	d1e5      	bne.n	8005ade <HAL_UART_AbortReceive+0x3c>
 8005b12:	687b      	ldr	r3, [r7, #4]
 8005b14:	6b1b      	ldr	r3, [r3, #48]	; 0x30
 8005b16:	2b01      	cmp	r3, #1
 8005b18:	d119      	bne.n	8005b4e <HAL_UART_AbortReceive+0xac>
 8005b1a:	687b      	ldr	r3, [r7, #4]
 8005b1c:	681b      	ldr	r3, [r3, #0]
 8005b1e:	330c      	adds	r3, #12
 8005b20:	623b      	str	r3, [r7, #32]
 8005b22:	6a3b      	ldr	r3, [r7, #32]
 8005b24:	e853 3f00 	ldrex	r3, [r3]
 8005b28:	61fb      	str	r3, [r7, #28]
 8005b2a:	69fb      	ldr	r3, [r7, #28]
 8005b2c:	f023 0310 	bic.w	r3, r3, #16
 8005b30:	65fb      	str	r3, [r7, #92]	; 0x5c
 8005b32:	687b      	ldr	r3, [r7, #4]
 8005b34:	681b      	ldr	r3, [r3, #0]
 8005b36:	330c      	adds	r3, #12
 8005b38:	6dfa      	ldr	r2, [r7, #92]	; 0x5c
 8005b3a:	62fa      	str	r2, [r7, #44]	; 0x2c
 8005b3c:	62bb      	str	r3, [r7, #40]	; 0x28
 8005b3e:	6ab9      	ldr	r1, [r7, #40]	; 0x28
 8005b40:	6afa      	ldr	r2, [r7, #44]	; 0x2c
 8005b42:	e841 2300 	strex	r3, r2, [r1]
 8005b46:	627b      	str	r3, [r7, #36]	; 0x24
 8005b48:	6a7b      	ldr	r3, [r7, #36]	; 0x24
 8005b4a:	2b00      	cmp	r3, #0
 8005b4c:	d1e5      	bne.n	8005b1a <HAL_UART_AbortReceive+0x78>
 8005b4e:	687b      	ldr	r3, [r7, #4]
 8005b50:	681b      	ldr	r3, [r3, #0]
 8005b52:	695b      	ldr	r3, [r3, #20]
 8005b54:	f003 0340 	and.w	r3, r3, #64	; 0x40
 8005b58:	2b40      	cmp	r3, #64	; 0x40
 8005b5a:	d136      	bne.n	8005bca <HAL_UART_AbortReceive+0x128>
 8005b5c:	687b      	ldr	r3, [r7, #4]
 8005b5e:	681b      	ldr	r3, [r3, #0]
 8005b60:	3314      	adds	r3, #20
 8005b62:	60fb      	str	r3, [r7, #12]
 8005b64:	68fb      	ldr	r3, [r7, #12]
 8005b66:	e853 3f00 	ldrex	r3, [r3]
 8005b6a:	60bb      	str	r3, [r7, #8]
 8005b6c:	68bb      	ldr	r3, [r7, #8]
 8005b6e:	f023 0340 	bic.w	r3, r3, #64	; 0x40
 8005b72:	65bb      	str	r3, [r7, #88]	; 0x58
 8005b74:	687b      	ldr	r3, [r7, #4]
 8005b76:	681b      	ldr	r3, [r3, #0]
 8005b78:	3314      	adds	r3, #20
 8005b7a:	6dba      	ldr	r2, [r7, #88]	; 0x58
 8005b7c:	61ba      	str	r2, [r7, #24]
 8005b7e:	617b      	str	r3, [r7, #20]
 8005b80:	6979      	ldr	r1, [r7, #20]
 8005b82:	69ba      	ldr	r2, [r7, #24]
 8005b84:	e841 2300 	strex	r3, r2, [r1]
 8005b88:	613b      	str	r3, [r7, #16]
 8005b8a:	693b      	ldr	r3, [r7, #16]
 8005b8c:	2b00      	cmp	r3, #0
 8005b8e:	d1e5      	bne.n	8005b5c <HAL_UART_AbortReceive+0xba>
 8005b90:	687b      	ldr	r3, [r7, #4]
 8005b92:	6b9b      	ldr	r3, [r3, #56]	; 0x38
 8005b94:	2b00      	cmp	r3, #0
 8005b96:	d018      	beq.n	8005bca <HAL_UART_AbortReceive+0x128>
 8005b98:	687b      	ldr	r3, [r7, #4]
 8005b9a:	6b9b      	ldr	r3, [r3, #56]	; 0x38
 8005b9c:	2200      	movs	r2, #0
 8005b9e:	651a      	str	r2, [r3, #80]	; 0x50
 8005ba0:	687b      	ldr	r3, [r7, #4]
 8005ba2:	6b9b      	ldr	r3, [r3, #56]	; 0x38
 8005ba4:	4618      	mov	r0, r3
 8005ba6:	f7fb fea9 	bl	80018fc <HAL_DMA_Abort>
 8005baa:	4603      	mov	r3, r0
 8005bac:	2b00      	cmp	r3, #0
 8005bae:	d00c      	beq.n	8005bca <HAL_UART_AbortReceive+0x128>
 8005bb0:	687b      	ldr	r3, [r7, #4]
 8005bb2:	6b9b      	ldr	r3, [r3, #56]	; 0x38
 8005bb4:	4618      	mov	r0, r3
 8005bb6:	f7fb ff41 	bl	8001a3c <HAL_DMA_GetError>
 8005bba:	4603      	mov	r3, r0
 8005bbc:	2b20      	cmp	r3, #32
 8005bbe:	d104      	bne.n	8005bca <HAL_UART_AbortReceive+0x128>
 8005bc0:	687b      	ldr	r3, [r7, #4]
 8005bc2:	2210      	movs	r2, #16
 8005bc4:	641a      	str	r2, [r3, #64]	; 0x40
 8005bc6:	2303      	movs	r3, #3
 8005bc8:	e00a      	b.n	8005be0 <HAL_UART_AbortReceive+0x13e>
 8005bca:	687b      	ldr	r3, [r7, #4]
 8005bcc:	2200      	movs	r2, #0
 8005bce:	85da      	strh	r2, [r3, #46]	; 0x2e
 8005bd0:	687b      	ldr	r3, [r7, #4]
 8005bd2:	2220      	movs	r2, #32
 8005bd4:	f883 203e 	strb.w	r2, [r3, #62]	; 0x3e
 8005bd8:	687b      	ldr	r3, [r7, #4]
 8005bda:	2200      	movs	r2, #0
 8005bdc:	631a      	str	r2, [r3, #48]	; 0x30
 8005bde:	2300      	movs	r3, #0
 8005be0:	4618      	mov	r0, r3
 8005be2:	3768      	adds	r7, #104	; 0x68
 8005be4:	46bd      	mov	sp, r7
 8005be6:	bd80      	pop	{r7, pc}

08005be8 <HAL_UART_IRQHandler>:
 8005be8:	b580      	push	{r7, lr}
 8005bea:	b0ba      	sub	sp, #232	; 0xe8
 8005bec:	af00      	add	r7, sp, #0
 8005bee:	6078      	str	r0, [r7, #4]
 8005bf0:	687b      	ldr	r3, [r7, #4]
 8005bf2:	681b      	ldr	r3, [r3, #0]
 8005bf4:	681b      	ldr	r3, [r3, #0]
 8005bf6:	f8c7 30e4 	str.w	r3, [r7, #228]	; 0xe4
 8005bfa:	687b      	ldr	r3, [r7, #4]
 8005bfc:	681b      	ldr	r3, [r3, #0]
 8005bfe:	68db      	ldr	r3, [r3, #12]
 8005c00:	f8c7 30e0 	str.w	r3, [r7, #224]	; 0xe0
 8005c04:	687b      	ldr	r3, [r7, #4]
 8005c06:	681b      	ldr	r3, [r3, #0]
 8005c08:	695b      	ldr	r3, [r3, #20]
 8005c0a:	f8c7 30dc 	str.w	r3, [r7, #220]	; 0xdc
 8005c0e:	2300      	movs	r3, #0
 8005c10:	f8c7 30d8 	str.w	r3, [r7, #216]	; 0xd8
 8005c14:	2300      	movs	r3, #0
 8005c16:	f8c7 30d4 	str.w	r3, [r7, #212]	; 0xd4
 8005c1a:	f8d7 30e4 	ldr.w	r3, [r7, #228]	; 0xe4
 8005c1e:	f003 030f 	and.w	r3, r3, #15
 8005c22:	f8c7 30d8 	str.w	r3, [r7, #216]	; 0xd8
 8005c26:	f8d7 30d8 	ldr.w	r3, [r7, #216]	; 0xd8
 8005c2a:	2b00      	cmp	r3, #0
 8005c2c:	d10f      	bne.n	8005c4e <HAL_UART_IRQHandler+0x66>
 8005c2e:	f8d7 30e4 	ldr.w	r3, [r7, #228]	; 0xe4
 8005c32:	f003 0320 	and.w	r3, r3, #32
 8005c36:	2b00      	cmp	r3, #0
 8005c38:	d009      	beq.n	8005c4e <HAL_UART_IRQHandler+0x66>
 8005c3a:	f8d7 30e0 	ldr.w	r3, [r7, #224]	; 0xe0
 8005c3e:	f003 0320 	and.w	r3, r3, #32
 8005c42:	2b00      	cmp	r3, #0
 8005c44:	d003      	beq.n	8005c4e <HAL_UART_IRQHandler+0x66>
 8005c46:	6878      	ldr	r0, [r7, #4]
 8005c48:	f000 fc03 	bl	8006452 <UART_Receive_IT>
 8005c4c:	e256      	b.n	80060fc <HAL_UART_IRQHandler+0x514>
 8005c4e:	f8d7 30d8 	ldr.w	r3, [r7, #216]	; 0xd8
 8005c52:	2b00      	cmp	r3, #0
 8005c54:	f000 80de 	beq.w	8005e14 <HAL_UART_IRQHandler+0x22c>
 8005c58:	f8d7 30dc 	ldr.w	r3, [r7, #220]	; 0xdc
 8005c5c:	f003 0301 	and.w	r3, r3, #1
 8005c60:	2b00      	cmp	r3, #0
 8005c62:	d106      	bne.n	8005c72 <HAL_UART_IRQHandler+0x8a>
 8005c64:	f8d7 30e0 	ldr.w	r3, [r7, #224]	; 0xe0
 8005c68:	f403 7390 	and.w	r3, r3, #288	; 0x120
 8005c6c:	2b00      	cmp	r3, #0
 8005c6e:	f000 80d1 	beq.w	8005e14 <HAL_UART_IRQHandler+0x22c>
 8005c72:	f8d7 30e4 	ldr.w	r3, [r7, #228]	; 0xe4
 8005c76:	f003 0301 	and.w	r3, r3, #1
 8005c7a:	2b00      	cmp	r3, #0
 8005c7c:	d00b      	beq.n	8005c96 <HAL_UART_IRQHandler+0xae>
 8005c7e:	f8d7 30e0 	ldr.w	r3, [r7, #224]	; 0xe0
 8005c82:	f403 7380 	and.w	r3, r3, #256	; 0x100
 8005c86:	2b00      	cmp	r3, #0
 8005c88:	d005      	beq.n	8005c96 <HAL_UART_IRQHandler+0xae>
 8005c8a:	687b      	ldr	r3, [r7, #4]
 8005c8c:	6c1b      	ldr	r3, [r3, #64]	; 0x40
 8005c8e:	f043 0201 	orr.w	r2, r3, #1
 8005c92:	687b      	ldr	r3, [r7, #4]
 8005c94:	641a      	str	r2, [r3, #64]	; 0x40
 8005c96:	f8d7 30e4 	ldr.w	r3, [r7, #228]	; 0xe4
 8005c9a:	f003 0304 	and.w	r3, r3, #4
 8005c9e:	2b00      	cmp	r3, #0
 8005ca0:	d00b      	beq.n	8005cba <HAL_UART_IRQHandler+0xd2>
 8005ca2:	f8d7 30dc 	ldr.w	r3, [r7, #220]	; 0xdc
 8005ca6:	f003 0301 	and.w	r3, r3, #1
 8005caa:	2b00      	cmp	r3, #0
 8005cac:	d005      	beq.n	8005cba <HAL_UART_IRQHandler+0xd2>
 8005cae:	687b      	ldr	r3, [r7, #4]
 8005cb0:	6c1b      	ldr	r3, [r3, #64]	; 0x40
 8005cb2:	f043 0202 	orr.w	r2, r3, #2
 8005cb6:	687b      	ldr	r3, [r7, #4]
 8005cb8:	641a      	str	r2, [r3, #64]	; 0x40
 8005cba:	f8d7 30e4 	ldr.w	r3, [r7, #228]	; 0xe4
 8005cbe:	f003 0302 	and.w	r3, r3, #2
 8005cc2:	2b00      	cmp	r3, #0
 8005cc4:	d00b      	beq.n	8005cde <HAL_UART_IRQHandler+0xf6>
 8005cc6:	f8d7 30dc 	ldr.w	r3, [r7, #220]	; 0xdc
 8005cca:	f003 0301 	and.w	r3, r3, #1
 8005cce:	2b00      	cmp	r3, #0
 8005cd0:	d005      	beq.n	8005cde <HAL_UART_IRQHandler+0xf6>
 8005cd2:	687b      	ldr	r3, [r7, #4]
 8005cd4:	6c1b      	ldr	r3, [r3, #64]	; 0x40
 8005cd6:	f043 0204 	orr.w	r2, r3, #4
 8005cda:	687b      	ldr	r3, [r7, #4]
 8005cdc:	641a      	str	r2, [r3, #64]	; 0x40
 8005cde:	f8d7 30e4 	ldr.w	r3, [r7, #228]	; 0xe4
 8005ce2:	f003 0308 	and.w	r3, r3, #8
 8005ce6:	2b00      	cmp	r3, #0
 8005ce8:	d011      	beq.n	8005d0e <HAL_UART_IRQHandler+0x126>
 8005cea:	f8d7 30e0 	ldr.w	r3, [r7, #224]	; 0xe0
 8005cee:	f003 0320 	and.w	r3, r3, #32
 8005cf2:	2b00      	cmp	r3, #0
 8005cf4:	d105      	bne.n	8005d02 <HAL_UART_IRQHandler+0x11a>
 8005cf6:	f8d7 30dc 	ldr.w	r3, [r7, #220]	; 0xdc
 8005cfa:	f003 0301 	and.w	r3, r3, #1
 8005cfe:	2b00      	cmp	r3, #0
 8005d00:	d005      	beq.n	8005d0e <HAL_UART_IRQHandler+0x126>
 8005d02:	687b      	ldr	r3, [r7, #4]
 8005d04:	6c1b      	ldr	r3, [r3, #64]	; 0x40
 8005d06:	f043 0208 	orr.w	r2, r3, #8
 8005d0a:	687b      	ldr	r3, [r7, #4]
 8005d0c:	641a      	str	r2, [r3, #64]	; 0x40
 8005d0e:	687b      	ldr	r3, [r7, #4]
 8005d10:	6c1b      	ldr	r3, [r3, #64]	; 0x40
 8005d12:	2b00      	cmp	r3, #0
 8005d14:	f000 81ed 	beq.w	80060f2 <HAL_UART_IRQHandler+0x50a>
 8005d18:	f8d7 30e4 	ldr.w	r3, [r7, #228]	; 0xe4
 8005d1c:	f003 0320 	and.w	r3, r3, #32
 8005d20:	2b00      	cmp	r3, #0
 8005d22:	d008      	beq.n	8005d36 <HAL_UART_IRQHandler+0x14e>
 8005d24:	f8d7 30e0 	ldr.w	r3, [r7, #224]	; 0xe0
 8005d28:	f003 0320 	and.w	r3, r3, #32
 8005d2c:	2b00      	cmp	r3, #0
 8005d2e:	d002      	beq.n	8005d36 <HAL_UART_IRQHandler+0x14e>
 8005d30:	6878      	ldr	r0, [r7, #4]
 8005d32:	f000 fb8e 	bl	8006452 <UART_Receive_IT>
 8005d36:	687b      	ldr	r3, [r7, #4]
 8005d38:	681b      	ldr	r3, [r3, #0]
 8005d3a:	695b      	ldr	r3, [r3, #20]
 8005d3c:	f003 0340 	and.w	r3, r3, #64	; 0x40
 8005d40:	2b40      	cmp	r3, #64	; 0x40
 8005d42:	bf0c      	ite	eq
 8005d44:	2301      	moveq	r3, #1
 8005d46:	2300      	movne	r3, #0
 8005d48:	b2db      	uxtb	r3, r3
 8005d4a:	f8c7 30d4 	str.w	r3, [r7, #212]	; 0xd4
 8005d4e:	687b      	ldr	r3, [r7, #4]
 8005d50:	6c1b      	ldr	r3, [r3, #64]	; 0x40
 8005d52:	f003 0308 	and.w	r3, r3, #8
 8005d56:	2b00      	cmp	r3, #0
 8005d58:	d103      	bne.n	8005d62 <HAL_UART_IRQHandler+0x17a>
 8005d5a:	f8d7 30d4 	ldr.w	r3, [r7, #212]	; 0xd4
 8005d5e:	2b00      	cmp	r3, #0
 8005d60:	d04f      	beq.n	8005e02 <HAL_UART_IRQHandler+0x21a>
 8005d62:	6878      	ldr	r0, [r7, #4]
 8005d64:	f000 fa96 	bl	8006294 <UART_EndRxTransfer>
 8005d68:	687b      	ldr	r3, [r7, #4]
 8005d6a:	681b      	ldr	r3, [r3, #0]
 8005d6c:	695b      	ldr	r3, [r3, #20]
 8005d6e:	f003 0340 	and.w	r3, r3, #64	; 0x40
 8005d72:	2b40      	cmp	r3, #64	; 0x40
 8005d74:	d141      	bne.n	8005dfa <HAL_UART_IRQHandler+0x212>
 8005d76:	687b      	ldr	r3, [r7, #4]
 8005d78:	681b      	ldr	r3, [r3, #0]
 8005d7a:	3314      	adds	r3, #20
 8005d7c:	f8c7 309c 	str.w	r3, [r7, #156]	; 0x9c
 8005d80:	f8d7 309c 	ldr.w	r3, [r7, #156]	; 0x9c
 8005d84:	e853 3f00 	ldrex	r3, [r3]
 8005d88:	f8c7 3098 	str.w	r3, [r7, #152]	; 0x98
 8005d8c:	f8d7 3098 	ldr.w	r3, [r7, #152]	; 0x98
 8005d90:	f023 0340 	bic.w	r3, r3, #64	; 0x40
 8005d94:	f8c7 30d0 	str.w	r3, [r7, #208]	; 0xd0
 8005d98:	687b      	ldr	r3, [r7, #4]
 8005d9a:	681b      	ldr	r3, [r3, #0]
 8005d9c:	3314      	adds	r3, #20
 8005d9e:	f8d7 20d0 	ldr.w	r2, [r7, #208]	; 0xd0
 8005da2:	f8c7 20a8 	str.w	r2, [r7, #168]	; 0xa8
 8005da6:	f8c7 30a4 	str.w	r3, [r7, #164]	; 0xa4
 8005daa:	f8d7 10a4 	ldr.w	r1, [r7, #164]	; 0xa4
 8005dae:	f8d7 20a8 	ldr.w	r2, [r7, #168]	; 0xa8
 8005db2:	e841 2300 	strex	r3, r2, [r1]
 8005db6:	f8c7 30a0 	str.w	r3, [r7, #160]	; 0xa0
 8005dba:	f8d7 30a0 	ldr.w	r3, [r7, #160]	; 0xa0
 8005dbe:	2b00      	cmp	r3, #0
 8005dc0:	d1d9      	bne.n	8005d76 <HAL_UART_IRQHandler+0x18e>
 8005dc2:	687b      	ldr	r3, [r7, #4]
 8005dc4:	6b9b      	ldr	r3, [r3, #56]	; 0x38
 8005dc6:	2b00      	cmp	r3, #0
 8005dc8:	d013      	beq.n	8005df2 <HAL_UART_IRQHandler+0x20a>
 8005dca:	687b      	ldr	r3, [r7, #4]
 8005dcc:	6b9b      	ldr	r3, [r3, #56]	; 0x38
 8005dce:	4a7d      	ldr	r2, [pc, #500]	; (8005fc4 <HAL_UART_IRQHandler+0x3dc>)
 8005dd0:	651a      	str	r2, [r3, #80]	; 0x50
 8005dd2:	687b      	ldr	r3, [r7, #4]
 8005dd4:	6b9b      	ldr	r3, [r3, #56]	; 0x38
 8005dd6:	4618      	mov	r0, r3
 8005dd8:	f7fb fe00 	bl	80019dc <HAL_DMA_Abort_IT>
 8005ddc:	4603      	mov	r3, r0
 8005dde:	2b00      	cmp	r3, #0
 8005de0:	d016      	beq.n	8005e10 <HAL_UART_IRQHandler+0x228>
 8005de2:	687b      	ldr	r3, [r7, #4]
 8005de4:	6b9b      	ldr	r3, [r3, #56]	; 0x38
 8005de6:	6d1b      	ldr	r3, [r3, #80]	; 0x50
 8005de8:	687a      	ldr	r2, [r7, #4]
 8005dea:	6b92      	ldr	r2, [r2, #56]	; 0x38
 8005dec:	4610      	mov	r0, r2
 8005dee:	4798      	blx	r3
 8005df0:	e00e      	b.n	8005e10 <HAL_UART_IRQHandler+0x228>
 8005df2:	6878      	ldr	r0, [r7, #4]
 8005df4:	f000 f990 	bl	8006118 <HAL_UART_ErrorCallback>
 8005df8:	e00a      	b.n	8005e10 <HAL_UART_IRQHandler+0x228>
 8005dfa:	6878      	ldr	r0, [r7, #4]
 8005dfc:	f000 f98c 	bl	8006118 <HAL_UART_ErrorCallback>
 8005e00:	e006      	b.n	8005e10 <HAL_UART_IRQHandler+0x228>
 8005e02:	6878      	ldr	r0, [r7, #4]
 8005e04:	f000 f988 	bl	8006118 <HAL_UART_ErrorCallback>
 8005e08:	687b      	ldr	r3, [r7, #4]
 8005e0a:	2200      	movs	r2, #0
 8005e0c:	641a      	str	r2, [r3, #64]	; 0x40
 8005e0e:	e170      	b.n	80060f2 <HAL_UART_IRQHandler+0x50a>
 8005e10:	bf00      	nop
 8005e12:	e16e      	b.n	80060f2 <HAL_UART_IRQHandler+0x50a>
 8005e14:	687b      	ldr	r3, [r7, #4]
 8005e16:	6b1b      	ldr	r3, [r3, #48]	; 0x30
 8005e18:	2b01      	cmp	r3, #1
 8005e1a:	f040 814a 	bne.w	80060b2 <HAL_UART_IRQHandler+0x4ca>
 8005e1e:	f8d7 30e4 	ldr.w	r3, [r7, #228]	; 0xe4
 8005e22:	f003 0310 	and.w	r3, r3, #16
 8005e26:	2b00      	cmp	r3, #0
 8005e28:	f000 8143 	beq.w	80060b2 <HAL_UART_IRQHandler+0x4ca>
 8005e2c:	f8d7 30e0 	ldr.w	r3, [r7, #224]	; 0xe0
 8005e30:	f003 0310 	and.w	r3, r3, #16
 8005e34:	2b00      	cmp	r3, #0
 8005e36:	f000 813c 	beq.w	80060b2 <HAL_UART_IRQHandler+0x4ca>
 8005e3a:	2300      	movs	r3, #0
 8005e3c:	60bb      	str	r3, [r7, #8]
 8005e3e:	687b      	ldr	r3, [r7, #4]
 8005e40:	681b      	ldr	r3, [r3, #0]
 8005e42:	681b      	ldr	r3, [r3, #0]
 8005e44:	60bb      	str	r3, [r7, #8]
 8005e46:	687b      	ldr	r3, [r7, #4]
 8005e48:	681b      	ldr	r3, [r3, #0]
 8005e4a:	685b      	ldr	r3, [r3, #4]
 8005e4c:	60bb      	str	r3, [r7, #8]
 8005e4e:	68bb      	ldr	r3, [r7, #8]
 8005e50:	687b      	ldr	r3, [r7, #4]
 8005e52:	681b      	ldr	r3, [r3, #0]
 8005e54:	695b      	ldr	r3, [r3, #20]
 8005e56:	f003 0340 	and.w	r3, r3, #64	; 0x40
 8005e5a:	2b40      	cmp	r3, #64	; 0x40
 8005e5c:	f040 80b4 	bne.w	8005fc8 <HAL_UART_IRQHandler+0x3e0>
 8005e60:	687b      	ldr	r3, [r7, #4]
 8005e62:	6b9b      	ldr	r3, [r3, #56]	; 0x38
 8005e64:	681b      	ldr	r3, [r3, #0]
 8005e66:	685b      	ldr	r3, [r3, #4]
 8005e68:	f8a7 30be 	strh.w	r3, [r7, #190]	; 0xbe
 8005e6c:	f8b7 30be 	ldrh.w	r3, [r7, #190]	; 0xbe
 8005e70:	2b00      	cmp	r3, #0
 8005e72:	f000 8140 	beq.w	80060f6 <HAL_UART_IRQHandler+0x50e>
 8005e76:	687b      	ldr	r3, [r7, #4]
 8005e78:	8d9b      	ldrh	r3, [r3, #44]	; 0x2c
 8005e7a:	f8b7 20be 	ldrh.w	r2, [r7, #190]	; 0xbe
 8005e7e:	429a      	cmp	r2, r3
 8005e80:	f080 8139 	bcs.w	80060f6 <HAL_UART_IRQHandler+0x50e>
 8005e84:	687b      	ldr	r3, [r7, #4]
 8005e86:	f8b7 20be 	ldrh.w	r2, [r7, #190]	; 0xbe
 8005e8a:	85da      	strh	r2, [r3, #46]	; 0x2e
 8005e8c:	687b      	ldr	r3, [r7, #4]
 8005e8e:	6b9b      	ldr	r3, [r3, #56]	; 0x38
 8005e90:	69db      	ldr	r3, [r3, #28]
 8005e92:	f5b3 7f80 	cmp.w	r3, #256	; 0x100
 8005e96:	f000 8088 	beq.w	8005faa <HAL_UART_IRQHandler+0x3c2>
 8005e9a:	687b      	ldr	r3, [r7, #4]
 8005e9c:	681b      	ldr	r3, [r3, #0]
 8005e9e:	330c      	adds	r3, #12
 8005ea0:	f8c7 3088 	str.w	r3, [r7, #136]	; 0x88
 8005ea4:	f8d7 3088 	ldr.w	r3, [r7, #136]	; 0x88
 8005ea8:	e853 3f00 	ldrex	r3, [r3]
 8005eac:	f8c7 3084 	str.w	r3, [r7, #132]	; 0x84
 8005eb0:	f8d7 3084 	ldr.w	r3, [r7, #132]	; 0x84
 8005eb4:	f423 7380 	bic.w	r3, r3, #256	; 0x100
 8005eb8:	f8c7 30b8 	str.w	r3, [r7, #184]	; 0xb8
 8005ebc:	687b      	ldr	r3, [r7, #4]
 8005ebe:	681b      	ldr	r3, [r3, #0]
 8005ec0:	330c      	adds	r3, #12
 8005ec2:	f8d7 20b8 	ldr.w	r2, [r7, #184]	; 0xb8
 8005ec6:	f8c7 2094 	str.w	r2, [r7, #148]	; 0x94
 8005eca:	f8c7 3090 	str.w	r3, [r7, #144]	; 0x90
 8005ece:	f8d7 1090 	ldr.w	r1, [r7, #144]	; 0x90
 8005ed2:	f8d7 2094 	ldr.w	r2, [r7, #148]	; 0x94
 8005ed6:	e841 2300 	strex	r3, r2, [r1]
 8005eda:	f8c7 308c 	str.w	r3, [r7, #140]	; 0x8c
 8005ede:	f8d7 308c 	ldr.w	r3, [r7, #140]	; 0x8c
 8005ee2:	2b00      	cmp	r3, #0
 8005ee4:	d1d9      	bne.n	8005e9a <HAL_UART_IRQHandler+0x2b2>
 8005ee6:	687b      	ldr	r3, [r7, #4]
 8005ee8:	681b      	ldr	r3, [r3, #0]
 8005eea:	3314      	adds	r3, #20
 8005eec:	677b      	str	r3, [r7, #116]	; 0x74
 8005eee:	6f7b      	ldr	r3, [r7, #116]	; 0x74
 8005ef0:	e853 3f00 	ldrex	r3, [r3]
 8005ef4:	673b      	str	r3, [r7, #112]	; 0x70
 8005ef6:	6f3b      	ldr	r3, [r7, #112]	; 0x70
 8005ef8:	f023 0301 	bic.w	r3, r3, #1
 8005efc:	f8c7 30b4 	str.w	r3, [r7, #180]	; 0xb4
 8005f00:	687b      	ldr	r3, [r7, #4]
 8005f02:	681b      	ldr	r3, [r3, #0]
 8005f04:	3314      	adds	r3, #20
 8005f06:	f8d7 20b4 	ldr.w	r2, [r7, #180]	; 0xb4
 8005f0a:	f8c7 2080 	str.w	r2, [r7, #128]	; 0x80
 8005f0e:	67fb      	str	r3, [r7, #124]	; 0x7c
 8005f10:	6ff9      	ldr	r1, [r7, #124]	; 0x7c
 8005f12:	f8d7 2080 	ldr.w	r2, [r7, #128]	; 0x80
 8005f16:	e841 2300 	strex	r3, r2, [r1]
 8005f1a:	67bb      	str	r3, [r7, #120]	; 0x78
 8005f1c:	6fbb      	ldr	r3, [r7, #120]	; 0x78
 8005f1e:	2b00      	cmp	r3, #0
 8005f20:	d1e1      	bne.n	8005ee6 <HAL_UART_IRQHandler+0x2fe>
 8005f22:	687b      	ldr	r3, [r7, #4]
 8005f24:	681b      	ldr	r3, [r3, #0]
 8005f26:	3314      	adds	r3, #20
 8005f28:	663b      	str	r3, [r7, #96]	; 0x60
 8005f2a:	6e3b      	ldr	r3, [r7, #96]	; 0x60
 8005f2c:	e853 3f00 	ldrex	r3, [r3]
 8005f30:	65fb      	str	r3, [r7, #92]	; 0x5c
 8005f32:	6dfb      	ldr	r3, [r7, #92]	; 0x5c
 8005f34:	f023 0340 	bic.w	r3, r3, #64	; 0x40
 8005f38:	f8c7 30b0 	str.w	r3, [r7, #176]	; 0xb0
 8005f3c:	687b      	ldr	r3, [r7, #4]
 8005f3e:	681b      	ldr	r3, [r3, #0]
 8005f40:	3314      	adds	r3, #20
 8005f42:	f8d7 20b0 	ldr.w	r2, [r7, #176]	; 0xb0
 8005f46:	66fa      	str	r2, [r7, #108]	; 0x6c
 8005f48:	66bb      	str	r3, [r7, #104]	; 0x68
 8005f4a:	6eb9      	ldr	r1, [r7, #104]	; 0x68
 8005f4c:	6efa      	ldr	r2, [r7, #108]	; 0x6c
 8005f4e:	e841 2300 	strex	r3, r2, [r1]
 8005f52:	667b      	str	r3, [r7, #100]	; 0x64
 8005f54:	6e7b      	ldr	r3, [r7, #100]	; 0x64
 8005f56:	2b00      	cmp	r3, #0
 8005f58:	d1e3      	bne.n	8005f22 <HAL_UART_IRQHandler+0x33a>
 8005f5a:	687b      	ldr	r3, [r7, #4]
 8005f5c:	2220      	movs	r2, #32
 8005f5e:	f883 203e 	strb.w	r2, [r3, #62]	; 0x3e
 8005f62:	687b      	ldr	r3, [r7, #4]
 8005f64:	2200      	movs	r2, #0
 8005f66:	631a      	str	r2, [r3, #48]	; 0x30
 8005f68:	687b      	ldr	r3, [r7, #4]
 8005f6a:	681b      	ldr	r3, [r3, #0]
 8005f6c:	330c      	adds	r3, #12
 8005f6e:	64fb      	str	r3, [r7, #76]	; 0x4c
 8005f70:	6cfb      	ldr	r3, [r7, #76]	; 0x4c
 8005f72:	e853 3f00 	ldrex	r3, [r3]
 8005f76:	64bb      	str	r3, [r7, #72]	; 0x48
 8005f78:	6cbb      	ldr	r3, [r7, #72]	; 0x48
 8005f7a:	f023 0310 	bic.w	r3, r3, #16
 8005f7e:	f8c7 30ac 	str.w	r3, [r7, #172]	; 0xac
 8005f82:	687b      	ldr	r3, [r7, #4]
 8005f84:	681b      	ldr	r3, [r3, #0]
 8005f86:	330c      	adds	r3, #12
 8005f88:	f8d7 20ac 	ldr.w	r2, [r7, #172]	; 0xac
 8005f8c:	65ba      	str	r2, [r7, #88]	; 0x58
 8005f8e:	657b      	str	r3, [r7, #84]	; 0x54
 8005f90:	6d79      	ldr	r1, [r7, #84]	; 0x54
 8005f92:	6dba      	ldr	r2, [r7, #88]	; 0x58
 8005f94:	e841 2300 	strex	r3, r2, [r1]
 8005f98:	653b      	str	r3, [r7, #80]	; 0x50
 8005f9a:	6d3b      	ldr	r3, [r7, #80]	; 0x50
 8005f9c:	2b00      	cmp	r3, #0
 8005f9e:	d1e3      	bne.n	8005f68 <HAL_UART_IRQHandler+0x380>
 8005fa0:	687b      	ldr	r3, [r7, #4]
 8005fa2:	6b9b      	ldr	r3, [r3, #56]	; 0x38
 8005fa4:	4618      	mov	r0, r3
 8005fa6:	f7fb fca9 	bl	80018fc <HAL_DMA_Abort>
 8005faa:	687b      	ldr	r3, [r7, #4]
 8005fac:	8d9a      	ldrh	r2, [r3, #44]	; 0x2c
 8005fae:	687b      	ldr	r3, [r7, #4]
 8005fb0:	8ddb      	ldrh	r3, [r3, #46]	; 0x2e
 8005fb2:	b29b      	uxth	r3, r3
 8005fb4:	1ad3      	subs	r3, r2, r3
 8005fb6:	b29b      	uxth	r3, r3
 8005fb8:	4619      	mov	r1, r3
 8005fba:	6878      	ldr	r0, [r7, #4]
 8005fbc:	f000 f8b6 	bl	800612c <HAL_UARTEx_RxEventCallback>
 8005fc0:	e099      	b.n	80060f6 <HAL_UART_IRQHandler+0x50e>
 8005fc2:	bf00      	nop
 8005fc4:	0800635b 	.word	0x0800635b
 8005fc8:	687b      	ldr	r3, [r7, #4]
 8005fca:	8d9a      	ldrh	r2, [r3, #44]	; 0x2c
 8005fcc:	687b      	ldr	r3, [r7, #4]
 8005fce:	8ddb      	ldrh	r3, [r3, #46]	; 0x2e
 8005fd0:	b29b      	uxth	r3, r3
 8005fd2:	1ad3      	subs	r3, r2, r3
 8005fd4:	f8a7 30ce 	strh.w	r3, [r7, #206]	; 0xce
 8005fd8:	687b      	ldr	r3, [r7, #4]
 8005fda:	8ddb      	ldrh	r3, [r3, #46]	; 0x2e
 8005fdc:	b29b      	uxth	r3, r3
 8005fde:	2b00      	cmp	r3, #0
 8005fe0:	f000 808b 	beq.w	80060fa <HAL_UART_IRQHandler+0x512>
 8005fe4:	f8b7 30ce 	ldrh.w	r3, [r7, #206]	; 0xce
 8005fe8:	2b00      	cmp	r3, #0
 8005fea:	f000 8086 	beq.w	80060fa <HAL_UART_IRQHandler+0x512>
 8005fee:	687b      	ldr	r3, [r7, #4]
 8005ff0:	681b      	ldr	r3, [r3, #0]
 8005ff2:	330c      	adds	r3, #12
 8005ff4:	63bb      	str	r3, [r7, #56]	; 0x38
 8005ff6:	6bbb      	ldr	r3, [r7, #56]	; 0x38
 8005ff8:	e853 3f00 	ldrex	r3, [r3]
 8005ffc:	637b      	str	r3, [r7, #52]	; 0x34
 8005ffe:	6b7b      	ldr	r3, [r7, #52]	; 0x34
 8006000:	f423 7390 	bic.w	r3, r3, #288	; 0x120
 8006004:	f8c7 30c8 	str.w	r3, [r7, #200]	; 0xc8
 8006008:	687b      	ldr	r3, [r7, #4]
 800600a:	681b      	ldr	r3, [r3, #0]
 800600c:	330c      	adds	r3, #12
 800600e:	f8d7 20c8 	ldr.w	r2, [r7, #200]	; 0xc8
 8006012:	647a      	str	r2, [r7, #68]	; 0x44
 8006014:	643b      	str	r3, [r7, #64]	; 0x40
 8006016:	6c39      	ldr	r1, [r7, #64]	; 0x40
 8006018:	6c7a      	ldr	r2, [r7, #68]	; 0x44
 800601a:	e841 2300 	strex	r3, r2, [r1]
 800601e:	63fb      	str	r3, [r7, #60]	; 0x3c
 8006020:	6bfb      	ldr	r3, [r7, #60]	; 0x3c
 8006022:	2b00      	cmp	r3, #0
 8006024:	d1e3      	bne.n	8005fee <HAL_UART_IRQHandler+0x406>
 8006026:	687b      	ldr	r3, [r7, #4]
 8006028:	681b      	ldr	r3, [r3, #0]
 800602a:	3314      	adds	r3, #20
 800602c:	627b      	str	r3, [r7, #36]	; 0x24
 800602e:	6a7b      	ldr	r3, [r7, #36]	; 0x24
 8006030:	e853 3f00 	ldrex	r3, [r3]
 8006034:	623b      	str	r3, [r7, #32]
 8006036:	6a3b      	ldr	r3, [r7, #32]
 8006038:	f023 0301 	bic.w	r3, r3, #1
 800603c:	f8c7 30c4 	str.w	r3, [r7, #196]	; 0xc4
 8006040:	687b      	ldr	r3, [r7, #4]
 8006042:	681b      	ldr	r3, [r3, #0]
 8006044:	3314      	adds	r3, #20
 8006046:	f8d7 20c4 	ldr.w	r2, [r7, #196]	; 0xc4
 800604a:	633a      	str	r2, [r7, #48]	; 0x30
 800604c:	62fb      	str	r3, [r7, #44]	; 0x2c
 800604e:	6af9      	ldr	r1, [r7, #44]	; 0x2c
 8006050:	6b3a      	ldr	r2, [r7, #48]	; 0x30
 8006052:	e841 2300 	strex	r3, r2, [r1]
 8006056:	62bb      	str	r3, [r7, #40]	; 0x28
 8006058:	6abb      	ldr	r3, [r7, #40]	; 0x28
 800605a:	2b00      	cmp	r3, #0
 800605c:	d1e3      	bne.n	8006026 <HAL_UART_IRQHandler+0x43e>
 800605e:	687b      	ldr	r3, [r7, #4]
 8006060:	2220      	movs	r2, #32
 8006062:	f883 203e 	strb.w	r2, [r3, #62]	; 0x3e
 8006066:	687b      	ldr	r3, [r7, #4]
 8006068:	2200      	movs	r2, #0
 800606a:	631a      	str	r2, [r3, #48]	; 0x30
 800606c:	687b      	ldr	r3, [r7, #4]
 800606e:	681b      	ldr	r3, [r3, #0]
 8006070:	330c      	adds	r3, #12
 8006072:	613b      	str	r3, [r7, #16]
 8006074:	693b      	ldr	r3, [r7, #16]
 8006076:	e853 3f00 	ldrex	r3, [r3]
 800607a:	60fb      	str	r3, [r7, #12]
 800607c:	68fb      	ldr	r3, [r7, #12]
 800607e:	f023 0310 	bic.w	r3, r3, #16
 8006082:	f8c7 30c0 	str.w	r3, [r7, #192]	; 0xc0
 8006086:	687b      	ldr	r3, [r7, #4]
 8006088:	681b      	ldr	r3, [r3, #0]
 800608a:	330c      	adds	r3, #12
 800608c:	f8d7 20c0 	ldr.w	r2, [r7, #192]	; 0xc0
 8006090:	61fa      	str	r2, [r7, #28]
 8006092:	61bb      	str	r3, [r7, #24]
 8006094:	69b9      	ldr	r1, [r7, #24]
 8006096:	69fa      	ldr	r2, [r7, #28]
 8006098:	e841 2300 	strex	r3, r2, [r1]
 800609c:	617b      	str	r3, [r7, #20]
 800609e:	697b      	ldr	r3, [r7, #20]
 80060a0:	2b00      	cmp	r3, #0
 80060a2:	d1e3      	bne.n	800606c <HAL_UART_IRQHandler+0x484>
 80060a4:	f8b7 30ce 	ldrh.w	r3, [r7, #206]	; 0xce
 80060a8:	4619      	mov	r1, r3
 80060aa:	6878      	ldr	r0, [r7, #4]
 80060ac:	f000 f83e 	bl	800612c <HAL_UARTEx_RxEventCallback>
 80060b0:	e023      	b.n	80060fa <HAL_UART_IRQHandler+0x512>
 80060b2:	f8d7 30e4 	ldr.w	r3, [r7, #228]	; 0xe4
 80060b6:	f003 0380 	and.w	r3, r3, #128	; 0x80
 80060ba:	2b00      	cmp	r3, #0
 80060bc:	d009      	beq.n	80060d2 <HAL_UART_IRQHandler+0x4ea>
 80060be:	f8d7 30e0 	ldr.w	r3, [r7, #224]	; 0xe0
 80060c2:	f003 0380 	and.w	r3, r3, #128	; 0x80
 80060c6:	2b00      	cmp	r3, #0
 80060c8:	d003      	beq.n	80060d2 <HAL_UART_IRQHandler+0x4ea>
 80060ca:	6878      	ldr	r0, [r7, #4]
 80060cc:	f000 f959 	bl	8006382 <UART_Transmit_IT>
 80060d0:	e014      	b.n	80060fc <HAL_UART_IRQHandler+0x514>
 80060d2:	f8d7 30e4 	ldr.w	r3, [r7, #228]	; 0xe4
 80060d6:	f003 0340 	and.w	r3, r3, #64	; 0x40
 80060da:	2b00      	cmp	r3, #0
 80060dc:	d00e      	beq.n	80060fc <HAL_UART_IRQHandler+0x514>
 80060de:	f8d7 30e0 	ldr.w	r3, [r7, #224]	; 0xe0
 80060e2:	f003 0340 	and.w	r3, r3, #64	; 0x40
 80060e6:	2b00      	cmp	r3, #0
 80060e8:	d008      	beq.n	80060fc <HAL_UART_IRQHandler+0x514>
 80060ea:	6878      	ldr	r0, [r7, #4]
 80060ec:	f000 f999 	bl	8006422 <UART_EndTransmit_IT>
 80060f0:	e004      	b.n	80060fc <HAL_UART_IRQHandler+0x514>
 80060f2:	bf00      	nop
 80060f4:	e002      	b.n	80060fc <HAL_UART_IRQHandler+0x514>
 80060f6:	bf00      	nop
 80060f8:	e000      	b.n	80060fc <HAL_UART_IRQHandler+0x514>
 80060fa:	bf00      	nop
 80060fc:	37e8      	adds	r7, #232	; 0xe8
 80060fe:	46bd      	mov	sp, r7
 8006100:	bd80      	pop	{r7, pc}
 8006102:	bf00      	nop

08006104 <HAL_UART_TxCpltCallback>:
 8006104:	b480      	push	{r7}
 8006106:	b083      	sub	sp, #12
 8006108:	af00      	add	r7, sp, #0
 800610a:	6078      	str	r0, [r7, #4]
 800610c:	bf00      	nop
 800610e:	370c      	adds	r7, #12
 8006110:	46bd      	mov	sp, r7
 8006112:	f85d 7b04 	ldr.w	r7, [sp], #4
 8006116:	4770      	bx	lr

08006118 <HAL_UART_ErrorCallback>:
 8006118:	b480      	push	{r7}
 800611a:	b083      	sub	sp, #12
 800611c:	af00      	add	r7, sp, #0
 800611e:	6078      	str	r0, [r7, #4]
 8006120:	bf00      	nop
 8006122:	370c      	adds	r7, #12
 8006124:	46bd      	mov	sp, r7
 8006126:	f85d 7b04 	ldr.w	r7, [sp], #4
 800612a:	4770      	bx	lr

0800612c <HAL_UARTEx_RxEventCallback>:
 800612c:	b480      	push	{r7}
 800612e:	b083      	sub	sp, #12
 8006130:	af00      	add	r7, sp, #0
 8006132:	6078      	str	r0, [r7, #4]
 8006134:	460b      	mov	r3, r1
 8006136:	807b      	strh	r3, [r7, #2]
 8006138:	bf00      	nop
 800613a:	370c      	adds	r7, #12
 800613c:	46bd      	mov	sp, r7
 800613e:	f85d 7b04 	ldr.w	r7, [sp], #4
 8006142:	4770      	bx	lr

08006144 <UART_WaitOnFlagUntilTimeout>:
 8006144:	b580      	push	{r7, lr}
 8006146:	b090      	sub	sp, #64	; 0x40
 8006148:	af00      	add	r7, sp, #0
 800614a:	60f8      	str	r0, [r7, #12]
 800614c:	60b9      	str	r1, [r7, #8]
 800614e:	603b      	str	r3, [r7, #0]
 8006150:	4613      	mov	r3, r2
 8006152:	71fb      	strb	r3, [r7, #7]
 8006154:	e050      	b.n	80061f8 <UART_WaitOnFlagUntilTimeout+0xb4>
 8006156:	6cbb      	ldr	r3, [r7, #72]	; 0x48
 8006158:	f1b3 3fff 	cmp.w	r3, #4294967295
 800615c:	d04c      	beq.n	80061f8 <UART_WaitOnFlagUntilTimeout+0xb4>
 800615e:	6cbb      	ldr	r3, [r7, #72]	; 0x48
 8006160:	2b00      	cmp	r3, #0
 8006162:	d007      	beq.n	8006174 <UART_WaitOnFlagUntilTimeout+0x30>
 8006164:	f7fb fab8 	bl	80016d8 <HAL_GetTick>
 8006168:	4602      	mov	r2, r0
 800616a:	683b      	ldr	r3, [r7, #0]
 800616c:	1ad3      	subs	r3, r2, r3
 800616e:	6cba      	ldr	r2, [r7, #72]	; 0x48
 8006170:	429a      	cmp	r2, r3
 8006172:	d241      	bcs.n	80061f8 <UART_WaitOnFlagUntilTimeout+0xb4>
 8006174:	68fb      	ldr	r3, [r7, #12]
 8006176:	681b      	ldr	r3, [r3, #0]
 8006178:	330c      	adds	r3, #12
 800617a:	62bb      	str	r3, [r7, #40]	; 0x28
 800617c:	6abb      	ldr	r3, [r7, #40]	; 0x28
 800617e:	e853 3f00 	ldrex	r3, [r3]
 8006182:	627b      	str	r3, [r7, #36]	; 0x24
 8006184:	6a7b      	ldr	r3, [r7, #36]	; 0x24
 8006186:	f423 73d0 	bic.w	r3, r3, #416	; 0x1a0
 800618a:	63fb      	str	r3, [r7, #60]	; 0x3c
 800618c:	68fb      	ldr	r3, [r7, #12]
 800618e:	681b      	ldr	r3, [r3, #0]
 8006190:	330c      	adds	r3, #12
 8006192:	6bfa      	ldr	r2, [r7, #60]	; 0x3c
 8006194:	637a      	str	r2, [r7, #52]	; 0x34
 8006196:	633b      	str	r3, [r7, #48]	; 0x30
 8006198:	6b39      	ldr	r1, [r7, #48]	; 0x30
 800619a:	6b7a      	ldr	r2, [r7, #52]	; 0x34
 800619c:	e841 2300 	strex	r3, r2, [r1]
 80061a0:	62fb      	str	r3, [r7, #44]	; 0x2c
 80061a2:	6afb      	ldr	r3, [r7, #44]	; 0x2c
 80061a4:	2b00      	cmp	r3, #0
 80061a6:	d1e5      	bne.n	8006174 <UART_WaitOnFlagUntilTimeout+0x30>
 80061a8:	68fb      	ldr	r3, [r7, #12]
 80061aa:	681b      	ldr	r3, [r3, #0]
 80061ac:	3314      	adds	r3, #20
 80061ae:	617b      	str	r3, [r7, #20]
 80061b0:	697b      	ldr	r3, [r7, #20]
 80061b2:	e853 3f00 	ldrex	r3, [r3]
 80061b6:	613b      	str	r3, [r7, #16]
 80061b8:	693b      	ldr	r3, [r7, #16]
 80061ba:	f023 0301 	bic.w	r3, r3, #1
 80061be:	63bb      	str	r3, [r7, #56]	; 0x38
 80061c0:	68fb      	ldr	r3, [r7, #12]
 80061c2:	681b      	ldr	r3, [r3, #0]
 80061c4:	3314      	adds	r3, #20
 80061c6:	6bba      	ldr	r2, [r7, #56]	; 0x38
 80061c8:	623a      	str	r2, [r7, #32]
 80061ca:	61fb      	str	r3, [r7, #28]
 80061cc:	69f9      	ldr	r1, [r7, #28]
 80061ce:	6a3a      	ldr	r2, [r7, #32]
 80061d0:	e841 2300 	strex	r3, r2, [r1]
 80061d4:	61bb      	str	r3, [r7, #24]
 80061d6:	69bb      	ldr	r3, [r7, #24]
 80061d8:	2b00      	cmp	r3, #0
 80061da:	d1e5      	bne.n	80061a8 <UART_WaitOnFlagUntilTimeout+0x64>
 80061dc:	68fb      	ldr	r3, [r7, #12]
 80061de:	2220      	movs	r2, #32
 80061e0:	f883 203d 	strb.w	r2, [r3, #61]	; 0x3d
 80061e4:	68fb      	ldr	r3, [r7, #12]
 80061e6:	2220      	movs	r2, #32
 80061e8:	f883 203e 	strb.w	r2, [r3, #62]	; 0x3e
 80061ec:	68fb      	ldr	r3, [r7, #12]
 80061ee:	2200      	movs	r2, #0
 80061f0:	f883 203c 	strb.w	r2, [r3, #60]	; 0x3c
 80061f4:	2303      	movs	r3, #3
 80061f6:	e00f      	b.n	8006218 <UART_WaitOnFlagUntilTimeout+0xd4>
 80061f8:	68fb      	ldr	r3, [r7, #12]
 80061fa:	681b      	ldr	r3, [r3, #0]
 80061fc:	681a      	ldr	r2, [r3, #0]
 80061fe:	68bb      	ldr	r3, [r7, #8]
 8006200:	4013      	ands	r3, r2
 8006202:	68ba      	ldr	r2, [r7, #8]
 8006204:	429a      	cmp	r2, r3
 8006206:	bf0c      	ite	eq
 8006208:	2301      	moveq	r3, #1
 800620a:	2300      	movne	r3, #0
 800620c:	b2db      	uxtb	r3, r3
 800620e:	461a      	mov	r2, r3
 8006210:	79fb      	ldrb	r3, [r7, #7]
 8006212:	429a      	cmp	r2, r3
 8006214:	d09f      	beq.n	8006156 <UART_WaitOnFlagUntilTimeout+0x12>
 8006216:	2300      	movs	r3, #0
 8006218:	4618      	mov	r0, r3
 800621a:	3740      	adds	r7, #64	; 0x40
 800621c:	46bd      	mov	sp, r7
 800621e:	bd80      	pop	{r7, pc}

08006220 <UART_Start_Receive_IT>:
 8006220:	b480      	push	{r7}
 8006222:	b085      	sub	sp, #20
 8006224:	af00      	add	r7, sp, #0
 8006226:	60f8      	str	r0, [r7, #12]
 8006228:	60b9      	str	r1, [r7, #8]
 800622a:	4613      	mov	r3, r2
 800622c:	80fb      	strh	r3, [r7, #6]
 800622e:	68fb      	ldr	r3, [r7, #12]
 8006230:	68ba      	ldr	r2, [r7, #8]
 8006232:	629a      	str	r2, [r3, #40]	; 0x28
 8006234:	68fb      	ldr	r3, [r7, #12]
 8006236:	88fa      	ldrh	r2, [r7, #6]
 8006238:	859a      	strh	r2, [r3, #44]	; 0x2c
 800623a:	68fb      	ldr	r3, [r7, #12]
 800623c:	88fa      	ldrh	r2, [r7, #6]
 800623e:	85da      	strh	r2, [r3, #46]	; 0x2e
 8006240:	68fb      	ldr	r3, [r7, #12]
 8006242:	2200      	movs	r2, #0
 8006244:	641a      	str	r2, [r3, #64]	; 0x40
 8006246:	68fb      	ldr	r3, [r7, #12]
 8006248:	2222      	movs	r2, #34	; 0x22
 800624a:	f883 203e 	strb.w	r2, [r3, #62]	; 0x3e
 800624e:	68fb      	ldr	r3, [r7, #12]
 8006250:	2200      	movs	r2, #0
 8006252:	f883 203c 	strb.w	r2, [r3, #60]	; 0x3c
 8006256:	68fb      	ldr	r3, [r7, #12]
 8006258:	681b      	ldr	r3, [r3, #0]
 800625a:	68da      	ldr	r2, [r3, #12]
 800625c:	68fb      	ldr	r3, [r7, #12]
 800625e:	681b      	ldr	r3, [r3, #0]
 8006260:	f442 7280 	orr.w	r2, r2, #256	; 0x100
 8006264:	60da      	str	r2, [r3, #12]
 8006266:	68fb      	ldr	r3, [r7, #12]
 8006268:	681b      	ldr	r3, [r3, #0]
 800626a:	695a      	ldr	r2, [r3, #20]
 800626c:	68fb      	ldr	r3, [r7, #12]
 800626e:	681b      	ldr	r3, [r3, #0]
 8006270:	f042 0201 	orr.w	r2, r2, #1
 8006274:	615a      	str	r2, [r3, #20]
 8006276:	68fb      	ldr	r3, [r7, #12]
 8006278:	681b      	ldr	r3, [r3, #0]
 800627a:	68da      	ldr	r2, [r3, #12]
 800627c:	68fb      	ldr	r3, [r7, #12]
 800627e:	681b      	ldr	r3, [r3, #0]
 8006280:	f042 0220 	orr.w	r2, r2, #32
 8006284:	60da      	str	r2, [r3, #12]
 8006286:	2300      	movs	r3, #0
 8006288:	4618      	mov	r0, r3
 800628a:	3714      	adds	r7, #20
 800628c:	46bd      	mov	sp, r7
 800628e:	f85d 7b04 	ldr.w	r7, [sp], #4
 8006292:	4770      	bx	lr

08006294 <UART_EndRxTransfer>:
 8006294:	b480      	push	{r7}
 8006296:	b095      	sub	sp, #84	; 0x54
 8006298:	af00      	add	r7, sp, #0
 800629a:	6078      	str	r0, [r7, #4]
 800629c:	687b      	ldr	r3, [r7, #4]
 800629e:	681b      	ldr	r3, [r3, #0]
 80062a0:	330c      	adds	r3, #12
 80062a2:	637b      	str	r3, [r7, #52]	; 0x34
 80062a4:	6b7b      	ldr	r3, [r7, #52]	; 0x34
 80062a6:	e853 3f00 	ldrex	r3, [r3]
 80062aa:	633b      	str	r3, [r7, #48]	; 0x30
 80062ac:	6b3b      	ldr	r3, [r7, #48]	; 0x30
 80062ae:	f423 7390 	bic.w	r3, r3, #288	; 0x120
 80062b2:	64fb      	str	r3, [r7, #76]	; 0x4c
 80062b4:	687b      	ldr	r3, [r7, #4]
 80062b6:	681b      	ldr	r3, [r3, #0]
 80062b8:	330c      	adds	r3, #12
 80062ba:	6cfa      	ldr	r2, [r7, #76]	; 0x4c
 80062bc:	643a      	str	r2, [r7, #64]	; 0x40
 80062be:	63fb      	str	r3, [r7, #60]	; 0x3c
 80062c0:	6bf9      	ldr	r1, [r7, #60]	; 0x3c
 80062c2:	6c3a      	ldr	r2, [r7, #64]	; 0x40
 80062c4:	e841 2300 	strex	r3, r2, [r1]
 80062c8:	63bb      	str	r3, [r7, #56]	; 0x38
 80062ca:	6bbb      	ldr	r3, [r7, #56]	; 0x38
 80062cc:	2b00      	cmp	r3, #0
 80062ce:	d1e5      	bne.n	800629c <UART_EndRxTransfer+0x8>
 80062d0:	687b      	ldr	r3, [r7, #4]
 80062d2:	681b      	ldr	r3, [r3, #0]
 80062d4:	3314      	adds	r3, #20
 80062d6:	623b      	str	r3, [r7, #32]
 80062d8:	6a3b      	ldr	r3, [r7, #32]
 80062da:	e853 3f00 	ldrex	r3, [r3]
 80062de:	61fb      	str	r3, [r7, #28]
 80062e0:	69fb      	ldr	r3, [r7, #28]
 80062e2:	f023 0301 	bic.w	r3, r3, #1
 80062e6:	64bb      	str	r3, [r7, #72]	; 0x48
 80062e8:	687b      	ldr	r3, [r7, #4]
 80062ea:	681b      	ldr	r3, [r3, #0]
 80062ec:	3314      	adds	r3, #20
 80062ee:	6cba      	ldr	r2, [r7, #72]	; 0x48
 80062f0:	62fa      	str	r2, [r7, #44]	; 0x2c
 80062f2:	62bb      	str	r3, [r7, #40]	; 0x28
 80062f4:	6ab9      	ldr	r1, [r7, #40]	; 0x28
 80062f6:	6afa      	ldr	r2, [r7, #44]	; 0x2c
 80062f8:	e841 2300 	strex	r3, r2, [r1]
 80062fc:	627b      	str	r3, [r7, #36]	; 0x24
 80062fe:	6a7b      	ldr	r3, [r7, #36]	; 0x24
 8006300:	2b00      	cmp	r3, #0
 8006302:	d1e5      	bne.n	80062d0 <UART_EndRxTransfer+0x3c>
 8006304:	687b      	ldr	r3, [r7, #4]
 8006306:	6b1b      	ldr	r3, [r3, #48]	; 0x30
 8006308:	2b01      	cmp	r3, #1
 800630a:	d119      	bne.n	8006340 <UART_EndRxTransfer+0xac>
 800630c:	687b      	ldr	r3, [r7, #4]
 800630e:	681b      	ldr	r3, [r3, #0]
 8006310:	330c      	adds	r3, #12
 8006312:	60fb      	str	r3, [r7, #12]
 8006314:	68fb      	ldr	r3, [r7, #12]
 8006316:	e853 3f00 	ldrex	r3, [r3]
 800631a:	60bb      	str	r3, [r7, #8]
 800631c:	68bb      	ldr	r3, [r7, #8]
 800631e:	f023 0310 	bic.w	r3, r3, #16
 8006322:	647b      	str	r3, [r7, #68]	; 0x44
 8006324:	687b      	ldr	r3, [r7, #4]
 8006326:	681b      	ldr	r3, [r3, #0]
 8006328:	330c      	adds	r3, #12
 800632a:	6c7a      	ldr	r2, [r7, #68]	; 0x44
 800632c:	61ba      	str	r2, [r7, #24]
 800632e:	617b      	str	r3, [r7, #20]
 8006330:	6979      	ldr	r1, [r7, #20]
 8006332:	69ba      	ldr	r2, [r7, #24]
 8006334:	e841 2300 	strex	r3, r2, [r1]
 8006338:	613b      	str	r3, [r7, #16]
 800633a:	693b      	ldr	r3, [r7, #16]
 800633c:	2b00      	cmp	r3, #0
 800633e:	d1e5      	bne.n	800630c <UART_EndRxTransfer+0x78>
 8006340:	687b      	ldr	r3, [r7, #4]
 8006342:	2220      	movs	r2, #32
 8006344:	f883 203e 	strb.w	r2, [r3, #62]	; 0x3e
 8006348:	687b      	ldr	r3, [r7, #4]
 800634a:	2200      	movs	r2, #0
 800634c:	631a      	str	r2, [r3, #48]	; 0x30
 800634e:	bf00      	nop
 8006350:	3754      	adds	r7, #84	; 0x54
 8006352:	46bd      	mov	sp, r7
 8006354:	f85d 7b04 	ldr.w	r7, [sp], #4
 8006358:	4770      	bx	lr

0800635a <UART_DMAAbortOnError>:
 800635a:	b580      	push	{r7, lr}
 800635c:	b084      	sub	sp, #16
 800635e:	af00      	add	r7, sp, #0
 8006360:	6078      	str	r0, [r7, #4]
 8006362:	687b      	ldr	r3, [r7, #4]
 8006364:	6b9b      	ldr	r3, [r3, #56]	; 0x38
 8006366:	60fb      	str	r3, [r7, #12]
 8006368:	68fb      	ldr	r3, [r7, #12]
 800636a:	2200      	movs	r2, #0
 800636c:	85da      	strh	r2, [r3, #46]	; 0x2e
 800636e:	68fb      	ldr	r3, [r7, #12]
 8006370:	2200      	movs	r2, #0
 8006372:	84da      	strh	r2, [r3, #38]	; 0x26
 8006374:	68f8      	ldr	r0, [r7, #12]
 8006376:	f7ff fecf 	bl	8006118 <HAL_UART_ErrorCallback>
 800637a:	bf00      	nop
 800637c:	3710      	adds	r7, #16
 800637e:	46bd      	mov	sp, r7
 8006380:	bd80      	pop	{r7, pc}

08006382 <UART_Transmit_IT>:
 8006382:	b480      	push	{r7}
 8006384:	b085      	sub	sp, #20
 8006386:	af00      	add	r7, sp, #0
 8006388:	6078      	str	r0, [r7, #4]
 800638a:	687b      	ldr	r3, [r7, #4]
 800638c:	f893 303d 	ldrb.w	r3, [r3, #61]	; 0x3d
 8006390:	b2db      	uxtb	r3, r3
 8006392:	2b21      	cmp	r3, #33	; 0x21
 8006394:	d13e      	bne.n	8006414 <UART_Transmit_IT+0x92>
 8006396:	687b      	ldr	r3, [r7, #4]
 8006398:	689b      	ldr	r3, [r3, #8]
 800639a:	f5b3 5f80 	cmp.w	r3, #4096	; 0x1000
 800639e:	d114      	bne.n	80063ca <UART_Transmit_IT+0x48>
 80063a0:	687b      	ldr	r3, [r7, #4]
 80063a2:	691b      	ldr	r3, [r3, #16]
 80063a4:	2b00      	cmp	r3, #0
 80063a6:	d110      	bne.n	80063ca <UART_Transmit_IT+0x48>
 80063a8:	687b      	ldr	r3, [r7, #4]
 80063aa:	6a1b      	ldr	r3, [r3, #32]
 80063ac:	60fb      	str	r3, [r7, #12]
 80063ae:	68fb      	ldr	r3, [r7, #12]
 80063b0:	881b      	ldrh	r3, [r3, #0]
 80063b2:	461a      	mov	r2, r3
 80063b4:	687b      	ldr	r3, [r7, #4]
 80063b6:	681b      	ldr	r3, [r3, #0]
 80063b8:	f3c2 0208 	ubfx	r2, r2, #0, #9
 80063bc:	605a      	str	r2, [r3, #4]
 80063be:	687b      	ldr	r3, [r7, #4]
 80063c0:	6a1b      	ldr	r3, [r3, #32]
 80063c2:	1c9a      	adds	r2, r3, #2
 80063c4:	687b      	ldr	r3, [r7, #4]
 80063c6:	621a      	str	r2, [r3, #32]
 80063c8:	e008      	b.n	80063dc <UART_Transmit_IT+0x5a>
 80063ca:	687b      	ldr	r3, [r7, #4]
 80063cc:	6a1b      	ldr	r3, [r3, #32]
 80063ce:	1c59      	adds	r1, r3, #1
 80063d0:	687a      	ldr	r2, [r7, #4]
 80063d2:	6211      	str	r1, [r2, #32]
 80063d4:	781a      	ldrb	r2, [r3, #0]
 80063d6:	687b      	ldr	r3, [r7, #4]
 80063d8:	681b      	ldr	r3, [r3, #0]
 80063da:	605a      	str	r2, [r3, #4]
 80063dc:	687b      	ldr	r3, [r7, #4]
 80063de:	8cdb      	ldrh	r3, [r3, #38]	; 0x26
 80063e0:	b29b      	uxth	r3, r3
 80063e2:	3b01      	subs	r3, #1
 80063e4:	b29b      	uxth	r3, r3
 80063e6:	687a      	ldr	r2, [r7, #4]
 80063e8:	4619      	mov	r1, r3
 80063ea:	84d1      	strh	r1, [r2, #38]	; 0x26
 80063ec:	2b00      	cmp	r3, #0
 80063ee:	d10f      	bne.n	8006410 <UART_Transmit_IT+0x8e>
 80063f0:	687b      	ldr	r3, [r7, #4]
 80063f2:	681b      	ldr	r3, [r3, #0]
 80063f4:	68da      	ldr	r2, [r3, #12]
 80063f6:	687b      	ldr	r3, [r7, #4]
 80063f8:	681b      	ldr	r3, [r3, #0]
 80063fa:	f022 0280 	bic.w	r2, r2, #128	; 0x80
 80063fe:	60da      	str	r2, [r3, #12]
 8006400:	687b      	ldr	r3, [r7, #4]
 8006402:	681b      	ldr	r3, [r3, #0]
 8006404:	68da      	ldr	r2, [r3, #12]
 8006406:	687b      	ldr	r3, [r7, #4]
 8006408:	681b      	ldr	r3, [r3, #0]
 800640a:	f042 0240 	orr.w	r2, r2, #64	; 0x40
 800640e:	60da      	str	r2, [r3, #12]
 8006410:	2300      	movs	r3, #0
 8006412:	e000      	b.n	8006416 <UART_Transmit_IT+0x94>
 8006414:	2302      	movs	r3, #2
 8006416:	4618      	mov	r0, r3
 8006418:	3714      	adds	r7, #20
 800641a:	46bd      	mov	sp, r7
 800641c:	f85d 7b04 	ldr.w	r7, [sp], #4
 8006420:	4770      	bx	lr

08006422 <UART_EndTransmit_IT>:
 8006422:	b580      	push	{r7, lr}
 8006424:	b082      	sub	sp, #8
 8006426:	af00      	add	r7, sp, #0
 8006428:	6078      	str	r0, [r7, #4]
 800642a:	687b      	ldr	r3, [r7, #4]
 800642c:	681b      	ldr	r3, [r3, #0]
 800642e:	68da      	ldr	r2, [r3, #12]
 8006430:	687b      	ldr	r3, [r7, #4]
 8006432:	681b      	ldr	r3, [r3, #0]
 8006434:	f022 0240 	bic.w	r2, r2, #64	; 0x40
 8006438:	60da      	str	r2, [r3, #12]
 800643a:	687b      	ldr	r3, [r7, #4]
 800643c:	2220      	movs	r2, #32
 800643e:	f883 203d 	strb.w	r2, [r3, #61]	; 0x3d
 8006442:	6878      	ldr	r0, [r7, #4]
 8006444:	f7ff fe5e 	bl	8006104 <HAL_UART_TxCpltCallback>
 8006448:	2300      	movs	r3, #0
 800644a:	4618      	mov	r0, r3
 800644c:	3708      	adds	r7, #8
 800644e:	46bd      	mov	sp, r7
 8006450:	bd80      	pop	{r7, pc}

08006452 <UART_Receive_IT>:
 8006452:	b580      	push	{r7, lr}
 8006454:	b08c      	sub	sp, #48	; 0x30
 8006456:	af00      	add	r7, sp, #0
 8006458:	6078      	str	r0, [r7, #4]
 800645a:	687b      	ldr	r3, [r7, #4]
 800645c:	f893 303e 	ldrb.w	r3, [r3, #62]	; 0x3e
 8006460:	b2db      	uxtb	r3, r3
 8006462:	2b22      	cmp	r3, #34	; 0x22
 8006464:	f040 80ab 	bne.w	80065be <UART_Receive_IT+0x16c>
 8006468:	687b      	ldr	r3, [r7, #4]
 800646a:	689b      	ldr	r3, [r3, #8]
 800646c:	f5b3 5f80 	cmp.w	r3, #4096	; 0x1000
 8006470:	d117      	bne.n	80064a2 <UART_Receive_IT+0x50>
 8006472:	687b      	ldr	r3, [r7, #4]
 8006474:	691b      	ldr	r3, [r3, #16]
 8006476:	2b00      	cmp	r3, #0
 8006478:	d113      	bne.n	80064a2 <UART_Receive_IT+0x50>
 800647a:	2300      	movs	r3, #0
 800647c:	62fb      	str	r3, [r7, #44]	; 0x2c
 800647e:	687b      	ldr	r3, [r7, #4]
 8006480:	6a9b      	ldr	r3, [r3, #40]	; 0x28
 8006482:	62bb      	str	r3, [r7, #40]	; 0x28
 8006484:	687b      	ldr	r3, [r7, #4]
 8006486:	681b      	ldr	r3, [r3, #0]
 8006488:	685b      	ldr	r3, [r3, #4]
 800648a:	b29b      	uxth	r3, r3
 800648c:	f3c3 0308 	ubfx	r3, r3, #0, #9
 8006490:	b29a      	uxth	r2, r3
 8006492:	6abb      	ldr	r3, [r7, #40]	; 0x28
 8006494:	801a      	strh	r2, [r3, #0]
 8006496:	687b      	ldr	r3, [r7, #4]
 8006498:	6a9b      	ldr	r3, [r3, #40]	; 0x28
 800649a:	1c9a      	adds	r2, r3, #2
 800649c:	687b      	ldr	r3, [r7, #4]
 800649e:	629a      	str	r2, [r3, #40]	; 0x28
 80064a0:	e026      	b.n	80064f0 <UART_Receive_IT+0x9e>
 80064a2:	687b      	ldr	r3, [r7, #4]
 80064a4:	6a9b      	ldr	r3, [r3, #40]	; 0x28
 80064a6:	62fb      	str	r3, [r7, #44]	; 0x2c
 80064a8:	2300      	movs	r3, #0
 80064aa:	62bb      	str	r3, [r7, #40]	; 0x28
 80064ac:	687b      	ldr	r3, [r7, #4]
 80064ae:	689b      	ldr	r3, [r3, #8]
 80064b0:	f5b3 5f80 	cmp.w	r3, #4096	; 0x1000
 80064b4:	d007      	beq.n	80064c6 <UART_Receive_IT+0x74>
 80064b6:	687b      	ldr	r3, [r7, #4]
 80064b8:	689b      	ldr	r3, [r3, #8]
 80064ba:	2b00      	cmp	r3, #0
 80064bc:	d10a      	bne.n	80064d4 <UART_Receive_IT+0x82>
 80064be:	687b      	ldr	r3, [r7, #4]
 80064c0:	691b      	ldr	r3, [r3, #16]
 80064c2:	2b00      	cmp	r3, #0
 80064c4:	d106      	bne.n	80064d4 <UART_Receive_IT+0x82>
 80064c6:	687b      	ldr	r3, [r7, #4]
 80064c8:	681b      	ldr	r3, [r3, #0]
 80064ca:	685b      	ldr	r3, [r3, #4]
 80064cc:	b2da      	uxtb	r2, r3
 80064ce:	6afb      	ldr	r3, [r7, #44]	; 0x2c
 80064d0:	701a      	strb	r2, [r3, #0]
 80064d2:	e008      	b.n	80064e6 <UART_Receive_IT+0x94>
 80064d4:	687b      	ldr	r3, [r7, #4]
 80064d6:	681b      	ldr	r3, [r3, #0]
 80064d8:	685b      	ldr	r3, [r3, #4]
 80064da:	b2db      	uxtb	r3, r3
 80064dc:	f003 037f 	and.w	r3, r3, #127	; 0x7f
 80064e0:	b2da      	uxtb	r2, r3
 80064e2:	6afb      	ldr	r3, [r7, #44]	; 0x2c
 80064e4:	701a      	strb	r2, [r3, #0]
 80064e6:	687b      	ldr	r3, [r7, #4]
 80064e8:	6a9b      	ldr	r3, [r3, #40]	; 0x28
 80064ea:	1c5a      	adds	r2, r3, #1
 80064ec:	687b      	ldr	r3, [r7, #4]
 80064ee:	629a      	str	r2, [r3, #40]	; 0x28
 80064f0:	687b      	ldr	r3, [r7, #4]
 80064f2:	8ddb      	ldrh	r3, [r3, #46]	; 0x2e
 80064f4:	b29b      	uxth	r3, r3
 80064f6:	3b01      	subs	r3, #1
 80064f8:	b29b      	uxth	r3, r3
 80064fa:	687a      	ldr	r2, [r7, #4]
 80064fc:	4619      	mov	r1, r3
 80064fe:	85d1      	strh	r1, [r2, #46]	; 0x2e
 8006500:	2b00      	cmp	r3, #0
 8006502:	d15a      	bne.n	80065ba <UART_Receive_IT+0x168>
 8006504:	687b      	ldr	r3, [r7, #4]
 8006506:	681b      	ldr	r3, [r3, #0]
 8006508:	68da      	ldr	r2, [r3, #12]
 800650a:	687b      	ldr	r3, [r7, #4]
 800650c:	681b      	ldr	r3, [r3, #0]
 800650e:	f022 0220 	bic.w	r2, r2, #32
 8006512:	60da      	str	r2, [r3, #12]
 8006514:	687b      	ldr	r3, [r7, #4]
 8006516:	681b      	ldr	r3, [r3, #0]
 8006518:	68da      	ldr	r2, [r3, #12]
 800651a:	687b      	ldr	r3, [r7, #4]
 800651c:	681b      	ldr	r3, [r3, #0]
 800651e:	f422 7280 	bic.w	r2, r2, #256	; 0x100
 8006522:	60da      	str	r2, [r3, #12]
 8006524:	687b      	ldr	r3, [r7, #4]
 8006526:	681b      	ldr	r3, [r3, #0]
 8006528:	695a      	ldr	r2, [r3, #20]
 800652a:	687b      	ldr	r3, [r7, #4]
 800652c:	681b      	ldr	r3, [r3, #0]
 800652e:	f022 0201 	bic.w	r2, r2, #1
 8006532:	615a      	str	r2, [r3, #20]
 8006534:	687b      	ldr	r3, [r7, #4]
 8006536:	2220      	movs	r2, #32
 8006538:	f883 203e 	strb.w	r2, [r3, #62]	; 0x3e
 800653c:	687b      	ldr	r3, [r7, #4]
 800653e:	6b1b      	ldr	r3, [r3, #48]	; 0x30
 8006540:	2b01      	cmp	r3, #1
 8006542:	d135      	bne.n	80065b0 <UART_Receive_IT+0x15e>
 8006544:	687b      	ldr	r3, [r7, #4]
 8006546:	2200      	movs	r2, #0
 8006548:	631a      	str	r2, [r3, #48]	; 0x30
 800654a:	687b      	ldr	r3, [r7, #4]
 800654c:	681b      	ldr	r3, [r3, #0]
 800654e:	330c      	adds	r3, #12
 8006550:	617b      	str	r3, [r7, #20]
 8006552:	697b      	ldr	r3, [r7, #20]
 8006554:	e853 3f00 	ldrex	r3, [r3]
 8006558:	613b      	str	r3, [r7, #16]
 800655a:	693b      	ldr	r3, [r7, #16]
 800655c:	f023 0310 	bic.w	r3, r3, #16
 8006560:	627b      	str	r3, [r7, #36]	; 0x24
 8006562:	687b      	ldr	r3, [r7, #4]
 8006564:	681b      	ldr	r3, [r3, #0]
 8006566:	330c      	adds	r3, #12
 8006568:	6a7a      	ldr	r2, [r7, #36]	; 0x24
 800656a:	623a      	str	r2, [r7, #32]
 800656c:	61fb      	str	r3, [r7, #28]
 800656e:	69f9      	ldr	r1, [r7, #28]
 8006570:	6a3a      	ldr	r2, [r7, #32]
 8006572:	e841 2300 	strex	r3, r2, [r1]
 8006576:	61bb      	str	r3, [r7, #24]
 8006578:	69bb      	ldr	r3, [r7, #24]
 800657a:	2b00      	cmp	r3, #0
 800657c:	d1e5      	bne.n	800654a <UART_Receive_IT+0xf8>
 800657e:	687b      	ldr	r3, [r7, #4]
 8006580:	681b      	ldr	r3, [r3, #0]
 8006582:	681b      	ldr	r3, [r3, #0]
 8006584:	f003 0310 	and.w	r3, r3, #16
 8006588:	2b10      	cmp	r3, #16
 800658a:	d10a      	bne.n	80065a2 <UART_Receive_IT+0x150>
 800658c:	2300      	movs	r3, #0
 800658e:	60fb      	str	r3, [r7, #12]
 8006590:	687b      	ldr	r3, [r7, #4]
 8006592:	681b      	ldr	r3, [r3, #0]
 8006594:	681b      	ldr	r3, [r3, #0]
 8006596:	60fb      	str	r3, [r7, #12]
 8006598:	687b      	ldr	r3, [r7, #4]
 800659a:	681b      	ldr	r3, [r3, #0]
 800659c:	685b      	ldr	r3, [r3, #4]
 800659e:	60fb      	str	r3, [r7, #12]
 80065a0:	68fb      	ldr	r3, [r7, #12]
 80065a2:	687b      	ldr	r3, [r7, #4]
 80065a4:	8d9b      	ldrh	r3, [r3, #44]	; 0x2c
 80065a6:	4619      	mov	r1, r3
 80065a8:	6878      	ldr	r0, [r7, #4]
 80065aa:	f7ff fdbf 	bl	800612c <HAL_UARTEx_RxEventCallback>
 80065ae:	e002      	b.n	80065b6 <UART_Receive_IT+0x164>
 80065b0:	6878      	ldr	r0, [r7, #4]
 80065b2:	f7fa fa83 	bl	8000abc <HAL_UART_RxCpltCallback>
 80065b6:	2300      	movs	r3, #0
 80065b8:	e002      	b.n	80065c0 <UART_Receive_IT+0x16e>
 80065ba:	2300      	movs	r3, #0
 80065bc:	e000      	b.n	80065c0 <UART_Receive_IT+0x16e>
 80065be:	2302      	movs	r3, #2
 80065c0:	4618      	mov	r0, r3
 80065c2:	3730      	adds	r7, #48	; 0x30
 80065c4:	46bd      	mov	sp, r7
 80065c6:	bd80      	pop	{r7, pc}

080065c8 <UART_SetConfig>:
 80065c8:	e92d 4ff0 	stmdb	sp!, {r4, r5, r6, r7, r8, r9, sl, fp, lr}
 80065cc:	b09f      	sub	sp, #124	; 0x7c
 80065ce:	af00      	add	r7, sp, #0
 80065d0:	66f8      	str	r0, [r7, #108]	; 0x6c
 80065d2:	6efb      	ldr	r3, [r7, #108]	; 0x6c
 80065d4:	681b      	ldr	r3, [r3, #0]
 80065d6:	691b      	ldr	r3, [r3, #16]
 80065d8:	f423 5040 	bic.w	r0, r3, #12288	; 0x3000
 80065dc:	6efb      	ldr	r3, [r7, #108]	; 0x6c
 80065de:	68d9      	ldr	r1, [r3, #12]
 80065e0:	6efb      	ldr	r3, [r7, #108]	; 0x6c
 80065e2:	681a      	ldr	r2, [r3, #0]
 80065e4:	ea40 0301 	orr.w	r3, r0, r1
 80065e8:	6113      	str	r3, [r2, #16]
 80065ea:	6efb      	ldr	r3, [r7, #108]	; 0x6c
 80065ec:	689a      	ldr	r2, [r3, #8]
 80065ee:	6efb      	ldr	r3, [r7, #108]	; 0x6c
 80065f0:	691b      	ldr	r3, [r3, #16]
 80065f2:	431a      	orrs	r2, r3
 80065f4:	6efb      	ldr	r3, [r7, #108]	; 0x6c
 80065f6:	695b      	ldr	r3, [r3, #20]
 80065f8:	431a      	orrs	r2, r3
 80065fa:	6efb      	ldr	r3, [r7, #108]	; 0x6c
 80065fc:	69db      	ldr	r3, [r3, #28]
 80065fe:	4313      	orrs	r3, r2
 8006600:	673b      	str	r3, [r7, #112]	; 0x70
 8006602:	6efb      	ldr	r3, [r7, #108]	; 0x6c
 8006604:	681b      	ldr	r3, [r3, #0]
 8006606:	68db      	ldr	r3, [r3, #12]
 8006608:	f423 4116 	bic.w	r1, r3, #38400	; 0x9600
 800660c:	f021 010c 	bic.w	r1, r1, #12
 8006610:	6efb      	ldr	r3, [r7, #108]	; 0x6c
 8006612:	681a      	ldr	r2, [r3, #0]
 8006614:	6f3b      	ldr	r3, [r7, #112]	; 0x70
 8006616:	430b      	orrs	r3, r1
 8006618:	60d3      	str	r3, [r2, #12]
 800661a:	6efb      	ldr	r3, [r7, #108]	; 0x6c
 800661c:	681b      	ldr	r3, [r3, #0]
 800661e:	695b      	ldr	r3, [r3, #20]
 8006620:	f423 7040 	bic.w	r0, r3, #768	; 0x300
 8006624:	6efb      	ldr	r3, [r7, #108]	; 0x6c
 8006626:	6999      	ldr	r1, [r3, #24]
 8006628:	6efb      	ldr	r3, [r7, #108]	; 0x6c
 800662a:	681a      	ldr	r2, [r3, #0]
 800662c:	ea40 0301 	orr.w	r3, r0, r1
 8006630:	6153      	str	r3, [r2, #20]
 8006632:	6efb      	ldr	r3, [r7, #108]	; 0x6c
 8006634:	681a      	ldr	r2, [r3, #0]
 8006636:	4bc5      	ldr	r3, [pc, #788]	; (800694c <UART_SetConfig+0x384>)
 8006638:	429a      	cmp	r2, r3
 800663a:	d004      	beq.n	8006646 <UART_SetConfig+0x7e>
 800663c:	6efb      	ldr	r3, [r7, #108]	; 0x6c
 800663e:	681a      	ldr	r2, [r3, #0]
 8006640:	4bc3      	ldr	r3, [pc, #780]	; (8006950 <UART_SetConfig+0x388>)
 8006642:	429a      	cmp	r2, r3
 8006644:	d103      	bne.n	800664e <UART_SetConfig+0x86>
 8006646:	f7fe fe29 	bl	800529c <HAL_RCC_GetPCLK2Freq>
 800664a:	6778      	str	r0, [r7, #116]	; 0x74
 800664c:	e002      	b.n	8006654 <UART_SetConfig+0x8c>
 800664e:	f7fe fe11 	bl	8005274 <HAL_RCC_GetPCLK1Freq>
 8006652:	6778      	str	r0, [r7, #116]	; 0x74
 8006654:	6efb      	ldr	r3, [r7, #108]	; 0x6c
 8006656:	69db      	ldr	r3, [r3, #28]
 8006658:	f5b3 4f00 	cmp.w	r3, #32768	; 0x8000
 800665c:	f040 80b6 	bne.w	80067cc <UART_SetConfig+0x204>
 8006660:	6f7b      	ldr	r3, [r7, #116]	; 0x74
 8006662:	461c      	mov	r4, r3
 8006664:	f04f 0500 	mov.w	r5, #0
 8006668:	4622      	mov	r2, r4
 800666a:	462b      	mov	r3, r5
 800666c:	1891      	adds	r1, r2, r2
 800666e:	6439      	str	r1, [r7, #64]	; 0x40
 8006670:	415b      	adcs	r3, r3
 8006672:	647b      	str	r3, [r7, #68]	; 0x44
 8006674:	e9d7 2310 	ldrd	r2, r3, [r7, #64]	; 0x40
 8006678:	1912      	adds	r2, r2, r4
 800667a:	eb45 0303 	adc.w	r3, r5, r3
 800667e:	f04f 0000 	mov.w	r0, #0
 8006682:	f04f 0100 	mov.w	r1, #0
 8006686:	00d9      	lsls	r1, r3, #3
 8006688:	ea41 7152 	orr.w	r1, r1, r2, lsr #29
 800668c:	00d0      	lsls	r0, r2, #3
 800668e:	4602      	mov	r2, r0
 8006690:	460b      	mov	r3, r1
 8006692:	1911      	adds	r1, r2, r4
 8006694:	6639      	str	r1, [r7, #96]	; 0x60
 8006696:	416b      	adcs	r3, r5
 8006698:	667b      	str	r3, [r7, #100]	; 0x64
 800669a:	6efb      	ldr	r3, [r7, #108]	; 0x6c
 800669c:	685b      	ldr	r3, [r3, #4]
 800669e:	461a      	mov	r2, r3
 80066a0:	f04f 0300 	mov.w	r3, #0
 80066a4:	1891      	adds	r1, r2, r2
 80066a6:	63b9      	str	r1, [r7, #56]	; 0x38
 80066a8:	415b      	adcs	r3, r3
 80066aa:	63fb      	str	r3, [r7, #60]	; 0x3c
 80066ac:	e9d7 230e 	ldrd	r2, r3, [r7, #56]	; 0x38
 80066b0:	e9d7 0118 	ldrd	r0, r1, [r7, #96]	; 0x60
 80066b4:	f7f9 fd8c 	bl	80001d0 <__aeabi_uldivmod>
 80066b8:	4602      	mov	r2, r0
 80066ba:	460b      	mov	r3, r1
 80066bc:	4ba5      	ldr	r3, [pc, #660]	; (8006954 <UART_SetConfig+0x38c>)
 80066be:	fba3 2302 	umull	r2, r3, r3, r2
 80066c2:	095b      	lsrs	r3, r3, #5
 80066c4:	011e      	lsls	r6, r3, #4
 80066c6:	6f7b      	ldr	r3, [r7, #116]	; 0x74
 80066c8:	461c      	mov	r4, r3
 80066ca:	f04f 0500 	mov.w	r5, #0
 80066ce:	4622      	mov	r2, r4
 80066d0:	462b      	mov	r3, r5
 80066d2:	1891      	adds	r1, r2, r2
 80066d4:	6339      	str	r1, [r7, #48]	; 0x30
 80066d6:	415b      	adcs	r3, r3
 80066d8:	637b      	str	r3, [r7, #52]	; 0x34
 80066da:	e9d7 230c 	ldrd	r2, r3, [r7, #48]	; 0x30
 80066de:	1912      	adds	r2, r2, r4
 80066e0:	eb45 0303 	adc.w	r3, r5, r3
 80066e4:	f04f 0000 	mov.w	r0, #0
 80066e8:	f04f 0100 	mov.w	r1, #0
 80066ec:	00d9      	lsls	r1, r3, #3
 80066ee:	ea41 7152 	orr.w	r1, r1, r2, lsr #29
 80066f2:	00d0      	lsls	r0, r2, #3
 80066f4:	4602      	mov	r2, r0
 80066f6:	460b      	mov	r3, r1
 80066f8:	1911      	adds	r1, r2, r4
 80066fa:	65b9      	str	r1, [r7, #88]	; 0x58
 80066fc:	416b      	adcs	r3, r5
 80066fe:	65fb      	str	r3, [r7, #92]	; 0x5c
 8006700:	6efb      	ldr	r3, [r7, #108]	; 0x6c
 8006702:	685b      	ldr	r3, [r3, #4]
 8006704:	461a      	mov	r2, r3
 8006706:	f04f 0300 	mov.w	r3, #0
 800670a:	1891      	adds	r1, r2, r2
 800670c:	62b9      	str	r1, [r7, #40]	; 0x28
 800670e:	415b      	adcs	r3, r3
 8006710:	62fb      	str	r3, [r7, #44]	; 0x2c
 8006712:	e9d7 230a 	ldrd	r2, r3, [r7, #40]	; 0x28
 8006716:	e9d7 0116 	ldrd	r0, r1, [r7, #88]	; 0x58
 800671a:	f7f9 fd59 	bl	80001d0 <__aeabi_uldivmod>
 800671e:	4602      	mov	r2, r0
 8006720:	460b      	mov	r3, r1
 8006722:	4b8c      	ldr	r3, [pc, #560]	; (8006954 <UART_SetConfig+0x38c>)
 8006724:	fba3 1302 	umull	r1, r3, r3, r2
 8006728:	095b      	lsrs	r3, r3, #5
 800672a:	2164      	movs	r1, #100	; 0x64
 800672c:	fb01 f303 	mul.w	r3, r1, r3
 8006730:	1ad3      	subs	r3, r2, r3
 8006732:	00db      	lsls	r3, r3, #3
 8006734:	3332      	adds	r3, #50	; 0x32
 8006736:	4a87      	ldr	r2, [pc, #540]	; (8006954 <UART_SetConfig+0x38c>)
 8006738:	fba2 2303 	umull	r2, r3, r2, r3
 800673c:	095b      	lsrs	r3, r3, #5
 800673e:	005b      	lsls	r3, r3, #1
 8006740:	f403 73f8 	and.w	r3, r3, #496	; 0x1f0
 8006744:	441e      	add	r6, r3
 8006746:	6f7b      	ldr	r3, [r7, #116]	; 0x74
 8006748:	4618      	mov	r0, r3
 800674a:	f04f 0100 	mov.w	r1, #0
 800674e:	4602      	mov	r2, r0
 8006750:	460b      	mov	r3, r1
 8006752:	1894      	adds	r4, r2, r2
 8006754:	623c      	str	r4, [r7, #32]
 8006756:	415b      	adcs	r3, r3
 8006758:	627b      	str	r3, [r7, #36]	; 0x24
 800675a:	e9d7 2308 	ldrd	r2, r3, [r7, #32]
 800675e:	1812      	adds	r2, r2, r0
 8006760:	eb41 0303 	adc.w	r3, r1, r3
 8006764:	f04f 0400 	mov.w	r4, #0
 8006768:	f04f 0500 	mov.w	r5, #0
 800676c:	00dd      	lsls	r5, r3, #3
 800676e:	ea45 7552 	orr.w	r5, r5, r2, lsr #29
 8006772:	00d4      	lsls	r4, r2, #3
 8006774:	4622      	mov	r2, r4
 8006776:	462b      	mov	r3, r5
 8006778:	1814      	adds	r4, r2, r0
 800677a:	653c      	str	r4, [r7, #80]	; 0x50
 800677c:	414b      	adcs	r3, r1
 800677e:	657b      	str	r3, [r7, #84]	; 0x54
 8006780:	6efb      	ldr	r3, [r7, #108]	; 0x6c
 8006782:	685b      	ldr	r3, [r3, #4]
 8006784:	461a      	mov	r2, r3
 8006786:	f04f 0300 	mov.w	r3, #0
 800678a:	1891      	adds	r1, r2, r2
 800678c:	61b9      	str	r1, [r7, #24]
 800678e:	415b      	adcs	r3, r3
 8006790:	61fb      	str	r3, [r7, #28]
 8006792:	e9d7 2306 	ldrd	r2, r3, [r7, #24]
 8006796:	e9d7 0114 	ldrd	r0, r1, [r7, #80]	; 0x50
 800679a:	f7f9 fd19 	bl	80001d0 <__aeabi_uldivmod>
 800679e:	4602      	mov	r2, r0
 80067a0:	460b      	mov	r3, r1
 80067a2:	4b6c      	ldr	r3, [pc, #432]	; (8006954 <UART_SetConfig+0x38c>)
 80067a4:	fba3 1302 	umull	r1, r3, r3, r2
 80067a8:	095b      	lsrs	r3, r3, #5
 80067aa:	2164      	movs	r1, #100	; 0x64
 80067ac:	fb01 f303 	mul.w	r3, r1, r3
 80067b0:	1ad3      	subs	r3, r2, r3
 80067b2:	00db      	lsls	r3, r3, #3
 80067b4:	3332      	adds	r3, #50	; 0x32
 80067b6:	4a67      	ldr	r2, [pc, #412]	; (8006954 <UART_SetConfig+0x38c>)
 80067b8:	fba2 2303 	umull	r2, r3, r2, r3
 80067bc:	095b      	lsrs	r3, r3, #5
 80067be:	f003 0207 	and.w	r2, r3, #7
 80067c2:	6efb      	ldr	r3, [r7, #108]	; 0x6c
 80067c4:	681b      	ldr	r3, [r3, #0]
 80067c6:	4432      	add	r2, r6
 80067c8:	609a      	str	r2, [r3, #8]
 80067ca:	e0b9      	b.n	8006940 <UART_SetConfig+0x378>
 80067cc:	6f7b      	ldr	r3, [r7, #116]	; 0x74
 80067ce:	461c      	mov	r4, r3
 80067d0:	f04f 0500 	mov.w	r5, #0
 80067d4:	4622      	mov	r2, r4
 80067d6:	462b      	mov	r3, r5
 80067d8:	1891      	adds	r1, r2, r2
 80067da:	6139      	str	r1, [r7, #16]
 80067dc:	415b      	adcs	r3, r3
 80067de:	617b      	str	r3, [r7, #20]
 80067e0:	e9d7 2304 	ldrd	r2, r3, [r7, #16]
 80067e4:	1912      	adds	r2, r2, r4
 80067e6:	eb45 0303 	adc.w	r3, r5, r3
 80067ea:	f04f 0000 	mov.w	r0, #0
 80067ee:	f04f 0100 	mov.w	r1, #0
 80067f2:	00d9      	lsls	r1, r3, #3
 80067f4:	ea41 7152 	orr.w	r1, r1, r2, lsr #29
 80067f8:	00d0      	lsls	r0, r2, #3
 80067fa:	4602      	mov	r2, r0
 80067fc:	460b      	mov	r3, r1
 80067fe:	eb12 0804 	adds.w	r8, r2, r4
 8006802:	eb43 0905 	adc.w	r9, r3, r5
 8006806:	6efb      	ldr	r3, [r7, #108]	; 0x6c
 8006808:	685b      	ldr	r3, [r3, #4]
 800680a:	4618      	mov	r0, r3
 800680c:	f04f 0100 	mov.w	r1, #0
 8006810:	f04f 0200 	mov.w	r2, #0
 8006814:	f04f 0300 	mov.w	r3, #0
 8006818:	008b      	lsls	r3, r1, #2
 800681a:	ea43 7390 	orr.w	r3, r3, r0, lsr #30
 800681e:	0082      	lsls	r2, r0, #2
 8006820:	4640      	mov	r0, r8
 8006822:	4649      	mov	r1, r9
 8006824:	f7f9 fcd4 	bl	80001d0 <__aeabi_uldivmod>
 8006828:	4602      	mov	r2, r0
 800682a:	460b      	mov	r3, r1
 800682c:	4b49      	ldr	r3, [pc, #292]	; (8006954 <UART_SetConfig+0x38c>)
 800682e:	fba3 2302 	umull	r2, r3, r3, r2
 8006832:	095b      	lsrs	r3, r3, #5
 8006834:	011e      	lsls	r6, r3, #4
 8006836:	6f7b      	ldr	r3, [r7, #116]	; 0x74
 8006838:	4618      	mov	r0, r3
 800683a:	f04f 0100 	mov.w	r1, #0
 800683e:	4602      	mov	r2, r0
 8006840:	460b      	mov	r3, r1
 8006842:	1894      	adds	r4, r2, r2
 8006844:	60bc      	str	r4, [r7, #8]
 8006846:	415b      	adcs	r3, r3
 8006848:	60fb      	str	r3, [r7, #12]
 800684a:	e9d7 2302 	ldrd	r2, r3, [r7, #8]
 800684e:	1812      	adds	r2, r2, r0
 8006850:	eb41 0303 	adc.w	r3, r1, r3
 8006854:	f04f 0400 	mov.w	r4, #0
 8006858:	f04f 0500 	mov.w	r5, #0
 800685c:	00dd      	lsls	r5, r3, #3
 800685e:	ea45 7552 	orr.w	r5, r5, r2, lsr #29
 8006862:	00d4      	lsls	r4, r2, #3
 8006864:	4622      	mov	r2, r4
 8006866:	462b      	mov	r3, r5
 8006868:	1814      	adds	r4, r2, r0
 800686a:	64bc      	str	r4, [r7, #72]	; 0x48
 800686c:	414b      	adcs	r3, r1
 800686e:	64fb      	str	r3, [r7, #76]	; 0x4c
 8006870:	6efb      	ldr	r3, [r7, #108]	; 0x6c
 8006872:	685b      	ldr	r3, [r3, #4]
 8006874:	4618      	mov	r0, r3
 8006876:	f04f 0100 	mov.w	r1, #0
 800687a:	f04f 0200 	mov.w	r2, #0
 800687e:	f04f 0300 	mov.w	r3, #0
 8006882:	008b      	lsls	r3, r1, #2
 8006884:	ea43 7390 	orr.w	r3, r3, r0, lsr #30
 8006888:	0082      	lsls	r2, r0, #2
 800688a:	e9d7 0112 	ldrd	r0, r1, [r7, #72]	; 0x48
 800688e:	f7f9 fc9f 	bl	80001d0 <__aeabi_uldivmod>
 8006892:	4602      	mov	r2, r0
 8006894:	460b      	mov	r3, r1
 8006896:	4b2f      	ldr	r3, [pc, #188]	; (8006954 <UART_SetConfig+0x38c>)
 8006898:	fba3 1302 	umull	r1, r3, r3, r2
 800689c:	095b      	lsrs	r3, r3, #5
 800689e:	2164      	movs	r1, #100	; 0x64
 80068a0:	fb01 f303 	mul.w	r3, r1, r3
 80068a4:	1ad3      	subs	r3, r2, r3
 80068a6:	011b      	lsls	r3, r3, #4
 80068a8:	3332      	adds	r3, #50	; 0x32
 80068aa:	4a2a      	ldr	r2, [pc, #168]	; (8006954 <UART_SetConfig+0x38c>)
 80068ac:	fba2 2303 	umull	r2, r3, r2, r3
 80068b0:	095b      	lsrs	r3, r3, #5
 80068b2:	f003 03f0 	and.w	r3, r3, #240	; 0xf0
 80068b6:	441e      	add	r6, r3
 80068b8:	6f7b      	ldr	r3, [r7, #116]	; 0x74
 80068ba:	4618      	mov	r0, r3
 80068bc:	f04f 0100 	mov.w	r1, #0
 80068c0:	4602      	mov	r2, r0
 80068c2:	460b      	mov	r3, r1
 80068c4:	1894      	adds	r4, r2, r2
 80068c6:	603c      	str	r4, [r7, #0]
 80068c8:	415b      	adcs	r3, r3
 80068ca:	607b      	str	r3, [r7, #4]
 80068cc:	e9d7 2300 	ldrd	r2, r3, [r7]
 80068d0:	1812      	adds	r2, r2, r0
 80068d2:	eb41 0303 	adc.w	r3, r1, r3
 80068d6:	f04f 0400 	mov.w	r4, #0
 80068da:	f04f 0500 	mov.w	r5, #0
 80068de:	00dd      	lsls	r5, r3, #3
 80068e0:	ea45 7552 	orr.w	r5, r5, r2, lsr #29
 80068e4:	00d4      	lsls	r4, r2, #3
 80068e6:	4622      	mov	r2, r4
 80068e8:	462b      	mov	r3, r5
 80068ea:	eb12 0a00 	adds.w	sl, r2, r0
 80068ee:	eb43 0b01 	adc.w	fp, r3, r1
 80068f2:	6efb      	ldr	r3, [r7, #108]	; 0x6c
 80068f4:	685b      	ldr	r3, [r3, #4]
 80068f6:	4618      	mov	r0, r3
 80068f8:	f04f 0100 	mov.w	r1, #0
 80068fc:	f04f 0200 	mov.w	r2, #0
 8006900:	f04f 0300 	mov.w	r3, #0
 8006904:	008b      	lsls	r3, r1, #2
 8006906:	ea43 7390 	orr.w	r3, r3, r0, lsr #30
 800690a:	0082      	lsls	r2, r0, #2
 800690c:	4650      	mov	r0, sl
 800690e:	4659      	mov	r1, fp
 8006910:	f7f9 fc5e 	bl	80001d0 <__aeabi_uldivmod>
 8006914:	4602      	mov	r2, r0
 8006916:	460b      	mov	r3, r1
 8006918:	4b0e      	ldr	r3, [pc, #56]	; (8006954 <UART_SetConfig+0x38c>)
 800691a:	fba3 1302 	umull	r1, r3, r3, r2
 800691e:	095b      	lsrs	r3, r3, #5
 8006920:	2164      	movs	r1, #100	; 0x64
 8006922:	fb01 f303 	mul.w	r3, r1, r3
 8006926:	1ad3      	subs	r3, r2, r3
 8006928:	011b      	lsls	r3, r3, #4
 800692a:	3332      	adds	r3, #50	; 0x32
 800692c:	4a09      	ldr	r2, [pc, #36]	; (8006954 <UART_SetConfig+0x38c>)
 800692e:	fba2 2303 	umull	r2, r3, r2, r3
 8006932:	095b      	lsrs	r3, r3, #5
 8006934:	f003 020f 	and.w	r2, r3, #15
 8006938:	6efb      	ldr	r3, [r7, #108]	; 0x6c
 800693a:	681b      	ldr	r3, [r3, #0]
 800693c:	4432      	add	r2, r6
 800693e:	609a      	str	r2, [r3, #8]
 8006940:	bf00      	nop
 8006942:	377c      	adds	r7, #124	; 0x7c
 8006944:	46bd      	mov	sp, r7
 8006946:	e8bd 8ff0 	ldmia.w	sp!, {r4, r5, r6, r7, r8, r9, sl, fp, pc}
 800694a:	bf00      	nop
 800694c:	40011000 	.word	0x40011000
 8006950:	40011400 	.word	0x40011400
 8006954:	51eb851f 	.word	0x51eb851f

08006958 <makeFreeRtosPriority>:
 8006958:	b480      	push	{r7}
 800695a:	b085      	sub	sp, #20
 800695c:	af00      	add	r7, sp, #0
 800695e:	4603      	mov	r3, r0
 8006960:	80fb      	strh	r3, [r7, #6]
 8006962:	2300      	movs	r3, #0
 8006964:	60fb      	str	r3, [r7, #12]
 8006966:	f9b7 3006 	ldrsh.w	r3, [r7, #6]
 800696a:	2b84      	cmp	r3, #132	; 0x84
 800696c:	d005      	beq.n	800697a <makeFreeRtosPriority+0x22>
 800696e:	f9b7 2006 	ldrsh.w	r2, [r7, #6]
 8006972:	68fb      	ldr	r3, [r7, #12]
 8006974:	4413      	add	r3, r2
 8006976:	3303      	adds	r3, #3
 8006978:	60fb      	str	r3, [r7, #12]
 800697a:	68fb      	ldr	r3, [r7, #12]
 800697c:	4618      	mov	r0, r3
 800697e:	3714      	adds	r7, #20
 8006980:	46bd      	mov	sp, r7
 8006982:	f85d 7b04 	ldr.w	r7, [sp], #4
 8006986:	4770      	bx	lr

08006988 <osKernelStart>:
 8006988:	b580      	push	{r7, lr}
 800698a:	af00      	add	r7, sp, #0
 800698c:	f000 faf6 	bl	8006f7c <vTaskStartScheduler>
 8006990:	2300      	movs	r3, #0
 8006992:	4618      	mov	r0, r3
 8006994:	bd80      	pop	{r7, pc}

08006996 <osThreadCreate>:
 8006996:	b5f0      	push	{r4, r5, r6, r7, lr}
 8006998:	b089      	sub	sp, #36	; 0x24
 800699a:	af04      	add	r7, sp, #16
 800699c:	6078      	str	r0, [r7, #4]
 800699e:	6039      	str	r1, [r7, #0]
 80069a0:	687b      	ldr	r3, [r7, #4]
 80069a2:	695b      	ldr	r3, [r3, #20]
 80069a4:	2b00      	cmp	r3, #0
 80069a6:	d020      	beq.n	80069ea <osThreadCreate+0x54>
 80069a8:	687b      	ldr	r3, [r7, #4]
 80069aa:	699b      	ldr	r3, [r3, #24]
 80069ac:	2b00      	cmp	r3, #0
 80069ae:	d01c      	beq.n	80069ea <osThreadCreate+0x54>
 80069b0:	687b      	ldr	r3, [r7, #4]
 80069b2:	685c      	ldr	r4, [r3, #4]
 80069b4:	687b      	ldr	r3, [r7, #4]
 80069b6:	681d      	ldr	r5, [r3, #0]
 80069b8:	687b      	ldr	r3, [r7, #4]
 80069ba:	691e      	ldr	r6, [r3, #16]
 80069bc:	687b      	ldr	r3, [r7, #4]
 80069be:	f9b3 3008 	ldrsh.w	r3, [r3, #8]
 80069c2:	4618      	mov	r0, r3
 80069c4:	f7ff ffc8 	bl	8006958 <makeFreeRtosPriority>
 80069c8:	4601      	mov	r1, r0
 80069ca:	687b      	ldr	r3, [r7, #4]
 80069cc:	695b      	ldr	r3, [r3, #20]
 80069ce:	687a      	ldr	r2, [r7, #4]
 80069d0:	6992      	ldr	r2, [r2, #24]
 80069d2:	9202      	str	r2, [sp, #8]
 80069d4:	9301      	str	r3, [sp, #4]
 80069d6:	9100      	str	r1, [sp, #0]
 80069d8:	683b      	ldr	r3, [r7, #0]
 80069da:	4632      	mov	r2, r6
 80069dc:	4629      	mov	r1, r5
 80069de:	4620      	mov	r0, r4
 80069e0:	f000 f8ed 	bl	8006bbe <xTaskCreateStatic>
 80069e4:	4603      	mov	r3, r0
 80069e6:	60fb      	str	r3, [r7, #12]
 80069e8:	e01c      	b.n	8006a24 <osThreadCreate+0x8e>
 80069ea:	687b      	ldr	r3, [r7, #4]
 80069ec:	685c      	ldr	r4, [r3, #4]
 80069ee:	687b      	ldr	r3, [r7, #4]
 80069f0:	681d      	ldr	r5, [r3, #0]
 80069f2:	687b      	ldr	r3, [r7, #4]
 80069f4:	691b      	ldr	r3, [r3, #16]
 80069f6:	b29e      	uxth	r6, r3
 80069f8:	687b      	ldr	r3, [r7, #4]
 80069fa:	f9b3 3008 	ldrsh.w	r3, [r3, #8]
 80069fe:	4618      	mov	r0, r3
 8006a00:	f7ff ffaa 	bl	8006958 <makeFreeRtosPriority>
 8006a04:	4602      	mov	r2, r0
 8006a06:	f107 030c 	add.w	r3, r7, #12
 8006a0a:	9301      	str	r3, [sp, #4]
 8006a0c:	9200      	str	r2, [sp, #0]
 8006a0e:	683b      	ldr	r3, [r7, #0]
 8006a10:	4632      	mov	r2, r6
 8006a12:	4629      	mov	r1, r5
 8006a14:	4620      	mov	r0, r4
 8006a16:	f000 f92f 	bl	8006c78 <xTaskCreate>
 8006a1a:	4603      	mov	r3, r0
 8006a1c:	2b01      	cmp	r3, #1
 8006a1e:	d001      	beq.n	8006a24 <osThreadCreate+0x8e>
 8006a20:	2300      	movs	r3, #0
 8006a22:	e000      	b.n	8006a26 <osThreadCreate+0x90>
 8006a24:	68fb      	ldr	r3, [r7, #12]
 8006a26:	4618      	mov	r0, r3
 8006a28:	3714      	adds	r7, #20
 8006a2a:	46bd      	mov	sp, r7
 8006a2c:	bdf0      	pop	{r4, r5, r6, r7, pc}

08006a2e <osDelay>:
 8006a2e:	b580      	push	{r7, lr}
 8006a30:	b084      	sub	sp, #16
 8006a32:	af00      	add	r7, sp, #0
 8006a34:	6078      	str	r0, [r7, #4]
 8006a36:	687b      	ldr	r3, [r7, #4]
 8006a38:	60fb      	str	r3, [r7, #12]
 8006a3a:	68fb      	ldr	r3, [r7, #12]
 8006a3c:	2b00      	cmp	r3, #0
 8006a3e:	d001      	beq.n	8006a44 <osDelay+0x16>
 8006a40:	68fb      	ldr	r3, [r7, #12]
 8006a42:	e000      	b.n	8006a46 <osDelay+0x18>
 8006a44:	2301      	movs	r3, #1
 8006a46:	4618      	mov	r0, r3
 8006a48:	f000 fa64 	bl	8006f14 <vTaskDelay>
 8006a4c:	2300      	movs	r3, #0
 8006a4e:	4618      	mov	r0, r3
 8006a50:	3710      	adds	r7, #16
 8006a52:	46bd      	mov	sp, r7
 8006a54:	bd80      	pop	{r7, pc}

08006a56 <vListInitialise>:
 8006a56:	b480      	push	{r7}
 8006a58:	b083      	sub	sp, #12
 8006a5a:	af00      	add	r7, sp, #0
 8006a5c:	6078      	str	r0, [r7, #4]
 8006a5e:	687b      	ldr	r3, [r7, #4]
 8006a60:	f103 0208 	add.w	r2, r3, #8
 8006a64:	687b      	ldr	r3, [r7, #4]
 8006a66:	605a      	str	r2, [r3, #4]
 8006a68:	687b      	ldr	r3, [r7, #4]
 8006a6a:	f04f 32ff 	mov.w	r2, #4294967295
 8006a6e:	609a      	str	r2, [r3, #8]
 8006a70:	687b      	ldr	r3, [r7, #4]
 8006a72:	f103 0208 	add.w	r2, r3, #8
 8006a76:	687b      	ldr	r3, [r7, #4]
 8006a78:	60da      	str	r2, [r3, #12]
 8006a7a:	687b      	ldr	r3, [r7, #4]
 8006a7c:	f103 0208 	add.w	r2, r3, #8
 8006a80:	687b      	ldr	r3, [r7, #4]
 8006a82:	611a      	str	r2, [r3, #16]
 8006a84:	687b      	ldr	r3, [r7, #4]
 8006a86:	2200      	movs	r2, #0
 8006a88:	601a      	str	r2, [r3, #0]
 8006a8a:	bf00      	nop
 8006a8c:	370c      	adds	r7, #12
 8006a8e:	46bd      	mov	sp, r7
 8006a90:	f85d 7b04 	ldr.w	r7, [sp], #4
 8006a94:	4770      	bx	lr

08006a96 <vListInitialiseItem>:
 8006a96:	b480      	push	{r7}
 8006a98:	b083      	sub	sp, #12
 8006a9a:	af00      	add	r7, sp, #0
 8006a9c:	6078      	str	r0, [r7, #4]
 8006a9e:	687b      	ldr	r3, [r7, #4]
 8006aa0:	2200      	movs	r2, #0
 8006aa2:	611a      	str	r2, [r3, #16]
 8006aa4:	bf00      	nop
 8006aa6:	370c      	adds	r7, #12
 8006aa8:	46bd      	mov	sp, r7
 8006aaa:	f85d 7b04 	ldr.w	r7, [sp], #4
 8006aae:	4770      	bx	lr

08006ab0 <vListInsertEnd>:
 8006ab0:	b480      	push	{r7}
 8006ab2:	b085      	sub	sp, #20
 8006ab4:	af00      	add	r7, sp, #0
 8006ab6:	6078      	str	r0, [r7, #4]
 8006ab8:	6039      	str	r1, [r7, #0]
 8006aba:	687b      	ldr	r3, [r7, #4]
 8006abc:	685b      	ldr	r3, [r3, #4]
 8006abe:	60fb      	str	r3, [r7, #12]
 8006ac0:	683b      	ldr	r3, [r7, #0]
 8006ac2:	68fa      	ldr	r2, [r7, #12]
 8006ac4:	605a      	str	r2, [r3, #4]
 8006ac6:	68fb      	ldr	r3, [r7, #12]
 8006ac8:	689a      	ldr	r2, [r3, #8]
 8006aca:	683b      	ldr	r3, [r7, #0]
 8006acc:	609a      	str	r2, [r3, #8]
 8006ace:	68fb      	ldr	r3, [r7, #12]
 8006ad0:	689b      	ldr	r3, [r3, #8]
 8006ad2:	683a      	ldr	r2, [r7, #0]
 8006ad4:	605a      	str	r2, [r3, #4]
 8006ad6:	68fb      	ldr	r3, [r7, #12]
 8006ad8:	683a      	ldr	r2, [r7, #0]
 8006ada:	609a      	str	r2, [r3, #8]
 8006adc:	683b      	ldr	r3, [r7, #0]
 8006ade:	687a      	ldr	r2, [r7, #4]
 8006ae0:	611a      	str	r2, [r3, #16]
 8006ae2:	687b      	ldr	r3, [r7, #4]
 8006ae4:	681b      	ldr	r3, [r3, #0]
 8006ae6:	1c5a      	adds	r2, r3, #1
 8006ae8:	687b      	ldr	r3, [r7, #4]
 8006aea:	601a      	str	r2, [r3, #0]
 8006aec:	bf00      	nop
 8006aee:	3714      	adds	r7, #20
 8006af0:	46bd      	mov	sp, r7
 8006af2:	f85d 7b04 	ldr.w	r7, [sp], #4
 8006af6:	4770      	bx	lr

08006af8 <vListInsert>:
 8006af8:	b480      	push	{r7}
 8006afa:	b085      	sub	sp, #20
 8006afc:	af00      	add	r7, sp, #0
 8006afe:	6078      	str	r0, [r7, #4]
 8006b00:	6039      	str	r1, [r7, #0]
 8006b02:	683b      	ldr	r3, [r7, #0]
 8006b04:	681b      	ldr	r3, [r3, #0]
 8006b06:	60bb      	str	r3, [r7, #8]
 8006b08:	68bb      	ldr	r3, [r7, #8]
 8006b0a:	f1b3 3fff 	cmp.w	r3, #4294967295
 8006b0e:	d103      	bne.n	8006b18 <vListInsert+0x20>
 8006b10:	687b      	ldr	r3, [r7, #4]
 8006b12:	691b      	ldr	r3, [r3, #16]
 8006b14:	60fb      	str	r3, [r7, #12]
 8006b16:	e00c      	b.n	8006b32 <vListInsert+0x3a>
 8006b18:	687b      	ldr	r3, [r7, #4]
 8006b1a:	3308      	adds	r3, #8
 8006b1c:	60fb      	str	r3, [r7, #12]
 8006b1e:	e002      	b.n	8006b26 <vListInsert+0x2e>
 8006b20:	68fb      	ldr	r3, [r7, #12]
 8006b22:	685b      	ldr	r3, [r3, #4]
 8006b24:	60fb      	str	r3, [r7, #12]
 8006b26:	68fb      	ldr	r3, [r7, #12]
 8006b28:	685b      	ldr	r3, [r3, #4]
 8006b2a:	681b      	ldr	r3, [r3, #0]
 8006b2c:	68ba      	ldr	r2, [r7, #8]
 8006b2e:	429a      	cmp	r2, r3
 8006b30:	d2f6      	bcs.n	8006b20 <vListInsert+0x28>
 8006b32:	68fb      	ldr	r3, [r7, #12]
 8006b34:	685a      	ldr	r2, [r3, #4]
 8006b36:	683b      	ldr	r3, [r7, #0]
 8006b38:	605a      	str	r2, [r3, #4]
 8006b3a:	683b      	ldr	r3, [r7, #0]
 8006b3c:	685b      	ldr	r3, [r3, #4]
 8006b3e:	683a      	ldr	r2, [r7, #0]
 8006b40:	609a      	str	r2, [r3, #8]
 8006b42:	683b      	ldr	r3, [r7, #0]
 8006b44:	68fa      	ldr	r2, [r7, #12]
 8006b46:	609a      	str	r2, [r3, #8]
 8006b48:	68fb      	ldr	r3, [r7, #12]
 8006b4a:	683a      	ldr	r2, [r7, #0]
 8006b4c:	605a      	str	r2, [r3, #4]
 8006b4e:	683b      	ldr	r3, [r7, #0]
 8006b50:	687a      	ldr	r2, [r7, #4]
 8006b52:	611a      	str	r2, [r3, #16]
 8006b54:	687b      	ldr	r3, [r7, #4]
 8006b56:	681b      	ldr	r3, [r3, #0]
 8006b58:	1c5a      	adds	r2, r3, #1
 8006b5a:	687b      	ldr	r3, [r7, #4]
 8006b5c:	601a      	str	r2, [r3, #0]
 8006b5e:	bf00      	nop
 8006b60:	3714      	adds	r7, #20
 8006b62:	46bd      	mov	sp, r7
 8006b64:	f85d 7b04 	ldr.w	r7, [sp], #4
 8006b68:	4770      	bx	lr

08006b6a <uxListRemove>:
 8006b6a:	b480      	push	{r7}
 8006b6c:	b085      	sub	sp, #20
 8006b6e:	af00      	add	r7, sp, #0
 8006b70:	6078      	str	r0, [r7, #4]
 8006b72:	687b      	ldr	r3, [r7, #4]
 8006b74:	691b      	ldr	r3, [r3, #16]
 8006b76:	60fb      	str	r3, [r7, #12]
 8006b78:	687b      	ldr	r3, [r7, #4]
 8006b7a:	685b      	ldr	r3, [r3, #4]
 8006b7c:	687a      	ldr	r2, [r7, #4]
 8006b7e:	6892      	ldr	r2, [r2, #8]
 8006b80:	609a      	str	r2, [r3, #8]
 8006b82:	687b      	ldr	r3, [r7, #4]
 8006b84:	689b      	ldr	r3, [r3, #8]
 8006b86:	687a      	ldr	r2, [r7, #4]
 8006b88:	6852      	ldr	r2, [r2, #4]
 8006b8a:	605a      	str	r2, [r3, #4]
 8006b8c:	68fb      	ldr	r3, [r7, #12]
 8006b8e:	685b      	ldr	r3, [r3, #4]
 8006b90:	687a      	ldr	r2, [r7, #4]
 8006b92:	429a      	cmp	r2, r3
 8006b94:	d103      	bne.n	8006b9e <uxListRemove+0x34>
 8006b96:	687b      	ldr	r3, [r7, #4]
 8006b98:	689a      	ldr	r2, [r3, #8]
 8006b9a:	68fb      	ldr	r3, [r7, #12]
 8006b9c:	605a      	str	r2, [r3, #4]
 8006b9e:	687b      	ldr	r3, [r7, #4]
 8006ba0:	2200      	movs	r2, #0
 8006ba2:	611a      	str	r2, [r3, #16]
 8006ba4:	68fb      	ldr	r3, [r7, #12]
 8006ba6:	681b      	ldr	r3, [r3, #0]
 8006ba8:	1e5a      	subs	r2, r3, #1
 8006baa:	68fb      	ldr	r3, [r7, #12]
 8006bac:	601a      	str	r2, [r3, #0]
 8006bae:	68fb      	ldr	r3, [r7, #12]
 8006bb0:	681b      	ldr	r3, [r3, #0]
 8006bb2:	4618      	mov	r0, r3
 8006bb4:	3714      	adds	r7, #20
 8006bb6:	46bd      	mov	sp, r7
 8006bb8:	f85d 7b04 	ldr.w	r7, [sp], #4
 8006bbc:	4770      	bx	lr

08006bbe <xTaskCreateStatic>:
 8006bbe:	b580      	push	{r7, lr}
 8006bc0:	b08e      	sub	sp, #56	; 0x38
 8006bc2:	af04      	add	r7, sp, #16
 8006bc4:	60f8      	str	r0, [r7, #12]
 8006bc6:	60b9      	str	r1, [r7, #8]
 8006bc8:	607a      	str	r2, [r7, #4]
 8006bca:	603b      	str	r3, [r7, #0]
 8006bcc:	6b7b      	ldr	r3, [r7, #52]	; 0x34
 8006bce:	2b00      	cmp	r3, #0
 8006bd0:	d10a      	bne.n	8006be8 <xTaskCreateStatic+0x2a>
 8006bd2:	f04f 0350 	mov.w	r3, #80	; 0x50
 8006bd6:	f383 8811 	msr	BASEPRI, r3
 8006bda:	f3bf 8f6f 	isb	sy
 8006bde:	f3bf 8f4f 	dsb	sy
 8006be2:	623b      	str	r3, [r7, #32]
 8006be4:	bf00      	nop
 8006be6:	e7fe      	b.n	8006be6 <xTaskCreateStatic+0x28>
 8006be8:	6bbb      	ldr	r3, [r7, #56]	; 0x38
 8006bea:	2b00      	cmp	r3, #0
 8006bec:	d10a      	bne.n	8006c04 <xTaskCreateStatic+0x46>
 8006bee:	f04f 0350 	mov.w	r3, #80	; 0x50
 8006bf2:	f383 8811 	msr	BASEPRI, r3
 8006bf6:	f3bf 8f6f 	isb	sy
 8006bfa:	f3bf 8f4f 	dsb	sy
 8006bfe:	61fb      	str	r3, [r7, #28]
 8006c00:	bf00      	nop
 8006c02:	e7fe      	b.n	8006c02 <xTaskCreateStatic+0x44>
 8006c04:	23b4      	movs	r3, #180	; 0xb4
 8006c06:	613b      	str	r3, [r7, #16]
 8006c08:	693b      	ldr	r3, [r7, #16]
 8006c0a:	2bb4      	cmp	r3, #180	; 0xb4
 8006c0c:	d00a      	beq.n	8006c24 <xTaskCreateStatic+0x66>
 8006c0e:	f04f 0350 	mov.w	r3, #80	; 0x50
 8006c12:	f383 8811 	msr	BASEPRI, r3
 8006c16:	f3bf 8f6f 	isb	sy
 8006c1a:	f3bf 8f4f 	dsb	sy
 8006c1e:	61bb      	str	r3, [r7, #24]
 8006c20:	bf00      	nop
 8006c22:	e7fe      	b.n	8006c22 <xTaskCreateStatic+0x64>
 8006c24:	693b      	ldr	r3, [r7, #16]
 8006c26:	6bbb      	ldr	r3, [r7, #56]	; 0x38
 8006c28:	2b00      	cmp	r3, #0
 8006c2a:	d01e      	beq.n	8006c6a <xTaskCreateStatic+0xac>
 8006c2c:	6b7b      	ldr	r3, [r7, #52]	; 0x34
 8006c2e:	2b00      	cmp	r3, #0
 8006c30:	d01b      	beq.n	8006c6a <xTaskCreateStatic+0xac>
 8006c32:	6bbb      	ldr	r3, [r7, #56]	; 0x38
 8006c34:	627b      	str	r3, [r7, #36]	; 0x24
 8006c36:	6a7b      	ldr	r3, [r7, #36]	; 0x24
 8006c38:	6b7a      	ldr	r2, [r7, #52]	; 0x34
 8006c3a:	631a      	str	r2, [r3, #48]	; 0x30
 8006c3c:	6a7b      	ldr	r3, [r7, #36]	; 0x24
 8006c3e:	2202      	movs	r2, #2
 8006c40:	f883 20b1 	strb.w	r2, [r3, #177]	; 0xb1
 8006c44:	2300      	movs	r3, #0
 8006c46:	9303      	str	r3, [sp, #12]
 8006c48:	6a7b      	ldr	r3, [r7, #36]	; 0x24
 8006c4a:	9302      	str	r3, [sp, #8]
 8006c4c:	f107 0314 	add.w	r3, r7, #20
 8006c50:	9301      	str	r3, [sp, #4]
 8006c52:	6b3b      	ldr	r3, [r7, #48]	; 0x30
 8006c54:	9300      	str	r3, [sp, #0]
 8006c56:	683b      	ldr	r3, [r7, #0]
 8006c58:	687a      	ldr	r2, [r7, #4]
 8006c5a:	68b9      	ldr	r1, [r7, #8]
 8006c5c:	68f8      	ldr	r0, [r7, #12]
 8006c5e:	f000 f851 	bl	8006d04 <prvInitialiseNewTask>
 8006c62:	6a78      	ldr	r0, [r7, #36]	; 0x24
 8006c64:	f000 f8ec 	bl	8006e40 <prvAddNewTaskToReadyList>
 8006c68:	e001      	b.n	8006c6e <xTaskCreateStatic+0xb0>
 8006c6a:	2300      	movs	r3, #0
 8006c6c:	617b      	str	r3, [r7, #20]
 8006c6e:	697b      	ldr	r3, [r7, #20]
 8006c70:	4618      	mov	r0, r3
 8006c72:	3728      	adds	r7, #40	; 0x28
 8006c74:	46bd      	mov	sp, r7
 8006c76:	bd80      	pop	{r7, pc}

08006c78 <xTaskCreate>:
 8006c78:	b580      	push	{r7, lr}
 8006c7a:	b08c      	sub	sp, #48	; 0x30
 8006c7c:	af04      	add	r7, sp, #16
 8006c7e:	60f8      	str	r0, [r7, #12]
 8006c80:	60b9      	str	r1, [r7, #8]
 8006c82:	603b      	str	r3, [r7, #0]
 8006c84:	4613      	mov	r3, r2
 8006c86:	80fb      	strh	r3, [r7, #6]
 8006c88:	88fb      	ldrh	r3, [r7, #6]
 8006c8a:	009b      	lsls	r3, r3, #2
 8006c8c:	4618      	mov	r0, r3
 8006c8e:	f000 fef3 	bl	8007a78 <pvPortMalloc>
 8006c92:	6178      	str	r0, [r7, #20]
 8006c94:	697b      	ldr	r3, [r7, #20]
 8006c96:	2b00      	cmp	r3, #0
 8006c98:	d00e      	beq.n	8006cb8 <xTaskCreate+0x40>
 8006c9a:	20b4      	movs	r0, #180	; 0xb4
 8006c9c:	f000 feec 	bl	8007a78 <pvPortMalloc>
 8006ca0:	61f8      	str	r0, [r7, #28]
 8006ca2:	69fb      	ldr	r3, [r7, #28]
 8006ca4:	2b00      	cmp	r3, #0
 8006ca6:	d003      	beq.n	8006cb0 <xTaskCreate+0x38>
 8006ca8:	69fb      	ldr	r3, [r7, #28]
 8006caa:	697a      	ldr	r2, [r7, #20]
 8006cac:	631a      	str	r2, [r3, #48]	; 0x30
 8006cae:	e005      	b.n	8006cbc <xTaskCreate+0x44>
 8006cb0:	6978      	ldr	r0, [r7, #20]
 8006cb2:	f000 ffad 	bl	8007c10 <vPortFree>
 8006cb6:	e001      	b.n	8006cbc <xTaskCreate+0x44>
 8006cb8:	2300      	movs	r3, #0
 8006cba:	61fb      	str	r3, [r7, #28]
 8006cbc:	69fb      	ldr	r3, [r7, #28]
 8006cbe:	2b00      	cmp	r3, #0
 8006cc0:	d017      	beq.n	8006cf2 <xTaskCreate+0x7a>
 8006cc2:	69fb      	ldr	r3, [r7, #28]
 8006cc4:	2200      	movs	r2, #0
 8006cc6:	f883 20b1 	strb.w	r2, [r3, #177]	; 0xb1
 8006cca:	88fa      	ldrh	r2, [r7, #6]
 8006ccc:	2300      	movs	r3, #0
 8006cce:	9303      	str	r3, [sp, #12]
 8006cd0:	69fb      	ldr	r3, [r7, #28]
 8006cd2:	9302      	str	r3, [sp, #8]
 8006cd4:	6afb      	ldr	r3, [r7, #44]	; 0x2c
 8006cd6:	9301      	str	r3, [sp, #4]
 8006cd8:	6abb      	ldr	r3, [r7, #40]	; 0x28
 8006cda:	9300      	str	r3, [sp, #0]
 8006cdc:	683b      	ldr	r3, [r7, #0]
 8006cde:	68b9      	ldr	r1, [r7, #8]
 8006ce0:	68f8      	ldr	r0, [r7, #12]
 8006ce2:	f000 f80f 	bl	8006d04 <prvInitialiseNewTask>
 8006ce6:	69f8      	ldr	r0, [r7, #28]
 8006ce8:	f000 f8aa 	bl	8006e40 <prvAddNewTaskToReadyList>
 8006cec:	2301      	movs	r3, #1
 8006cee:	61bb      	str	r3, [r7, #24]
 8006cf0:	e002      	b.n	8006cf8 <xTaskCreate+0x80>
 8006cf2:	f04f 33ff 	mov.w	r3, #4294967295
 8006cf6:	61bb      	str	r3, [r7, #24]
 8006cf8:	69bb      	ldr	r3, [r7, #24]
 8006cfa:	4618      	mov	r0, r3
 8006cfc:	3720      	adds	r7, #32
 8006cfe:	46bd      	mov	sp, r7
 8006d00:	bd80      	pop	{r7, pc}
	...

08006d04 <prvInitialiseNewTask>:
 8006d04:	b580      	push	{r7, lr}
 8006d06:	b088      	sub	sp, #32
 8006d08:	af00      	add	r7, sp, #0
 8006d0a:	60f8      	str	r0, [r7, #12]
 8006d0c:	60b9      	str	r1, [r7, #8]
 8006d0e:	607a      	str	r2, [r7, #4]
 8006d10:	603b      	str	r3, [r7, #0]
 8006d12:	6b3b      	ldr	r3, [r7, #48]	; 0x30
 8006d14:	6b1a      	ldr	r2, [r3, #48]	; 0x30
 8006d16:	687b      	ldr	r3, [r7, #4]
 8006d18:	f103 4380 	add.w	r3, r3, #1073741824	; 0x40000000
 8006d1c:	3b01      	subs	r3, #1
 8006d1e:	009b      	lsls	r3, r3, #2
 8006d20:	4413      	add	r3, r2
 8006d22:	61bb      	str	r3, [r7, #24]
 8006d24:	69bb      	ldr	r3, [r7, #24]
 8006d26:	f023 0307 	bic.w	r3, r3, #7
 8006d2a:	61bb      	str	r3, [r7, #24]
 8006d2c:	69bb      	ldr	r3, [r7, #24]
 8006d2e:	f003 0307 	and.w	r3, r3, #7
 8006d32:	2b00      	cmp	r3, #0
 8006d34:	d00a      	beq.n	8006d4c <prvInitialiseNewTask+0x48>
 8006d36:	f04f 0350 	mov.w	r3, #80	; 0x50
 8006d3a:	f383 8811 	msr	BASEPRI, r3
 8006d3e:	f3bf 8f6f 	isb	sy
 8006d42:	f3bf 8f4f 	dsb	sy
 8006d46:	617b      	str	r3, [r7, #20]
 8006d48:	bf00      	nop
 8006d4a:	e7fe      	b.n	8006d4a <prvInitialiseNewTask+0x46>
 8006d4c:	68bb      	ldr	r3, [r7, #8]
 8006d4e:	2b00      	cmp	r3, #0
 8006d50:	d01f      	beq.n	8006d92 <prvInitialiseNewTask+0x8e>
 8006d52:	2300      	movs	r3, #0
 8006d54:	61fb      	str	r3, [r7, #28]
 8006d56:	e012      	b.n	8006d7e <prvInitialiseNewTask+0x7a>
 8006d58:	68ba      	ldr	r2, [r7, #8]
 8006d5a:	69fb      	ldr	r3, [r7, #28]
 8006d5c:	4413      	add	r3, r2
 8006d5e:	7819      	ldrb	r1, [r3, #0]
 8006d60:	6b3a      	ldr	r2, [r7, #48]	; 0x30
 8006d62:	69fb      	ldr	r3, [r7, #28]
 8006d64:	4413      	add	r3, r2
 8006d66:	3334      	adds	r3, #52	; 0x34
 8006d68:	460a      	mov	r2, r1
 8006d6a:	701a      	strb	r2, [r3, #0]
 8006d6c:	68ba      	ldr	r2, [r7, #8]
 8006d6e:	69fb      	ldr	r3, [r7, #28]
 8006d70:	4413      	add	r3, r2
 8006d72:	781b      	ldrb	r3, [r3, #0]
 8006d74:	2b00      	cmp	r3, #0
 8006d76:	d006      	beq.n	8006d86 <prvInitialiseNewTask+0x82>
 8006d78:	69fb      	ldr	r3, [r7, #28]
 8006d7a:	3301      	adds	r3, #1
 8006d7c:	61fb      	str	r3, [r7, #28]
 8006d7e:	69fb      	ldr	r3, [r7, #28]
 8006d80:	2b0f      	cmp	r3, #15
 8006d82:	d9e9      	bls.n	8006d58 <prvInitialiseNewTask+0x54>
 8006d84:	e000      	b.n	8006d88 <prvInitialiseNewTask+0x84>
 8006d86:	bf00      	nop
 8006d88:	6b3b      	ldr	r3, [r7, #48]	; 0x30
 8006d8a:	2200      	movs	r2, #0
 8006d8c:	f883 2043 	strb.w	r2, [r3, #67]	; 0x43
 8006d90:	e003      	b.n	8006d9a <prvInitialiseNewTask+0x96>
 8006d92:	6b3b      	ldr	r3, [r7, #48]	; 0x30
 8006d94:	2200      	movs	r2, #0
 8006d96:	f883 2034 	strb.w	r2, [r3, #52]	; 0x34
 8006d9a:	6abb      	ldr	r3, [r7, #40]	; 0x28
 8006d9c:	2b06      	cmp	r3, #6
 8006d9e:	d901      	bls.n	8006da4 <prvInitialiseNewTask+0xa0>
 8006da0:	2306      	movs	r3, #6
 8006da2:	62bb      	str	r3, [r7, #40]	; 0x28
 8006da4:	6b3b      	ldr	r3, [r7, #48]	; 0x30
 8006da6:	6aba      	ldr	r2, [r7, #40]	; 0x28
 8006da8:	62da      	str	r2, [r3, #44]	; 0x2c
 8006daa:	6b3b      	ldr	r3, [r7, #48]	; 0x30
 8006dac:	6aba      	ldr	r2, [r7, #40]	; 0x28
 8006dae:	645a      	str	r2, [r3, #68]	; 0x44
 8006db0:	6b3b      	ldr	r3, [r7, #48]	; 0x30
 8006db2:	2200      	movs	r2, #0
 8006db4:	649a      	str	r2, [r3, #72]	; 0x48
 8006db6:	6b3b      	ldr	r3, [r7, #48]	; 0x30
 8006db8:	3304      	adds	r3, #4
 8006dba:	4618      	mov	r0, r3
 8006dbc:	f7ff fe6b 	bl	8006a96 <vListInitialiseItem>
 8006dc0:	6b3b      	ldr	r3, [r7, #48]	; 0x30
 8006dc2:	3318      	adds	r3, #24
 8006dc4:	4618      	mov	r0, r3
 8006dc6:	f7ff fe66 	bl	8006a96 <vListInitialiseItem>
 8006dca:	6b3b      	ldr	r3, [r7, #48]	; 0x30
 8006dcc:	6b3a      	ldr	r2, [r7, #48]	; 0x30
 8006dce:	611a      	str	r2, [r3, #16]
 8006dd0:	6abb      	ldr	r3, [r7, #40]	; 0x28
 8006dd2:	f1c3 0207 	rsb	r2, r3, #7
 8006dd6:	6b3b      	ldr	r3, [r7, #48]	; 0x30
 8006dd8:	619a      	str	r2, [r3, #24]
 8006dda:	6b3b      	ldr	r3, [r7, #48]	; 0x30
 8006ddc:	6b3a      	ldr	r2, [r7, #48]	; 0x30
 8006dde:	625a      	str	r2, [r3, #36]	; 0x24
 8006de0:	6b3b      	ldr	r3, [r7, #48]	; 0x30
 8006de2:	2200      	movs	r2, #0
 8006de4:	f8c3 20ac 	str.w	r2, [r3, #172]	; 0xac
 8006de8:	6b3b      	ldr	r3, [r7, #48]	; 0x30
 8006dea:	2200      	movs	r2, #0
 8006dec:	f883 20b0 	strb.w	r2, [r3, #176]	; 0xb0
 8006df0:	6b3b      	ldr	r3, [r7, #48]	; 0x30
 8006df2:	334c      	adds	r3, #76	; 0x4c
 8006df4:	2260      	movs	r2, #96	; 0x60
 8006df6:	2100      	movs	r1, #0
 8006df8:	4618      	mov	r0, r3
 8006dfa:	f001 f84d 	bl	8007e98 <memset>
 8006dfe:	6b3b      	ldr	r3, [r7, #48]	; 0x30
 8006e00:	4a0c      	ldr	r2, [pc, #48]	; (8006e34 <prvInitialiseNewTask+0x130>)
 8006e02:	651a      	str	r2, [r3, #80]	; 0x50
 8006e04:	6b3b      	ldr	r3, [r7, #48]	; 0x30
 8006e06:	4a0c      	ldr	r2, [pc, #48]	; (8006e38 <prvInitialiseNewTask+0x134>)
 8006e08:	655a      	str	r2, [r3, #84]	; 0x54
 8006e0a:	6b3b      	ldr	r3, [r7, #48]	; 0x30
 8006e0c:	4a0b      	ldr	r2, [pc, #44]	; (8006e3c <prvInitialiseNewTask+0x138>)
 8006e0e:	659a      	str	r2, [r3, #88]	; 0x58
 8006e10:	683a      	ldr	r2, [r7, #0]
 8006e12:	68f9      	ldr	r1, [r7, #12]
 8006e14:	69b8      	ldr	r0, [r7, #24]
 8006e16:	f000 fc1f 	bl	8007658 <pxPortInitialiseStack>
 8006e1a:	4602      	mov	r2, r0
 8006e1c:	6b3b      	ldr	r3, [r7, #48]	; 0x30
 8006e1e:	601a      	str	r2, [r3, #0]
 8006e20:	6afb      	ldr	r3, [r7, #44]	; 0x2c
 8006e22:	2b00      	cmp	r3, #0
 8006e24:	d002      	beq.n	8006e2c <prvInitialiseNewTask+0x128>
 8006e26:	6afb      	ldr	r3, [r7, #44]	; 0x2c
 8006e28:	6b3a      	ldr	r2, [r7, #48]	; 0x30
 8006e2a:	601a      	str	r2, [r3, #0]
 8006e2c:	bf00      	nop
 8006e2e:	3720      	adds	r7, #32
 8006e30:	46bd      	mov	sp, r7
 8006e32:	bd80      	pop	{r7, pc}
 8006e34:	08008964 	.word	0x08008964
 8006e38:	08008984 	.word	0x08008984
 8006e3c:	08008944 	.word	0x08008944

08006e40 <prvAddNewTaskToReadyList>:
 8006e40:	b580      	push	{r7, lr}
 8006e42:	b082      	sub	sp, #8
 8006e44:	af00      	add	r7, sp, #0
 8006e46:	6078      	str	r0, [r7, #4]
 8006e48:	f000 fd34 	bl	80078b4 <vPortEnterCritical>
 8006e4c:	4b2a      	ldr	r3, [pc, #168]	; (8006ef8 <prvAddNewTaskToReadyList+0xb8>)
 8006e4e:	681b      	ldr	r3, [r3, #0]
 8006e50:	3301      	adds	r3, #1
 8006e52:	4a29      	ldr	r2, [pc, #164]	; (8006ef8 <prvAddNewTaskToReadyList+0xb8>)
 8006e54:	6013      	str	r3, [r2, #0]
 8006e56:	4b29      	ldr	r3, [pc, #164]	; (8006efc <prvAddNewTaskToReadyList+0xbc>)
 8006e58:	681b      	ldr	r3, [r3, #0]
 8006e5a:	2b00      	cmp	r3, #0
 8006e5c:	d109      	bne.n	8006e72 <prvAddNewTaskToReadyList+0x32>
 8006e5e:	4a27      	ldr	r2, [pc, #156]	; (8006efc <prvAddNewTaskToReadyList+0xbc>)
 8006e60:	687b      	ldr	r3, [r7, #4]
 8006e62:	6013      	str	r3, [r2, #0]
 8006e64:	4b24      	ldr	r3, [pc, #144]	; (8006ef8 <prvAddNewTaskToReadyList+0xb8>)
 8006e66:	681b      	ldr	r3, [r3, #0]
 8006e68:	2b01      	cmp	r3, #1
 8006e6a:	d110      	bne.n	8006e8e <prvAddNewTaskToReadyList+0x4e>
 8006e6c:	f000 facc 	bl	8007408 <prvInitialiseTaskLists>
 8006e70:	e00d      	b.n	8006e8e <prvAddNewTaskToReadyList+0x4e>
 8006e72:	4b23      	ldr	r3, [pc, #140]	; (8006f00 <prvAddNewTaskToReadyList+0xc0>)
 8006e74:	681b      	ldr	r3, [r3, #0]
 8006e76:	2b00      	cmp	r3, #0
 8006e78:	d109      	bne.n	8006e8e <prvAddNewTaskToReadyList+0x4e>
 8006e7a:	4b20      	ldr	r3, [pc, #128]	; (8006efc <prvAddNewTaskToReadyList+0xbc>)
 8006e7c:	681b      	ldr	r3, [r3, #0]
 8006e7e:	6ada      	ldr	r2, [r3, #44]	; 0x2c
 8006e80:	687b      	ldr	r3, [r7, #4]
 8006e82:	6adb      	ldr	r3, [r3, #44]	; 0x2c
 8006e84:	429a      	cmp	r2, r3
 8006e86:	d802      	bhi.n	8006e8e <prvAddNewTaskToReadyList+0x4e>
 8006e88:	4a1c      	ldr	r2, [pc, #112]	; (8006efc <prvAddNewTaskToReadyList+0xbc>)
 8006e8a:	687b      	ldr	r3, [r7, #4]
 8006e8c:	6013      	str	r3, [r2, #0]
 8006e8e:	4b1d      	ldr	r3, [pc, #116]	; (8006f04 <prvAddNewTaskToReadyList+0xc4>)
 8006e90:	681b      	ldr	r3, [r3, #0]
 8006e92:	3301      	adds	r3, #1
 8006e94:	4a1b      	ldr	r2, [pc, #108]	; (8006f04 <prvAddNewTaskToReadyList+0xc4>)
 8006e96:	6013      	str	r3, [r2, #0]
 8006e98:	687b      	ldr	r3, [r7, #4]
 8006e9a:	6adb      	ldr	r3, [r3, #44]	; 0x2c
 8006e9c:	2201      	movs	r2, #1
 8006e9e:	409a      	lsls	r2, r3
 8006ea0:	4b19      	ldr	r3, [pc, #100]	; (8006f08 <prvAddNewTaskToReadyList+0xc8>)
 8006ea2:	681b      	ldr	r3, [r3, #0]
 8006ea4:	4313      	orrs	r3, r2
 8006ea6:	4a18      	ldr	r2, [pc, #96]	; (8006f08 <prvAddNewTaskToReadyList+0xc8>)
 8006ea8:	6013      	str	r3, [r2, #0]
 8006eaa:	687b      	ldr	r3, [r7, #4]
 8006eac:	6ada      	ldr	r2, [r3, #44]	; 0x2c
 8006eae:	4613      	mov	r3, r2
 8006eb0:	009b      	lsls	r3, r3, #2
 8006eb2:	4413      	add	r3, r2
 8006eb4:	009b      	lsls	r3, r3, #2
 8006eb6:	4a15      	ldr	r2, [pc, #84]	; (8006f0c <prvAddNewTaskToReadyList+0xcc>)
 8006eb8:	441a      	add	r2, r3
 8006eba:	687b      	ldr	r3, [r7, #4]
 8006ebc:	3304      	adds	r3, #4
 8006ebe:	4619      	mov	r1, r3
 8006ec0:	4610      	mov	r0, r2
 8006ec2:	f7ff fdf5 	bl	8006ab0 <vListInsertEnd>
 8006ec6:	f000 fd25 	bl	8007914 <vPortExitCritical>
 8006eca:	4b0d      	ldr	r3, [pc, #52]	; (8006f00 <prvAddNewTaskToReadyList+0xc0>)
 8006ecc:	681b      	ldr	r3, [r3, #0]
 8006ece:	2b00      	cmp	r3, #0
 8006ed0:	d00e      	beq.n	8006ef0 <prvAddNewTaskToReadyList+0xb0>
 8006ed2:	4b0a      	ldr	r3, [pc, #40]	; (8006efc <prvAddNewTaskToReadyList+0xbc>)
 8006ed4:	681b      	ldr	r3, [r3, #0]
 8006ed6:	6ada      	ldr	r2, [r3, #44]	; 0x2c
 8006ed8:	687b      	ldr	r3, [r7, #4]
 8006eda:	6adb      	ldr	r3, [r3, #44]	; 0x2c
 8006edc:	429a      	cmp	r2, r3
 8006ede:	d207      	bcs.n	8006ef0 <prvAddNewTaskToReadyList+0xb0>
 8006ee0:	4b0b      	ldr	r3, [pc, #44]	; (8006f10 <prvAddNewTaskToReadyList+0xd0>)
 8006ee2:	f04f 5280 	mov.w	r2, #268435456	; 0x10000000
 8006ee6:	601a      	str	r2, [r3, #0]
 8006ee8:	f3bf 8f4f 	dsb	sy
 8006eec:	f3bf 8f6f 	isb	sy
 8006ef0:	bf00      	nop
 8006ef2:	3708      	adds	r7, #8
 8006ef4:	46bd      	mov	sp, r7
 8006ef6:	bd80      	pop	{r7, pc}
 8006ef8:	20000690 	.word	0x20000690
 8006efc:	20000590 	.word	0x20000590
 8006f00:	2000069c 	.word	0x2000069c
 8006f04:	200006ac 	.word	0x200006ac
 8006f08:	20000698 	.word	0x20000698
 8006f0c:	20000594 	.word	0x20000594
 8006f10:	e000ed04 	.word	0xe000ed04

08006f14 <vTaskDelay>:
 8006f14:	b580      	push	{r7, lr}
 8006f16:	b084      	sub	sp, #16
 8006f18:	af00      	add	r7, sp, #0
 8006f1a:	6078      	str	r0, [r7, #4]
 8006f1c:	2300      	movs	r3, #0
 8006f1e:	60fb      	str	r3, [r7, #12]
 8006f20:	687b      	ldr	r3, [r7, #4]
 8006f22:	2b00      	cmp	r3, #0
 8006f24:	d017      	beq.n	8006f56 <vTaskDelay+0x42>
 8006f26:	4b13      	ldr	r3, [pc, #76]	; (8006f74 <vTaskDelay+0x60>)
 8006f28:	681b      	ldr	r3, [r3, #0]
 8006f2a:	2b00      	cmp	r3, #0
 8006f2c:	d00a      	beq.n	8006f44 <vTaskDelay+0x30>
 8006f2e:	f04f 0350 	mov.w	r3, #80	; 0x50
 8006f32:	f383 8811 	msr	BASEPRI, r3
 8006f36:	f3bf 8f6f 	isb	sy
 8006f3a:	f3bf 8f4f 	dsb	sy
 8006f3e:	60bb      	str	r3, [r7, #8]
 8006f40:	bf00      	nop
 8006f42:	e7fe      	b.n	8006f42 <vTaskDelay+0x2e>
 8006f44:	f000 f884 	bl	8007050 <vTaskSuspendAll>
 8006f48:	2100      	movs	r1, #0
 8006f4a:	6878      	ldr	r0, [r7, #4]
 8006f4c:	f000 fb1e 	bl	800758c <prvAddCurrentTaskToDelayedList>
 8006f50:	f000 f88c 	bl	800706c <xTaskResumeAll>
 8006f54:	60f8      	str	r0, [r7, #12]
 8006f56:	68fb      	ldr	r3, [r7, #12]
 8006f58:	2b00      	cmp	r3, #0
 8006f5a:	d107      	bne.n	8006f6c <vTaskDelay+0x58>
 8006f5c:	4b06      	ldr	r3, [pc, #24]	; (8006f78 <vTaskDelay+0x64>)
 8006f5e:	f04f 5280 	mov.w	r2, #268435456	; 0x10000000
 8006f62:	601a      	str	r2, [r3, #0]
 8006f64:	f3bf 8f4f 	dsb	sy
 8006f68:	f3bf 8f6f 	isb	sy
 8006f6c:	bf00      	nop
 8006f6e:	3710      	adds	r7, #16
 8006f70:	46bd      	mov	sp, r7
 8006f72:	bd80      	pop	{r7, pc}
 8006f74:	200006b8 	.word	0x200006b8
 8006f78:	e000ed04 	.word	0xe000ed04

08006f7c <vTaskStartScheduler>:
 8006f7c:	b580      	push	{r7, lr}
 8006f7e:	b08a      	sub	sp, #40	; 0x28
 8006f80:	af04      	add	r7, sp, #16
 8006f82:	2300      	movs	r3, #0
 8006f84:	60bb      	str	r3, [r7, #8]
 8006f86:	2300      	movs	r3, #0
 8006f88:	607b      	str	r3, [r7, #4]
 8006f8a:	463a      	mov	r2, r7
 8006f8c:	1d39      	adds	r1, r7, #4
 8006f8e:	f107 0308 	add.w	r3, r7, #8
 8006f92:	4618      	mov	r0, r3
 8006f94:	f7f9 fa98 	bl	80004c8 <vApplicationGetIdleTaskMemory>
 8006f98:	6839      	ldr	r1, [r7, #0]
 8006f9a:	687b      	ldr	r3, [r7, #4]
 8006f9c:	68ba      	ldr	r2, [r7, #8]
 8006f9e:	9202      	str	r2, [sp, #8]
 8006fa0:	9301      	str	r3, [sp, #4]
 8006fa2:	2300      	movs	r3, #0
 8006fa4:	9300      	str	r3, [sp, #0]
 8006fa6:	2300      	movs	r3, #0
 8006fa8:	460a      	mov	r2, r1
 8006faa:	4921      	ldr	r1, [pc, #132]	; (8007030 <vTaskStartScheduler+0xb4>)
 8006fac:	4821      	ldr	r0, [pc, #132]	; (8007034 <vTaskStartScheduler+0xb8>)
 8006fae:	f7ff fe06 	bl	8006bbe <xTaskCreateStatic>
 8006fb2:	4603      	mov	r3, r0
 8006fb4:	4a20      	ldr	r2, [pc, #128]	; (8007038 <vTaskStartScheduler+0xbc>)
 8006fb6:	6013      	str	r3, [r2, #0]
 8006fb8:	4b1f      	ldr	r3, [pc, #124]	; (8007038 <vTaskStartScheduler+0xbc>)
 8006fba:	681b      	ldr	r3, [r3, #0]
 8006fbc:	2b00      	cmp	r3, #0
 8006fbe:	d002      	beq.n	8006fc6 <vTaskStartScheduler+0x4a>
 8006fc0:	2301      	movs	r3, #1
 8006fc2:	617b      	str	r3, [r7, #20]
 8006fc4:	e001      	b.n	8006fca <vTaskStartScheduler+0x4e>
 8006fc6:	2300      	movs	r3, #0
 8006fc8:	617b      	str	r3, [r7, #20]
 8006fca:	697b      	ldr	r3, [r7, #20]
 8006fcc:	2b01      	cmp	r3, #1
 8006fce:	d11b      	bne.n	8007008 <vTaskStartScheduler+0x8c>
 8006fd0:	f04f 0350 	mov.w	r3, #80	; 0x50
 8006fd4:	f383 8811 	msr	BASEPRI, r3
 8006fd8:	f3bf 8f6f 	isb	sy
 8006fdc:	f3bf 8f4f 	dsb	sy
 8006fe0:	613b      	str	r3, [r7, #16]
 8006fe2:	bf00      	nop
 8006fe4:	4b15      	ldr	r3, [pc, #84]	; (800703c <vTaskStartScheduler+0xc0>)
 8006fe6:	681b      	ldr	r3, [r3, #0]
 8006fe8:	334c      	adds	r3, #76	; 0x4c
 8006fea:	4a15      	ldr	r2, [pc, #84]	; (8007040 <vTaskStartScheduler+0xc4>)
 8006fec:	6013      	str	r3, [r2, #0]
 8006fee:	4b15      	ldr	r3, [pc, #84]	; (8007044 <vTaskStartScheduler+0xc8>)
 8006ff0:	f04f 32ff 	mov.w	r2, #4294967295
 8006ff4:	601a      	str	r2, [r3, #0]
 8006ff6:	4b14      	ldr	r3, [pc, #80]	; (8007048 <vTaskStartScheduler+0xcc>)
 8006ff8:	2201      	movs	r2, #1
 8006ffa:	601a      	str	r2, [r3, #0]
 8006ffc:	4b13      	ldr	r3, [pc, #76]	; (800704c <vTaskStartScheduler+0xd0>)
 8006ffe:	2200      	movs	r2, #0
 8007000:	601a      	str	r2, [r3, #0]
 8007002:	f000 fbb5 	bl	8007770 <xPortStartScheduler>
 8007006:	e00e      	b.n	8007026 <vTaskStartScheduler+0xaa>
 8007008:	697b      	ldr	r3, [r7, #20]
 800700a:	f1b3 3fff 	cmp.w	r3, #4294967295
 800700e:	d10a      	bne.n	8007026 <vTaskStartScheduler+0xaa>
 8007010:	f04f 0350 	mov.w	r3, #80	; 0x50
 8007014:	f383 8811 	msr	BASEPRI, r3
 8007018:	f3bf 8f6f 	isb	sy
 800701c:	f3bf 8f4f 	dsb	sy
 8007020:	60fb      	str	r3, [r7, #12]
 8007022:	bf00      	nop
 8007024:	e7fe      	b.n	8007024 <vTaskStartScheduler+0xa8>
 8007026:	bf00      	nop
 8007028:	3718      	adds	r7, #24
 800702a:	46bd      	mov	sp, r7
 800702c:	bd80      	pop	{r7, pc}
 800702e:	bf00      	nop
 8007030:	0800810c 	.word	0x0800810c
 8007034:	080073d9 	.word	0x080073d9
 8007038:	200006b4 	.word	0x200006b4
 800703c:	20000590 	.word	0x20000590
 8007040:	2000002c 	.word	0x2000002c
 8007044:	200006b0 	.word	0x200006b0
 8007048:	2000069c 	.word	0x2000069c
 800704c:	20000694 	.word	0x20000694

08007050 <vTaskSuspendAll>:
 8007050:	b480      	push	{r7}
 8007052:	af00      	add	r7, sp, #0
 8007054:	4b04      	ldr	r3, [pc, #16]	; (8007068 <vTaskSuspendAll+0x18>)
 8007056:	681b      	ldr	r3, [r3, #0]
 8007058:	3301      	adds	r3, #1
 800705a:	4a03      	ldr	r2, [pc, #12]	; (8007068 <vTaskSuspendAll+0x18>)
 800705c:	6013      	str	r3, [r2, #0]
 800705e:	bf00      	nop
 8007060:	46bd      	mov	sp, r7
 8007062:	f85d 7b04 	ldr.w	r7, [sp], #4
 8007066:	4770      	bx	lr
 8007068:	200006b8 	.word	0x200006b8

0800706c <xTaskResumeAll>:
 800706c:	b580      	push	{r7, lr}
 800706e:	b084      	sub	sp, #16
 8007070:	af00      	add	r7, sp, #0
 8007072:	2300      	movs	r3, #0
 8007074:	60fb      	str	r3, [r7, #12]
 8007076:	2300      	movs	r3, #0
 8007078:	60bb      	str	r3, [r7, #8]
 800707a:	4b41      	ldr	r3, [pc, #260]	; (8007180 <xTaskResumeAll+0x114>)
 800707c:	681b      	ldr	r3, [r3, #0]
 800707e:	2b00      	cmp	r3, #0
 8007080:	d10a      	bne.n	8007098 <xTaskResumeAll+0x2c>
 8007082:	f04f 0350 	mov.w	r3, #80	; 0x50
 8007086:	f383 8811 	msr	BASEPRI, r3
 800708a:	f3bf 8f6f 	isb	sy
 800708e:	f3bf 8f4f 	dsb	sy
 8007092:	603b      	str	r3, [r7, #0]
 8007094:	bf00      	nop
 8007096:	e7fe      	b.n	8007096 <xTaskResumeAll+0x2a>
 8007098:	f000 fc0c 	bl	80078b4 <vPortEnterCritical>
 800709c:	4b38      	ldr	r3, [pc, #224]	; (8007180 <xTaskResumeAll+0x114>)
 800709e:	681b      	ldr	r3, [r3, #0]
 80070a0:	3b01      	subs	r3, #1
 80070a2:	4a37      	ldr	r2, [pc, #220]	; (8007180 <xTaskResumeAll+0x114>)
 80070a4:	6013      	str	r3, [r2, #0]
 80070a6:	4b36      	ldr	r3, [pc, #216]	; (8007180 <xTaskResumeAll+0x114>)
 80070a8:	681b      	ldr	r3, [r3, #0]
 80070aa:	2b00      	cmp	r3, #0
 80070ac:	d161      	bne.n	8007172 <xTaskResumeAll+0x106>
 80070ae:	4b35      	ldr	r3, [pc, #212]	; (8007184 <xTaskResumeAll+0x118>)
 80070b0:	681b      	ldr	r3, [r3, #0]
 80070b2:	2b00      	cmp	r3, #0
 80070b4:	d05d      	beq.n	8007172 <xTaskResumeAll+0x106>
 80070b6:	e02e      	b.n	8007116 <xTaskResumeAll+0xaa>
 80070b8:	4b33      	ldr	r3, [pc, #204]	; (8007188 <xTaskResumeAll+0x11c>)
 80070ba:	68db      	ldr	r3, [r3, #12]
 80070bc:	68db      	ldr	r3, [r3, #12]
 80070be:	60fb      	str	r3, [r7, #12]
 80070c0:	68fb      	ldr	r3, [r7, #12]
 80070c2:	3318      	adds	r3, #24
 80070c4:	4618      	mov	r0, r3
 80070c6:	f7ff fd50 	bl	8006b6a <uxListRemove>
 80070ca:	68fb      	ldr	r3, [r7, #12]
 80070cc:	3304      	adds	r3, #4
 80070ce:	4618      	mov	r0, r3
 80070d0:	f7ff fd4b 	bl	8006b6a <uxListRemove>
 80070d4:	68fb      	ldr	r3, [r7, #12]
 80070d6:	6adb      	ldr	r3, [r3, #44]	; 0x2c
 80070d8:	2201      	movs	r2, #1
 80070da:	409a      	lsls	r2, r3
 80070dc:	4b2b      	ldr	r3, [pc, #172]	; (800718c <xTaskResumeAll+0x120>)
 80070de:	681b      	ldr	r3, [r3, #0]
 80070e0:	4313      	orrs	r3, r2
 80070e2:	4a2a      	ldr	r2, [pc, #168]	; (800718c <xTaskResumeAll+0x120>)
 80070e4:	6013      	str	r3, [r2, #0]
 80070e6:	68fb      	ldr	r3, [r7, #12]
 80070e8:	6ada      	ldr	r2, [r3, #44]	; 0x2c
 80070ea:	4613      	mov	r3, r2
 80070ec:	009b      	lsls	r3, r3, #2
 80070ee:	4413      	add	r3, r2
 80070f0:	009b      	lsls	r3, r3, #2
 80070f2:	4a27      	ldr	r2, [pc, #156]	; (8007190 <xTaskResumeAll+0x124>)
 80070f4:	441a      	add	r2, r3
 80070f6:	68fb      	ldr	r3, [r7, #12]
 80070f8:	3304      	adds	r3, #4
 80070fa:	4619      	mov	r1, r3
 80070fc:	4610      	mov	r0, r2
 80070fe:	f7ff fcd7 	bl	8006ab0 <vListInsertEnd>
 8007102:	68fb      	ldr	r3, [r7, #12]
 8007104:	6ada      	ldr	r2, [r3, #44]	; 0x2c
 8007106:	4b23      	ldr	r3, [pc, #140]	; (8007194 <xTaskResumeAll+0x128>)
 8007108:	681b      	ldr	r3, [r3, #0]
 800710a:	6adb      	ldr	r3, [r3, #44]	; 0x2c
 800710c:	429a      	cmp	r2, r3
 800710e:	d302      	bcc.n	8007116 <xTaskResumeAll+0xaa>
 8007110:	4b21      	ldr	r3, [pc, #132]	; (8007198 <xTaskResumeAll+0x12c>)
 8007112:	2201      	movs	r2, #1
 8007114:	601a      	str	r2, [r3, #0]
 8007116:	4b1c      	ldr	r3, [pc, #112]	; (8007188 <xTaskResumeAll+0x11c>)
 8007118:	681b      	ldr	r3, [r3, #0]
 800711a:	2b00      	cmp	r3, #0
 800711c:	d1cc      	bne.n	80070b8 <xTaskResumeAll+0x4c>
 800711e:	68fb      	ldr	r3, [r7, #12]
 8007120:	2b00      	cmp	r3, #0
 8007122:	d001      	beq.n	8007128 <xTaskResumeAll+0xbc>
 8007124:	f000 fa12 	bl	800754c <prvResetNextTaskUnblockTime>
 8007128:	4b1c      	ldr	r3, [pc, #112]	; (800719c <xTaskResumeAll+0x130>)
 800712a:	681b      	ldr	r3, [r3, #0]
 800712c:	607b      	str	r3, [r7, #4]
 800712e:	687b      	ldr	r3, [r7, #4]
 8007130:	2b00      	cmp	r3, #0
 8007132:	d010      	beq.n	8007156 <xTaskResumeAll+0xea>
 8007134:	f000 f836 	bl	80071a4 <xTaskIncrementTick>
 8007138:	4603      	mov	r3, r0
 800713a:	2b00      	cmp	r3, #0
 800713c:	d002      	beq.n	8007144 <xTaskResumeAll+0xd8>
 800713e:	4b16      	ldr	r3, [pc, #88]	; (8007198 <xTaskResumeAll+0x12c>)
 8007140:	2201      	movs	r2, #1
 8007142:	601a      	str	r2, [r3, #0]
 8007144:	687b      	ldr	r3, [r7, #4]
 8007146:	3b01      	subs	r3, #1
 8007148:	607b      	str	r3, [r7, #4]
 800714a:	687b      	ldr	r3, [r7, #4]
 800714c:	2b00      	cmp	r3, #0
 800714e:	d1f1      	bne.n	8007134 <xTaskResumeAll+0xc8>
 8007150:	4b12      	ldr	r3, [pc, #72]	; (800719c <xTaskResumeAll+0x130>)
 8007152:	2200      	movs	r2, #0
 8007154:	601a      	str	r2, [r3, #0]
 8007156:	4b10      	ldr	r3, [pc, #64]	; (8007198 <xTaskResumeAll+0x12c>)
 8007158:	681b      	ldr	r3, [r3, #0]
 800715a:	2b00      	cmp	r3, #0
 800715c:	d009      	beq.n	8007172 <xTaskResumeAll+0x106>
 800715e:	2301      	movs	r3, #1
 8007160:	60bb      	str	r3, [r7, #8]
 8007162:	4b0f      	ldr	r3, [pc, #60]	; (80071a0 <xTaskResumeAll+0x134>)
 8007164:	f04f 5280 	mov.w	r2, #268435456	; 0x10000000
 8007168:	601a      	str	r2, [r3, #0]
 800716a:	f3bf 8f4f 	dsb	sy
 800716e:	f3bf 8f6f 	isb	sy
 8007172:	f000 fbcf 	bl	8007914 <vPortExitCritical>
 8007176:	68bb      	ldr	r3, [r7, #8]
 8007178:	4618      	mov	r0, r3
 800717a:	3710      	adds	r7, #16
 800717c:	46bd      	mov	sp, r7
 800717e:	bd80      	pop	{r7, pc}
 8007180:	200006b8 	.word	0x200006b8
 8007184:	20000690 	.word	0x20000690
 8007188:	20000650 	.word	0x20000650
 800718c:	20000698 	.word	0x20000698
 8007190:	20000594 	.word	0x20000594
 8007194:	20000590 	.word	0x20000590
 8007198:	200006a4 	.word	0x200006a4
 800719c:	200006a0 	.word	0x200006a0
 80071a0:	e000ed04 	.word	0xe000ed04

080071a4 <xTaskIncrementTick>:
 80071a4:	b580      	push	{r7, lr}
 80071a6:	b086      	sub	sp, #24
 80071a8:	af00      	add	r7, sp, #0
 80071aa:	2300      	movs	r3, #0
 80071ac:	617b      	str	r3, [r7, #20]
 80071ae:	4b4e      	ldr	r3, [pc, #312]	; (80072e8 <xTaskIncrementTick+0x144>)
 80071b0:	681b      	ldr	r3, [r3, #0]
 80071b2:	2b00      	cmp	r3, #0
 80071b4:	f040 808e 	bne.w	80072d4 <xTaskIncrementTick+0x130>
 80071b8:	4b4c      	ldr	r3, [pc, #304]	; (80072ec <xTaskIncrementTick+0x148>)
 80071ba:	681b      	ldr	r3, [r3, #0]
 80071bc:	3301      	adds	r3, #1
 80071be:	613b      	str	r3, [r7, #16]
 80071c0:	4a4a      	ldr	r2, [pc, #296]	; (80072ec <xTaskIncrementTick+0x148>)
 80071c2:	693b      	ldr	r3, [r7, #16]
 80071c4:	6013      	str	r3, [r2, #0]
 80071c6:	693b      	ldr	r3, [r7, #16]
 80071c8:	2b00      	cmp	r3, #0
 80071ca:	d120      	bne.n	800720e <xTaskIncrementTick+0x6a>
 80071cc:	4b48      	ldr	r3, [pc, #288]	; (80072f0 <xTaskIncrementTick+0x14c>)
 80071ce:	681b      	ldr	r3, [r3, #0]
 80071d0:	681b      	ldr	r3, [r3, #0]
 80071d2:	2b00      	cmp	r3, #0
 80071d4:	d00a      	beq.n	80071ec <xTaskIncrementTick+0x48>
 80071d6:	f04f 0350 	mov.w	r3, #80	; 0x50
 80071da:	f383 8811 	msr	BASEPRI, r3
 80071de:	f3bf 8f6f 	isb	sy
 80071e2:	f3bf 8f4f 	dsb	sy
 80071e6:	603b      	str	r3, [r7, #0]
 80071e8:	bf00      	nop
 80071ea:	e7fe      	b.n	80071ea <xTaskIncrementTick+0x46>
 80071ec:	4b40      	ldr	r3, [pc, #256]	; (80072f0 <xTaskIncrementTick+0x14c>)
 80071ee:	681b      	ldr	r3, [r3, #0]
 80071f0:	60fb      	str	r3, [r7, #12]
 80071f2:	4b40      	ldr	r3, [pc, #256]	; (80072f4 <xTaskIncrementTick+0x150>)
 80071f4:	681b      	ldr	r3, [r3, #0]
 80071f6:	4a3e      	ldr	r2, [pc, #248]	; (80072f0 <xTaskIncrementTick+0x14c>)
 80071f8:	6013      	str	r3, [r2, #0]
 80071fa:	4a3e      	ldr	r2, [pc, #248]	; (80072f4 <xTaskIncrementTick+0x150>)
 80071fc:	68fb      	ldr	r3, [r7, #12]
 80071fe:	6013      	str	r3, [r2, #0]
 8007200:	4b3d      	ldr	r3, [pc, #244]	; (80072f8 <xTaskIncrementTick+0x154>)
 8007202:	681b      	ldr	r3, [r3, #0]
 8007204:	3301      	adds	r3, #1
 8007206:	4a3c      	ldr	r2, [pc, #240]	; (80072f8 <xTaskIncrementTick+0x154>)
 8007208:	6013      	str	r3, [r2, #0]
 800720a:	f000 f99f 	bl	800754c <prvResetNextTaskUnblockTime>
 800720e:	4b3b      	ldr	r3, [pc, #236]	; (80072fc <xTaskIncrementTick+0x158>)
 8007210:	681b      	ldr	r3, [r3, #0]
 8007212:	693a      	ldr	r2, [r7, #16]
 8007214:	429a      	cmp	r2, r3
 8007216:	d348      	bcc.n	80072aa <xTaskIncrementTick+0x106>
 8007218:	4b35      	ldr	r3, [pc, #212]	; (80072f0 <xTaskIncrementTick+0x14c>)
 800721a:	681b      	ldr	r3, [r3, #0]
 800721c:	681b      	ldr	r3, [r3, #0]
 800721e:	2b00      	cmp	r3, #0
 8007220:	d104      	bne.n	800722c <xTaskIncrementTick+0x88>
 8007222:	4b36      	ldr	r3, [pc, #216]	; (80072fc <xTaskIncrementTick+0x158>)
 8007224:	f04f 32ff 	mov.w	r2, #4294967295
 8007228:	601a      	str	r2, [r3, #0]
 800722a:	e03e      	b.n	80072aa <xTaskIncrementTick+0x106>
 800722c:	4b30      	ldr	r3, [pc, #192]	; (80072f0 <xTaskIncrementTick+0x14c>)
 800722e:	681b      	ldr	r3, [r3, #0]
 8007230:	68db      	ldr	r3, [r3, #12]
 8007232:	68db      	ldr	r3, [r3, #12]
 8007234:	60bb      	str	r3, [r7, #8]
 8007236:	68bb      	ldr	r3, [r7, #8]
 8007238:	685b      	ldr	r3, [r3, #4]
 800723a:	607b      	str	r3, [r7, #4]
 800723c:	693a      	ldr	r2, [r7, #16]
 800723e:	687b      	ldr	r3, [r7, #4]
 8007240:	429a      	cmp	r2, r3
 8007242:	d203      	bcs.n	800724c <xTaskIncrementTick+0xa8>
 8007244:	4a2d      	ldr	r2, [pc, #180]	; (80072fc <xTaskIncrementTick+0x158>)
 8007246:	687b      	ldr	r3, [r7, #4]
 8007248:	6013      	str	r3, [r2, #0]
 800724a:	e02e      	b.n	80072aa <xTaskIncrementTick+0x106>
 800724c:	68bb      	ldr	r3, [r7, #8]
 800724e:	3304      	adds	r3, #4
 8007250:	4618      	mov	r0, r3
 8007252:	f7ff fc8a 	bl	8006b6a <uxListRemove>
 8007256:	68bb      	ldr	r3, [r7, #8]
 8007258:	6a9b      	ldr	r3, [r3, #40]	; 0x28
 800725a:	2b00      	cmp	r3, #0
 800725c:	d004      	beq.n	8007268 <xTaskIncrementTick+0xc4>
 800725e:	68bb      	ldr	r3, [r7, #8]
 8007260:	3318      	adds	r3, #24
 8007262:	4618      	mov	r0, r3
 8007264:	f7ff fc81 	bl	8006b6a <uxListRemove>
 8007268:	68bb      	ldr	r3, [r7, #8]
 800726a:	6adb      	ldr	r3, [r3, #44]	; 0x2c
 800726c:	2201      	movs	r2, #1
 800726e:	409a      	lsls	r2, r3
 8007270:	4b23      	ldr	r3, [pc, #140]	; (8007300 <xTaskIncrementTick+0x15c>)
 8007272:	681b      	ldr	r3, [r3, #0]
 8007274:	4313      	orrs	r3, r2
 8007276:	4a22      	ldr	r2, [pc, #136]	; (8007300 <xTaskIncrementTick+0x15c>)
 8007278:	6013      	str	r3, [r2, #0]
 800727a:	68bb      	ldr	r3, [r7, #8]
 800727c:	6ada      	ldr	r2, [r3, #44]	; 0x2c
 800727e:	4613      	mov	r3, r2
 8007280:	009b      	lsls	r3, r3, #2
 8007282:	4413      	add	r3, r2
 8007284:	009b      	lsls	r3, r3, #2
 8007286:	4a1f      	ldr	r2, [pc, #124]	; (8007304 <xTaskIncrementTick+0x160>)
 8007288:	441a      	add	r2, r3
 800728a:	68bb      	ldr	r3, [r7, #8]
 800728c:	3304      	adds	r3, #4
 800728e:	4619      	mov	r1, r3
 8007290:	4610      	mov	r0, r2
 8007292:	f7ff fc0d 	bl	8006ab0 <vListInsertEnd>
 8007296:	68bb      	ldr	r3, [r7, #8]
 8007298:	6ada      	ldr	r2, [r3, #44]	; 0x2c
 800729a:	4b1b      	ldr	r3, [pc, #108]	; (8007308 <xTaskIncrementTick+0x164>)
 800729c:	681b      	ldr	r3, [r3, #0]
 800729e:	6adb      	ldr	r3, [r3, #44]	; 0x2c
 80072a0:	429a      	cmp	r2, r3
 80072a2:	d3b9      	bcc.n	8007218 <xTaskIncrementTick+0x74>
 80072a4:	2301      	movs	r3, #1
 80072a6:	617b      	str	r3, [r7, #20]
 80072a8:	e7b6      	b.n	8007218 <xTaskIncrementTick+0x74>
 80072aa:	4b17      	ldr	r3, [pc, #92]	; (8007308 <xTaskIncrementTick+0x164>)
 80072ac:	681b      	ldr	r3, [r3, #0]
 80072ae:	6ada      	ldr	r2, [r3, #44]	; 0x2c
 80072b0:	4914      	ldr	r1, [pc, #80]	; (8007304 <xTaskIncrementTick+0x160>)
 80072b2:	4613      	mov	r3, r2
 80072b4:	009b      	lsls	r3, r3, #2
 80072b6:	4413      	add	r3, r2
 80072b8:	009b      	lsls	r3, r3, #2
 80072ba:	440b      	add	r3, r1
 80072bc:	681b      	ldr	r3, [r3, #0]
 80072be:	2b01      	cmp	r3, #1
 80072c0:	d901      	bls.n	80072c6 <xTaskIncrementTick+0x122>
 80072c2:	2301      	movs	r3, #1
 80072c4:	617b      	str	r3, [r7, #20]
 80072c6:	4b11      	ldr	r3, [pc, #68]	; (800730c <xTaskIncrementTick+0x168>)
 80072c8:	681b      	ldr	r3, [r3, #0]
 80072ca:	2b00      	cmp	r3, #0
 80072cc:	d007      	beq.n	80072de <xTaskIncrementTick+0x13a>
 80072ce:	2301      	movs	r3, #1
 80072d0:	617b      	str	r3, [r7, #20]
 80072d2:	e004      	b.n	80072de <xTaskIncrementTick+0x13a>
 80072d4:	4b0e      	ldr	r3, [pc, #56]	; (8007310 <xTaskIncrementTick+0x16c>)
 80072d6:	681b      	ldr	r3, [r3, #0]
 80072d8:	3301      	adds	r3, #1
 80072da:	4a0d      	ldr	r2, [pc, #52]	; (8007310 <xTaskIncrementTick+0x16c>)
 80072dc:	6013      	str	r3, [r2, #0]
 80072de:	697b      	ldr	r3, [r7, #20]
 80072e0:	4618      	mov	r0, r3
 80072e2:	3718      	adds	r7, #24
 80072e4:	46bd      	mov	sp, r7
 80072e6:	bd80      	pop	{r7, pc}
 80072e8:	200006b8 	.word	0x200006b8
 80072ec:	20000694 	.word	0x20000694
 80072f0:	20000648 	.word	0x20000648
 80072f4:	2000064c 	.word	0x2000064c
 80072f8:	200006a8 	.word	0x200006a8
 80072fc:	200006b0 	.word	0x200006b0
 8007300:	20000698 	.word	0x20000698
 8007304:	20000594 	.word	0x20000594
 8007308:	20000590 	.word	0x20000590
 800730c:	200006a4 	.word	0x200006a4
 8007310:	200006a0 	.word	0x200006a0

08007314 <vTaskSwitchContext>:
 8007314:	b480      	push	{r7}
 8007316:	b087      	sub	sp, #28
 8007318:	af00      	add	r7, sp, #0
 800731a:	4b29      	ldr	r3, [pc, #164]	; (80073c0 <vTaskSwitchContext+0xac>)
 800731c:	681b      	ldr	r3, [r3, #0]
 800731e:	2b00      	cmp	r3, #0
 8007320:	d003      	beq.n	800732a <vTaskSwitchContext+0x16>
 8007322:	4b28      	ldr	r3, [pc, #160]	; (80073c4 <vTaskSwitchContext+0xb0>)
 8007324:	2201      	movs	r2, #1
 8007326:	601a      	str	r2, [r3, #0]
 8007328:	e044      	b.n	80073b4 <vTaskSwitchContext+0xa0>
 800732a:	4b26      	ldr	r3, [pc, #152]	; (80073c4 <vTaskSwitchContext+0xb0>)
 800732c:	2200      	movs	r2, #0
 800732e:	601a      	str	r2, [r3, #0]
 8007330:	4b25      	ldr	r3, [pc, #148]	; (80073c8 <vTaskSwitchContext+0xb4>)
 8007332:	681b      	ldr	r3, [r3, #0]
 8007334:	60fb      	str	r3, [r7, #12]
 8007336:	68fb      	ldr	r3, [r7, #12]
 8007338:	fab3 f383 	clz	r3, r3
 800733c:	72fb      	strb	r3, [r7, #11]
 800733e:	7afb      	ldrb	r3, [r7, #11]
 8007340:	f1c3 031f 	rsb	r3, r3, #31
 8007344:	617b      	str	r3, [r7, #20]
 8007346:	4921      	ldr	r1, [pc, #132]	; (80073cc <vTaskSwitchContext+0xb8>)
 8007348:	697a      	ldr	r2, [r7, #20]
 800734a:	4613      	mov	r3, r2
 800734c:	009b      	lsls	r3, r3, #2
 800734e:	4413      	add	r3, r2
 8007350:	009b      	lsls	r3, r3, #2
 8007352:	440b      	add	r3, r1
 8007354:	681b      	ldr	r3, [r3, #0]
 8007356:	2b00      	cmp	r3, #0
 8007358:	d10a      	bne.n	8007370 <vTaskSwitchContext+0x5c>
 800735a:	f04f 0350 	mov.w	r3, #80	; 0x50
 800735e:	f383 8811 	msr	BASEPRI, r3
 8007362:	f3bf 8f6f 	isb	sy
 8007366:	f3bf 8f4f 	dsb	sy
 800736a:	607b      	str	r3, [r7, #4]
 800736c:	bf00      	nop
 800736e:	e7fe      	b.n	800736e <vTaskSwitchContext+0x5a>
 8007370:	697a      	ldr	r2, [r7, #20]
 8007372:	4613      	mov	r3, r2
 8007374:	009b      	lsls	r3, r3, #2
 8007376:	4413      	add	r3, r2
 8007378:	009b      	lsls	r3, r3, #2
 800737a:	4a14      	ldr	r2, [pc, #80]	; (80073cc <vTaskSwitchContext+0xb8>)
 800737c:	4413      	add	r3, r2
 800737e:	613b      	str	r3, [r7, #16]
 8007380:	693b      	ldr	r3, [r7, #16]
 8007382:	685b      	ldr	r3, [r3, #4]
 8007384:	685a      	ldr	r2, [r3, #4]
 8007386:	693b      	ldr	r3, [r7, #16]
 8007388:	605a      	str	r2, [r3, #4]
 800738a:	693b      	ldr	r3, [r7, #16]
 800738c:	685a      	ldr	r2, [r3, #4]
 800738e:	693b      	ldr	r3, [r7, #16]
 8007390:	3308      	adds	r3, #8
 8007392:	429a      	cmp	r2, r3
 8007394:	d104      	bne.n	80073a0 <vTaskSwitchContext+0x8c>
 8007396:	693b      	ldr	r3, [r7, #16]
 8007398:	685b      	ldr	r3, [r3, #4]
 800739a:	685a      	ldr	r2, [r3, #4]
 800739c:	693b      	ldr	r3, [r7, #16]
 800739e:	605a      	str	r2, [r3, #4]
 80073a0:	693b      	ldr	r3, [r7, #16]
 80073a2:	685b      	ldr	r3, [r3, #4]
 80073a4:	68db      	ldr	r3, [r3, #12]
 80073a6:	4a0a      	ldr	r2, [pc, #40]	; (80073d0 <vTaskSwitchContext+0xbc>)
 80073a8:	6013      	str	r3, [r2, #0]
 80073aa:	4b09      	ldr	r3, [pc, #36]	; (80073d0 <vTaskSwitchContext+0xbc>)
 80073ac:	681b      	ldr	r3, [r3, #0]
 80073ae:	334c      	adds	r3, #76	; 0x4c
 80073b0:	4a08      	ldr	r2, [pc, #32]	; (80073d4 <vTaskSwitchContext+0xc0>)
 80073b2:	6013      	str	r3, [r2, #0]
 80073b4:	bf00      	nop
 80073b6:	371c      	adds	r7, #28
 80073b8:	46bd      	mov	sp, r7
 80073ba:	f85d 7b04 	ldr.w	r7, [sp], #4
 80073be:	4770      	bx	lr
 80073c0:	200006b8 	.word	0x200006b8
 80073c4:	200006a4 	.word	0x200006a4
 80073c8:	20000698 	.word	0x20000698
 80073cc:	20000594 	.word	0x20000594
 80073d0:	20000590 	.word	0x20000590
 80073d4:	2000002c 	.word	0x2000002c

080073d8 <prvIdleTask>:
 80073d8:	b580      	push	{r7, lr}
 80073da:	b082      	sub	sp, #8
 80073dc:	af00      	add	r7, sp, #0
 80073de:	6078      	str	r0, [r7, #4]
 80073e0:	f000 f852 	bl	8007488 <prvCheckTasksWaitingTermination>
 80073e4:	4b06      	ldr	r3, [pc, #24]	; (8007400 <prvIdleTask+0x28>)
 80073e6:	681b      	ldr	r3, [r3, #0]
 80073e8:	2b01      	cmp	r3, #1
 80073ea:	d9f9      	bls.n	80073e0 <prvIdleTask+0x8>
 80073ec:	4b05      	ldr	r3, [pc, #20]	; (8007404 <prvIdleTask+0x2c>)
 80073ee:	f04f 5280 	mov.w	r2, #268435456	; 0x10000000
 80073f2:	601a      	str	r2, [r3, #0]
 80073f4:	f3bf 8f4f 	dsb	sy
 80073f8:	f3bf 8f6f 	isb	sy
 80073fc:	e7f0      	b.n	80073e0 <prvIdleTask+0x8>
 80073fe:	bf00      	nop
 8007400:	20000594 	.word	0x20000594
 8007404:	e000ed04 	.word	0xe000ed04

08007408 <prvInitialiseTaskLists>:
 8007408:	b580      	push	{r7, lr}
 800740a:	b082      	sub	sp, #8
 800740c:	af00      	add	r7, sp, #0
 800740e:	2300      	movs	r3, #0
 8007410:	607b      	str	r3, [r7, #4]
 8007412:	e00c      	b.n	800742e <prvInitialiseTaskLists+0x26>
 8007414:	687a      	ldr	r2, [r7, #4]
 8007416:	4613      	mov	r3, r2
 8007418:	009b      	lsls	r3, r3, #2
 800741a:	4413      	add	r3, r2
 800741c:	009b      	lsls	r3, r3, #2
 800741e:	4a12      	ldr	r2, [pc, #72]	; (8007468 <prvInitialiseTaskLists+0x60>)
 8007420:	4413      	add	r3, r2
 8007422:	4618      	mov	r0, r3
 8007424:	f7ff fb17 	bl	8006a56 <vListInitialise>
 8007428:	687b      	ldr	r3, [r7, #4]
 800742a:	3301      	adds	r3, #1
 800742c:	607b      	str	r3, [r7, #4]
 800742e:	687b      	ldr	r3, [r7, #4]
 8007430:	2b06      	cmp	r3, #6
 8007432:	d9ef      	bls.n	8007414 <prvInitialiseTaskLists+0xc>
 8007434:	480d      	ldr	r0, [pc, #52]	; (800746c <prvInitialiseTaskLists+0x64>)
 8007436:	f7ff fb0e 	bl	8006a56 <vListInitialise>
 800743a:	480d      	ldr	r0, [pc, #52]	; (8007470 <prvInitialiseTaskLists+0x68>)
 800743c:	f7ff fb0b 	bl	8006a56 <vListInitialise>
 8007440:	480c      	ldr	r0, [pc, #48]	; (8007474 <prvInitialiseTaskLists+0x6c>)
 8007442:	f7ff fb08 	bl	8006a56 <vListInitialise>
 8007446:	480c      	ldr	r0, [pc, #48]	; (8007478 <prvInitialiseTaskLists+0x70>)
 8007448:	f7ff fb05 	bl	8006a56 <vListInitialise>
 800744c:	480b      	ldr	r0, [pc, #44]	; (800747c <prvInitialiseTaskLists+0x74>)
 800744e:	f7ff fb02 	bl	8006a56 <vListInitialise>
 8007452:	4b0b      	ldr	r3, [pc, #44]	; (8007480 <prvInitialiseTaskLists+0x78>)
 8007454:	4a05      	ldr	r2, [pc, #20]	; (800746c <prvInitialiseTaskLists+0x64>)
 8007456:	601a      	str	r2, [r3, #0]
 8007458:	4b0a      	ldr	r3, [pc, #40]	; (8007484 <prvInitialiseTaskLists+0x7c>)
 800745a:	4a05      	ldr	r2, [pc, #20]	; (8007470 <prvInitialiseTaskLists+0x68>)
 800745c:	601a      	str	r2, [r3, #0]
 800745e:	bf00      	nop
 8007460:	3708      	adds	r7, #8
 8007462:	46bd      	mov	sp, r7
 8007464:	bd80      	pop	{r7, pc}
 8007466:	bf00      	nop
 8007468:	20000594 	.word	0x20000594
 800746c:	20000620 	.word	0x20000620
 8007470:	20000634 	.word	0x20000634
 8007474:	20000650 	.word	0x20000650
 8007478:	20000664 	.word	0x20000664
 800747c:	2000067c 	.word	0x2000067c
 8007480:	20000648 	.word	0x20000648
 8007484:	2000064c 	.word	0x2000064c

08007488 <prvCheckTasksWaitingTermination>:
 8007488:	b580      	push	{r7, lr}
 800748a:	b082      	sub	sp, #8
 800748c:	af00      	add	r7, sp, #0
 800748e:	e019      	b.n	80074c4 <prvCheckTasksWaitingTermination+0x3c>
 8007490:	f000 fa10 	bl	80078b4 <vPortEnterCritical>
 8007494:	4b10      	ldr	r3, [pc, #64]	; (80074d8 <prvCheckTasksWaitingTermination+0x50>)
 8007496:	68db      	ldr	r3, [r3, #12]
 8007498:	68db      	ldr	r3, [r3, #12]
 800749a:	607b      	str	r3, [r7, #4]
 800749c:	687b      	ldr	r3, [r7, #4]
 800749e:	3304      	adds	r3, #4
 80074a0:	4618      	mov	r0, r3
 80074a2:	f7ff fb62 	bl	8006b6a <uxListRemove>
 80074a6:	4b0d      	ldr	r3, [pc, #52]	; (80074dc <prvCheckTasksWaitingTermination+0x54>)
 80074a8:	681b      	ldr	r3, [r3, #0]
 80074aa:	3b01      	subs	r3, #1
 80074ac:	4a0b      	ldr	r2, [pc, #44]	; (80074dc <prvCheckTasksWaitingTermination+0x54>)
 80074ae:	6013      	str	r3, [r2, #0]
 80074b0:	4b0b      	ldr	r3, [pc, #44]	; (80074e0 <prvCheckTasksWaitingTermination+0x58>)
 80074b2:	681b      	ldr	r3, [r3, #0]
 80074b4:	3b01      	subs	r3, #1
 80074b6:	4a0a      	ldr	r2, [pc, #40]	; (80074e0 <prvCheckTasksWaitingTermination+0x58>)
 80074b8:	6013      	str	r3, [r2, #0]
 80074ba:	f000 fa2b 	bl	8007914 <vPortExitCritical>
 80074be:	6878      	ldr	r0, [r7, #4]
 80074c0:	f000 f810 	bl	80074e4 <prvDeleteTCB>
 80074c4:	4b06      	ldr	r3, [pc, #24]	; (80074e0 <prvCheckTasksWaitingTermination+0x58>)
 80074c6:	681b      	ldr	r3, [r3, #0]
 80074c8:	2b00      	cmp	r3, #0
 80074ca:	d1e1      	bne.n	8007490 <prvCheckTasksWaitingTermination+0x8>
 80074cc:	bf00      	nop
 80074ce:	bf00      	nop
 80074d0:	3708      	adds	r7, #8
 80074d2:	46bd      	mov	sp, r7
 80074d4:	bd80      	pop	{r7, pc}
 80074d6:	bf00      	nop
 80074d8:	20000664 	.word	0x20000664
 80074dc:	20000690 	.word	0x20000690
 80074e0:	20000678 	.word	0x20000678

080074e4 <prvDeleteTCB>:
 80074e4:	b580      	push	{r7, lr}
 80074e6:	b084      	sub	sp, #16
 80074e8:	af00      	add	r7, sp, #0
 80074ea:	6078      	str	r0, [r7, #4]
 80074ec:	687b      	ldr	r3, [r7, #4]
 80074ee:	334c      	adds	r3, #76	; 0x4c
 80074f0:	4618      	mov	r0, r3
 80074f2:	f000 fce7 	bl	8007ec4 <_reclaim_reent>
 80074f6:	687b      	ldr	r3, [r7, #4]
 80074f8:	f893 30b1 	ldrb.w	r3, [r3, #177]	; 0xb1
 80074fc:	2b00      	cmp	r3, #0
 80074fe:	d108      	bne.n	8007512 <prvDeleteTCB+0x2e>
 8007500:	687b      	ldr	r3, [r7, #4]
 8007502:	6b1b      	ldr	r3, [r3, #48]	; 0x30
 8007504:	4618      	mov	r0, r3
 8007506:	f000 fb83 	bl	8007c10 <vPortFree>
 800750a:	6878      	ldr	r0, [r7, #4]
 800750c:	f000 fb80 	bl	8007c10 <vPortFree>
 8007510:	e018      	b.n	8007544 <prvDeleteTCB+0x60>
 8007512:	687b      	ldr	r3, [r7, #4]
 8007514:	f893 30b1 	ldrb.w	r3, [r3, #177]	; 0xb1
 8007518:	2b01      	cmp	r3, #1
 800751a:	d103      	bne.n	8007524 <prvDeleteTCB+0x40>
 800751c:	6878      	ldr	r0, [r7, #4]
 800751e:	f000 fb77 	bl	8007c10 <vPortFree>
 8007522:	e00f      	b.n	8007544 <prvDeleteTCB+0x60>
 8007524:	687b      	ldr	r3, [r7, #4]
 8007526:	f893 30b1 	ldrb.w	r3, [r3, #177]	; 0xb1
 800752a:	2b02      	cmp	r3, #2
 800752c:	d00a      	beq.n	8007544 <prvDeleteTCB+0x60>
 800752e:	f04f 0350 	mov.w	r3, #80	; 0x50
 8007532:	f383 8811 	msr	BASEPRI, r3
 8007536:	f3bf 8f6f 	isb	sy
 800753a:	f3bf 8f4f 	dsb	sy
 800753e:	60fb      	str	r3, [r7, #12]
 8007540:	bf00      	nop
 8007542:	e7fe      	b.n	8007542 <prvDeleteTCB+0x5e>
 8007544:	bf00      	nop
 8007546:	3710      	adds	r7, #16
 8007548:	46bd      	mov	sp, r7
 800754a:	bd80      	pop	{r7, pc}

0800754c <prvResetNextTaskUnblockTime>:
 800754c:	b480      	push	{r7}
 800754e:	b083      	sub	sp, #12
 8007550:	af00      	add	r7, sp, #0
 8007552:	4b0c      	ldr	r3, [pc, #48]	; (8007584 <prvResetNextTaskUnblockTime+0x38>)
 8007554:	681b      	ldr	r3, [r3, #0]
 8007556:	681b      	ldr	r3, [r3, #0]
 8007558:	2b00      	cmp	r3, #0
 800755a:	d104      	bne.n	8007566 <prvResetNextTaskUnblockTime+0x1a>
 800755c:	4b0a      	ldr	r3, [pc, #40]	; (8007588 <prvResetNextTaskUnblockTime+0x3c>)
 800755e:	f04f 32ff 	mov.w	r2, #4294967295
 8007562:	601a      	str	r2, [r3, #0]
 8007564:	e008      	b.n	8007578 <prvResetNextTaskUnblockTime+0x2c>
 8007566:	4b07      	ldr	r3, [pc, #28]	; (8007584 <prvResetNextTaskUnblockTime+0x38>)
 8007568:	681b      	ldr	r3, [r3, #0]
 800756a:	68db      	ldr	r3, [r3, #12]
 800756c:	68db      	ldr	r3, [r3, #12]
 800756e:	607b      	str	r3, [r7, #4]
 8007570:	687b      	ldr	r3, [r7, #4]
 8007572:	685b      	ldr	r3, [r3, #4]
 8007574:	4a04      	ldr	r2, [pc, #16]	; (8007588 <prvResetNextTaskUnblockTime+0x3c>)
 8007576:	6013      	str	r3, [r2, #0]
 8007578:	bf00      	nop
 800757a:	370c      	adds	r7, #12
 800757c:	46bd      	mov	sp, r7
 800757e:	f85d 7b04 	ldr.w	r7, [sp], #4
 8007582:	4770      	bx	lr
 8007584:	20000648 	.word	0x20000648
 8007588:	200006b0 	.word	0x200006b0

0800758c <prvAddCurrentTaskToDelayedList>:
 800758c:	b580      	push	{r7, lr}
 800758e:	b084      	sub	sp, #16
 8007590:	af00      	add	r7, sp, #0
 8007592:	6078      	str	r0, [r7, #4]
 8007594:	6039      	str	r1, [r7, #0]
 8007596:	4b29      	ldr	r3, [pc, #164]	; (800763c <prvAddCurrentTaskToDelayedList+0xb0>)
 8007598:	681b      	ldr	r3, [r3, #0]
 800759a:	60fb      	str	r3, [r7, #12]
 800759c:	4b28      	ldr	r3, [pc, #160]	; (8007640 <prvAddCurrentTaskToDelayedList+0xb4>)
 800759e:	681b      	ldr	r3, [r3, #0]
 80075a0:	3304      	adds	r3, #4
 80075a2:	4618      	mov	r0, r3
 80075a4:	f7ff fae1 	bl	8006b6a <uxListRemove>
 80075a8:	4603      	mov	r3, r0
 80075aa:	2b00      	cmp	r3, #0
 80075ac:	d10b      	bne.n	80075c6 <prvAddCurrentTaskToDelayedList+0x3a>
 80075ae:	4b24      	ldr	r3, [pc, #144]	; (8007640 <prvAddCurrentTaskToDelayedList+0xb4>)
 80075b0:	681b      	ldr	r3, [r3, #0]
 80075b2:	6adb      	ldr	r3, [r3, #44]	; 0x2c
 80075b4:	2201      	movs	r2, #1
 80075b6:	fa02 f303 	lsl.w	r3, r2, r3
 80075ba:	43da      	mvns	r2, r3
 80075bc:	4b21      	ldr	r3, [pc, #132]	; (8007644 <prvAddCurrentTaskToDelayedList+0xb8>)
 80075be:	681b      	ldr	r3, [r3, #0]
 80075c0:	4013      	ands	r3, r2
 80075c2:	4a20      	ldr	r2, [pc, #128]	; (8007644 <prvAddCurrentTaskToDelayedList+0xb8>)
 80075c4:	6013      	str	r3, [r2, #0]
 80075c6:	687b      	ldr	r3, [r7, #4]
 80075c8:	f1b3 3fff 	cmp.w	r3, #4294967295
 80075cc:	d10a      	bne.n	80075e4 <prvAddCurrentTaskToDelayedList+0x58>
 80075ce:	683b      	ldr	r3, [r7, #0]
 80075d0:	2b00      	cmp	r3, #0
 80075d2:	d007      	beq.n	80075e4 <prvAddCurrentTaskToDelayedList+0x58>
 80075d4:	4b1a      	ldr	r3, [pc, #104]	; (8007640 <prvAddCurrentTaskToDelayedList+0xb4>)
 80075d6:	681b      	ldr	r3, [r3, #0]
 80075d8:	3304      	adds	r3, #4
 80075da:	4619      	mov	r1, r3
 80075dc:	481a      	ldr	r0, [pc, #104]	; (8007648 <prvAddCurrentTaskToDelayedList+0xbc>)
 80075de:	f7ff fa67 	bl	8006ab0 <vListInsertEnd>
 80075e2:	e026      	b.n	8007632 <prvAddCurrentTaskToDelayedList+0xa6>
 80075e4:	68fa      	ldr	r2, [r7, #12]
 80075e6:	687b      	ldr	r3, [r7, #4]
 80075e8:	4413      	add	r3, r2
 80075ea:	60bb      	str	r3, [r7, #8]
 80075ec:	4b14      	ldr	r3, [pc, #80]	; (8007640 <prvAddCurrentTaskToDelayedList+0xb4>)
 80075ee:	681b      	ldr	r3, [r3, #0]
 80075f0:	68ba      	ldr	r2, [r7, #8]
 80075f2:	605a      	str	r2, [r3, #4]
 80075f4:	68ba      	ldr	r2, [r7, #8]
 80075f6:	68fb      	ldr	r3, [r7, #12]
 80075f8:	429a      	cmp	r2, r3
 80075fa:	d209      	bcs.n	8007610 <prvAddCurrentTaskToDelayedList+0x84>
 80075fc:	4b13      	ldr	r3, [pc, #76]	; (800764c <prvAddCurrentTaskToDelayedList+0xc0>)
 80075fe:	681a      	ldr	r2, [r3, #0]
 8007600:	4b0f      	ldr	r3, [pc, #60]	; (8007640 <prvAddCurrentTaskToDelayedList+0xb4>)
 8007602:	681b      	ldr	r3, [r3, #0]
 8007604:	3304      	adds	r3, #4
 8007606:	4619      	mov	r1, r3
 8007608:	4610      	mov	r0, r2
 800760a:	f7ff fa75 	bl	8006af8 <vListInsert>
 800760e:	e010      	b.n	8007632 <prvAddCurrentTaskToDelayedList+0xa6>
 8007610:	4b0f      	ldr	r3, [pc, #60]	; (8007650 <prvAddCurrentTaskToDelayedList+0xc4>)
 8007612:	681a      	ldr	r2, [r3, #0]
 8007614:	4b0a      	ldr	r3, [pc, #40]	; (8007640 <prvAddCurrentTaskToDelayedList+0xb4>)
 8007616:	681b      	ldr	r3, [r3, #0]
 8007618:	3304      	adds	r3, #4
 800761a:	4619      	mov	r1, r3
 800761c:	4610      	mov	r0, r2
 800761e:	f7ff fa6b 	bl	8006af8 <vListInsert>
 8007622:	4b0c      	ldr	r3, [pc, #48]	; (8007654 <prvAddCurrentTaskToDelayedList+0xc8>)
 8007624:	681b      	ldr	r3, [r3, #0]
 8007626:	68ba      	ldr	r2, [r7, #8]
 8007628:	429a      	cmp	r2, r3
 800762a:	d202      	bcs.n	8007632 <prvAddCurrentTaskToDelayedList+0xa6>
 800762c:	4a09      	ldr	r2, [pc, #36]	; (8007654 <prvAddCurrentTaskToDelayedList+0xc8>)
 800762e:	68bb      	ldr	r3, [r7, #8]
 8007630:	6013      	str	r3, [r2, #0]
 8007632:	bf00      	nop
 8007634:	3710      	adds	r7, #16
 8007636:	46bd      	mov	sp, r7
 8007638:	bd80      	pop	{r7, pc}
 800763a:	bf00      	nop
 800763c:	20000694 	.word	0x20000694
 8007640:	20000590 	.word	0x20000590
 8007644:	20000698 	.word	0x20000698
 8007648:	2000067c 	.word	0x2000067c
 800764c:	2000064c 	.word	0x2000064c
 8007650:	20000648 	.word	0x20000648
 8007654:	200006b0 	.word	0x200006b0

08007658 <pxPortInitialiseStack>:
 8007658:	b480      	push	{r7}
 800765a:	b085      	sub	sp, #20
 800765c:	af00      	add	r7, sp, #0
 800765e:	60f8      	str	r0, [r7, #12]
 8007660:	60b9      	str	r1, [r7, #8]
 8007662:	607a      	str	r2, [r7, #4]
 8007664:	68fb      	ldr	r3, [r7, #12]
 8007666:	3b04      	subs	r3, #4
 8007668:	60fb      	str	r3, [r7, #12]
 800766a:	68fb      	ldr	r3, [r7, #12]
 800766c:	f04f 7280 	mov.w	r2, #16777216	; 0x1000000
 8007670:	601a      	str	r2, [r3, #0]
 8007672:	68fb      	ldr	r3, [r7, #12]
 8007674:	3b04      	subs	r3, #4
 8007676:	60fb      	str	r3, [r7, #12]
 8007678:	68bb      	ldr	r3, [r7, #8]
 800767a:	f023 0201 	bic.w	r2, r3, #1
 800767e:	68fb      	ldr	r3, [r7, #12]
 8007680:	601a      	str	r2, [r3, #0]
 8007682:	68fb      	ldr	r3, [r7, #12]
 8007684:	3b04      	subs	r3, #4
 8007686:	60fb      	str	r3, [r7, #12]
 8007688:	4a0c      	ldr	r2, [pc, #48]	; (80076bc <pxPortInitialiseStack+0x64>)
 800768a:	68fb      	ldr	r3, [r7, #12]
 800768c:	601a      	str	r2, [r3, #0]
 800768e:	68fb      	ldr	r3, [r7, #12]
 8007690:	3b14      	subs	r3, #20
 8007692:	60fb      	str	r3, [r7, #12]
 8007694:	687a      	ldr	r2, [r7, #4]
 8007696:	68fb      	ldr	r3, [r7, #12]
 8007698:	601a      	str	r2, [r3, #0]
 800769a:	68fb      	ldr	r3, [r7, #12]
 800769c:	3b04      	subs	r3, #4
 800769e:	60fb      	str	r3, [r7, #12]
 80076a0:	68fb      	ldr	r3, [r7, #12]
 80076a2:	f06f 0202 	mvn.w	r2, #2
 80076a6:	601a      	str	r2, [r3, #0]
 80076a8:	68fb      	ldr	r3, [r7, #12]
 80076aa:	3b20      	subs	r3, #32
 80076ac:	60fb      	str	r3, [r7, #12]
 80076ae:	68fb      	ldr	r3, [r7, #12]
 80076b0:	4618      	mov	r0, r3
 80076b2:	3714      	adds	r7, #20
 80076b4:	46bd      	mov	sp, r7
 80076b6:	f85d 7b04 	ldr.w	r7, [sp], #4
 80076ba:	4770      	bx	lr
 80076bc:	080076c1 	.word	0x080076c1

080076c0 <prvTaskExitError>:
 80076c0:	b480      	push	{r7}
 80076c2:	b085      	sub	sp, #20
 80076c4:	af00      	add	r7, sp, #0
 80076c6:	2300      	movs	r3, #0
 80076c8:	607b      	str	r3, [r7, #4]
 80076ca:	4b12      	ldr	r3, [pc, #72]	; (8007714 <prvTaskExitError+0x54>)
 80076cc:	681b      	ldr	r3, [r3, #0]
 80076ce:	f1b3 3fff 	cmp.w	r3, #4294967295
 80076d2:	d00a      	beq.n	80076ea <prvTaskExitError+0x2a>
 80076d4:	f04f 0350 	mov.w	r3, #80	; 0x50
 80076d8:	f383 8811 	msr	BASEPRI, r3
 80076dc:	f3bf 8f6f 	isb	sy
 80076e0:	f3bf 8f4f 	dsb	sy
 80076e4:	60fb      	str	r3, [r7, #12]
 80076e6:	bf00      	nop
 80076e8:	e7fe      	b.n	80076e8 <prvTaskExitError+0x28>
 80076ea:	f04f 0350 	mov.w	r3, #80	; 0x50
 80076ee:	f383 8811 	msr	BASEPRI, r3
 80076f2:	f3bf 8f6f 	isb	sy
 80076f6:	f3bf 8f4f 	dsb	sy
 80076fa:	60bb      	str	r3, [r7, #8]
 80076fc:	bf00      	nop
 80076fe:	bf00      	nop
 8007700:	687b      	ldr	r3, [r7, #4]
 8007702:	2b00      	cmp	r3, #0
 8007704:	d0fc      	beq.n	8007700 <prvTaskExitError+0x40>
 8007706:	bf00      	nop
 8007708:	bf00      	nop
 800770a:	3714      	adds	r7, #20
 800770c:	46bd      	mov	sp, r7
 800770e:	f85d 7b04 	ldr.w	r7, [sp], #4
 8007712:	4770      	bx	lr
 8007714:	20000028 	.word	0x20000028
	...

08007720 <SVC_Handler>:
 8007720:	4b07      	ldr	r3, [pc, #28]	; (8007740 <pxCurrentTCBConst2>)
 8007722:	6819      	ldr	r1, [r3, #0]
 8007724:	6808      	ldr	r0, [r1, #0]
 8007726:	e8b0 4ff0 	ldmia.w	r0!, {r4, r5, r6, r7, r8, r9, sl, fp, lr}
 800772a:	f380 8809 	msr	PSP, r0
 800772e:	f3bf 8f6f 	isb	sy
 8007732:	f04f 0000 	mov.w	r0, #0
 8007736:	f380 8811 	msr	BASEPRI, r0
 800773a:	4770      	bx	lr
 800773c:	f3af 8000 	nop.w

08007740 <pxCurrentTCBConst2>:
 8007740:	20000590 	.word	0x20000590
 8007744:	bf00      	nop
 8007746:	bf00      	nop

08007748 <prvPortStartFirstTask>:
 8007748:	4808      	ldr	r0, [pc, #32]	; (800776c <prvPortStartFirstTask+0x24>)
 800774a:	6800      	ldr	r0, [r0, #0]
 800774c:	6800      	ldr	r0, [r0, #0]
 800774e:	f380 8808 	msr	MSP, r0
 8007752:	f04f 0000 	mov.w	r0, #0
 8007756:	f380 8814 	msr	CONTROL, r0
 800775a:	b662      	cpsie	i
 800775c:	b661      	cpsie	f
 800775e:	f3bf 8f4f 	dsb	sy
 8007762:	f3bf 8f6f 	isb	sy
 8007766:	df00      	svc	0
 8007768:	bf00      	nop
 800776a:	bf00      	nop
 800776c:	e000ed08 	.word	0xe000ed08

08007770 <xPortStartScheduler>:
 8007770:	b580      	push	{r7, lr}
 8007772:	b086      	sub	sp, #24
 8007774:	af00      	add	r7, sp, #0
 8007776:	4b46      	ldr	r3, [pc, #280]	; (8007890 <xPortStartScheduler+0x120>)
 8007778:	681b      	ldr	r3, [r3, #0]
 800777a:	4a46      	ldr	r2, [pc, #280]	; (8007894 <xPortStartScheduler+0x124>)
 800777c:	4293      	cmp	r3, r2
 800777e:	d10a      	bne.n	8007796 <xPortStartScheduler+0x26>
 8007780:	f04f 0350 	mov.w	r3, #80	; 0x50
 8007784:	f383 8811 	msr	BASEPRI, r3
 8007788:	f3bf 8f6f 	isb	sy
 800778c:	f3bf 8f4f 	dsb	sy
 8007790:	613b      	str	r3, [r7, #16]
 8007792:	bf00      	nop
 8007794:	e7fe      	b.n	8007794 <xPortStartScheduler+0x24>
 8007796:	4b3e      	ldr	r3, [pc, #248]	; (8007890 <xPortStartScheduler+0x120>)
 8007798:	681b      	ldr	r3, [r3, #0]
 800779a:	4a3f      	ldr	r2, [pc, #252]	; (8007898 <xPortStartScheduler+0x128>)
 800779c:	4293      	cmp	r3, r2
 800779e:	d10a      	bne.n	80077b6 <xPortStartScheduler+0x46>
 80077a0:	f04f 0350 	mov.w	r3, #80	; 0x50
 80077a4:	f383 8811 	msr	BASEPRI, r3
 80077a8:	f3bf 8f6f 	isb	sy
 80077ac:	f3bf 8f4f 	dsb	sy
 80077b0:	60fb      	str	r3, [r7, #12]
 80077b2:	bf00      	nop
 80077b4:	e7fe      	b.n	80077b4 <xPortStartScheduler+0x44>
 80077b6:	4b39      	ldr	r3, [pc, #228]	; (800789c <xPortStartScheduler+0x12c>)
 80077b8:	617b      	str	r3, [r7, #20]
 80077ba:	697b      	ldr	r3, [r7, #20]
 80077bc:	781b      	ldrb	r3, [r3, #0]
 80077be:	b2db      	uxtb	r3, r3
 80077c0:	607b      	str	r3, [r7, #4]
 80077c2:	697b      	ldr	r3, [r7, #20]
 80077c4:	22ff      	movs	r2, #255	; 0xff
 80077c6:	701a      	strb	r2, [r3, #0]
 80077c8:	697b      	ldr	r3, [r7, #20]
 80077ca:	781b      	ldrb	r3, [r3, #0]
 80077cc:	b2db      	uxtb	r3, r3
 80077ce:	70fb      	strb	r3, [r7, #3]
 80077d0:	78fb      	ldrb	r3, [r7, #3]
 80077d2:	b2db      	uxtb	r3, r3
 80077d4:	f003 0350 	and.w	r3, r3, #80	; 0x50
 80077d8:	b2da      	uxtb	r2, r3
 80077da:	4b31      	ldr	r3, [pc, #196]	; (80078a0 <xPortStartScheduler+0x130>)
 80077dc:	701a      	strb	r2, [r3, #0]
 80077de:	4b31      	ldr	r3, [pc, #196]	; (80078a4 <xPortStartScheduler+0x134>)
 80077e0:	2207      	movs	r2, #7
 80077e2:	601a      	str	r2, [r3, #0]
 80077e4:	e009      	b.n	80077fa <xPortStartScheduler+0x8a>
 80077e6:	4b2f      	ldr	r3, [pc, #188]	; (80078a4 <xPortStartScheduler+0x134>)
 80077e8:	681b      	ldr	r3, [r3, #0]
 80077ea:	3b01      	subs	r3, #1
 80077ec:	4a2d      	ldr	r2, [pc, #180]	; (80078a4 <xPortStartScheduler+0x134>)
 80077ee:	6013      	str	r3, [r2, #0]
 80077f0:	78fb      	ldrb	r3, [r7, #3]
 80077f2:	b2db      	uxtb	r3, r3
 80077f4:	005b      	lsls	r3, r3, #1
 80077f6:	b2db      	uxtb	r3, r3
 80077f8:	70fb      	strb	r3, [r7, #3]
 80077fa:	78fb      	ldrb	r3, [r7, #3]
 80077fc:	b2db      	uxtb	r3, r3
 80077fe:	f003 0380 	and.w	r3, r3, #128	; 0x80
 8007802:	2b80      	cmp	r3, #128	; 0x80
 8007804:	d0ef      	beq.n	80077e6 <xPortStartScheduler+0x76>
 8007806:	4b27      	ldr	r3, [pc, #156]	; (80078a4 <xPortStartScheduler+0x134>)
 8007808:	681b      	ldr	r3, [r3, #0]
 800780a:	f1c3 0307 	rsb	r3, r3, #7
 800780e:	2b04      	cmp	r3, #4
 8007810:	d00a      	beq.n	8007828 <xPortStartScheduler+0xb8>
 8007812:	f04f 0350 	mov.w	r3, #80	; 0x50
 8007816:	f383 8811 	msr	BASEPRI, r3
 800781a:	f3bf 8f6f 	isb	sy
 800781e:	f3bf 8f4f 	dsb	sy
 8007822:	60bb      	str	r3, [r7, #8]
 8007824:	bf00      	nop
 8007826:	e7fe      	b.n	8007826 <xPortStartScheduler+0xb6>
 8007828:	4b1e      	ldr	r3, [pc, #120]	; (80078a4 <xPortStartScheduler+0x134>)
 800782a:	681b      	ldr	r3, [r3, #0]
 800782c:	021b      	lsls	r3, r3, #8
 800782e:	4a1d      	ldr	r2, [pc, #116]	; (80078a4 <xPortStartScheduler+0x134>)
 8007830:	6013      	str	r3, [r2, #0]
 8007832:	4b1c      	ldr	r3, [pc, #112]	; (80078a4 <xPortStartScheduler+0x134>)
 8007834:	681b      	ldr	r3, [r3, #0]
 8007836:	f403 63e0 	and.w	r3, r3, #1792	; 0x700
 800783a:	4a1a      	ldr	r2, [pc, #104]	; (80078a4 <xPortStartScheduler+0x134>)
 800783c:	6013      	str	r3, [r2, #0]
 800783e:	687b      	ldr	r3, [r7, #4]
 8007840:	b2da      	uxtb	r2, r3
 8007842:	697b      	ldr	r3, [r7, #20]
 8007844:	701a      	strb	r2, [r3, #0]
 8007846:	4b18      	ldr	r3, [pc, #96]	; (80078a8 <xPortStartScheduler+0x138>)
 8007848:	681b      	ldr	r3, [r3, #0]
 800784a:	4a17      	ldr	r2, [pc, #92]	; (80078a8 <xPortStartScheduler+0x138>)
 800784c:	f443 0370 	orr.w	r3, r3, #15728640	; 0xf00000
 8007850:	6013      	str	r3, [r2, #0]
 8007852:	4b15      	ldr	r3, [pc, #84]	; (80078a8 <xPortStartScheduler+0x138>)
 8007854:	681b      	ldr	r3, [r3, #0]
 8007856:	4a14      	ldr	r2, [pc, #80]	; (80078a8 <xPortStartScheduler+0x138>)
 8007858:	f043 4370 	orr.w	r3, r3, #4026531840	; 0xf0000000
 800785c:	6013      	str	r3, [r2, #0]
 800785e:	f000 f8dd 	bl	8007a1c <vPortSetupTimerInterrupt>
 8007862:	4b12      	ldr	r3, [pc, #72]	; (80078ac <xPortStartScheduler+0x13c>)
 8007864:	2200      	movs	r2, #0
 8007866:	601a      	str	r2, [r3, #0]
 8007868:	f000 f8fc 	bl	8007a64 <vPortEnableVFP>
 800786c:	4b10      	ldr	r3, [pc, #64]	; (80078b0 <xPortStartScheduler+0x140>)
 800786e:	681b      	ldr	r3, [r3, #0]
 8007870:	4a0f      	ldr	r2, [pc, #60]	; (80078b0 <xPortStartScheduler+0x140>)
 8007872:	f043 4340 	orr.w	r3, r3, #3221225472	; 0xc0000000
 8007876:	6013      	str	r3, [r2, #0]
 8007878:	f7ff ff66 	bl	8007748 <prvPortStartFirstTask>
 800787c:	f7ff fd4a 	bl	8007314 <vTaskSwitchContext>
 8007880:	f7ff ff1e 	bl	80076c0 <prvTaskExitError>
 8007884:	2300      	movs	r3, #0
 8007886:	4618      	mov	r0, r3
 8007888:	3718      	adds	r7, #24
 800788a:	46bd      	mov	sp, r7
 800788c:	bd80      	pop	{r7, pc}
 800788e:	bf00      	nop
 8007890:	e000ed00 	.word	0xe000ed00
 8007894:	410fc271 	.word	0x410fc271
 8007898:	410fc270 	.word	0x410fc270
 800789c:	e000e400 	.word	0xe000e400
 80078a0:	200006bc 	.word	0x200006bc
 80078a4:	200006c0 	.word	0x200006c0
 80078a8:	e000ed20 	.word	0xe000ed20
 80078ac:	20000028 	.word	0x20000028
 80078b0:	e000ef34 	.word	0xe000ef34

080078b4 <vPortEnterCritical>:
 80078b4:	b480      	push	{r7}
 80078b6:	b083      	sub	sp, #12
 80078b8:	af00      	add	r7, sp, #0
 80078ba:	f04f 0350 	mov.w	r3, #80	; 0x50
 80078be:	f383 8811 	msr	BASEPRI, r3
 80078c2:	f3bf 8f6f 	isb	sy
 80078c6:	f3bf 8f4f 	dsb	sy
 80078ca:	607b      	str	r3, [r7, #4]
 80078cc:	bf00      	nop
 80078ce:	4b0f      	ldr	r3, [pc, #60]	; (800790c <vPortEnterCritical+0x58>)
 80078d0:	681b      	ldr	r3, [r3, #0]
 80078d2:	3301      	adds	r3, #1
 80078d4:	4a0d      	ldr	r2, [pc, #52]	; (800790c <vPortEnterCritical+0x58>)
 80078d6:	6013      	str	r3, [r2, #0]
 80078d8:	4b0c      	ldr	r3, [pc, #48]	; (800790c <vPortEnterCritical+0x58>)
 80078da:	681b      	ldr	r3, [r3, #0]
 80078dc:	2b01      	cmp	r3, #1
 80078de:	d10f      	bne.n	8007900 <vPortEnterCritical+0x4c>
 80078e0:	4b0b      	ldr	r3, [pc, #44]	; (8007910 <vPortEnterCritical+0x5c>)
 80078e2:	681b      	ldr	r3, [r3, #0]
 80078e4:	b2db      	uxtb	r3, r3
 80078e6:	2b00      	cmp	r3, #0
 80078e8:	d00a      	beq.n	8007900 <vPortEnterCritical+0x4c>
 80078ea:	f04f 0350 	mov.w	r3, #80	; 0x50
 80078ee:	f383 8811 	msr	BASEPRI, r3
 80078f2:	f3bf 8f6f 	isb	sy
 80078f6:	f3bf 8f4f 	dsb	sy
 80078fa:	603b      	str	r3, [r7, #0]
 80078fc:	bf00      	nop
 80078fe:	e7fe      	b.n	80078fe <vPortEnterCritical+0x4a>
 8007900:	bf00      	nop
 8007902:	370c      	adds	r7, #12
 8007904:	46bd      	mov	sp, r7
 8007906:	f85d 7b04 	ldr.w	r7, [sp], #4
 800790a:	4770      	bx	lr
 800790c:	20000028 	.word	0x20000028
 8007910:	e000ed04 	.word	0xe000ed04

08007914 <vPortExitCritical>:
 8007914:	b480      	push	{r7}
 8007916:	b083      	sub	sp, #12
 8007918:	af00      	add	r7, sp, #0
 800791a:	4b12      	ldr	r3, [pc, #72]	; (8007964 <vPortExitCritical+0x50>)
 800791c:	681b      	ldr	r3, [r3, #0]
 800791e:	2b00      	cmp	r3, #0
 8007920:	d10a      	bne.n	8007938 <vPortExitCritical+0x24>
 8007922:	f04f 0350 	mov.w	r3, #80	; 0x50
 8007926:	f383 8811 	msr	BASEPRI, r3
 800792a:	f3bf 8f6f 	isb	sy
 800792e:	f3bf 8f4f 	dsb	sy
 8007932:	607b      	str	r3, [r7, #4]
 8007934:	bf00      	nop
 8007936:	e7fe      	b.n	8007936 <vPortExitCritical+0x22>
 8007938:	4b0a      	ldr	r3, [pc, #40]	; (8007964 <vPortExitCritical+0x50>)
 800793a:	681b      	ldr	r3, [r3, #0]
 800793c:	3b01      	subs	r3, #1
 800793e:	4a09      	ldr	r2, [pc, #36]	; (8007964 <vPortExitCritical+0x50>)
 8007940:	6013      	str	r3, [r2, #0]
 8007942:	4b08      	ldr	r3, [pc, #32]	; (8007964 <vPortExitCritical+0x50>)
 8007944:	681b      	ldr	r3, [r3, #0]
 8007946:	2b00      	cmp	r3, #0
 8007948:	d105      	bne.n	8007956 <vPortExitCritical+0x42>
 800794a:	2300      	movs	r3, #0
 800794c:	603b      	str	r3, [r7, #0]
 800794e:	683b      	ldr	r3, [r7, #0]
 8007950:	f383 8811 	msr	BASEPRI, r3
 8007954:	bf00      	nop
 8007956:	bf00      	nop
 8007958:	370c      	adds	r7, #12
 800795a:	46bd      	mov	sp, r7
 800795c:	f85d 7b04 	ldr.w	r7, [sp], #4
 8007960:	4770      	bx	lr
 8007962:	bf00      	nop
 8007964:	20000028 	.word	0x20000028
	...

08007970 <PendSV_Handler>:
 8007970:	f3ef 8009 	mrs	r0, PSP
 8007974:	f3bf 8f6f 	isb	sy
 8007978:	4b15      	ldr	r3, [pc, #84]	; (80079d0 <pxCurrentTCBConst>)
 800797a:	681a      	ldr	r2, [r3, #0]
 800797c:	f01e 0f10 	tst.w	lr, #16
 8007980:	bf08      	it	eq
 8007982:	ed20 8a10 	vstmdbeq	r0!, {s16-s31}
 8007986:	e920 4ff0 	stmdb	r0!, {r4, r5, r6, r7, r8, r9, sl, fp, lr}
 800798a:	6010      	str	r0, [r2, #0]
 800798c:	e92d 0009 	stmdb	sp!, {r0, r3}
 8007990:	f04f 0050 	mov.w	r0, #80	; 0x50
 8007994:	f380 8811 	msr	BASEPRI, r0
 8007998:	f3bf 8f4f 	dsb	sy
 800799c:	f3bf 8f6f 	isb	sy
 80079a0:	f7ff fcb8 	bl	8007314 <vTaskSwitchContext>
 80079a4:	f04f 0000 	mov.w	r0, #0
 80079a8:	f380 8811 	msr	BASEPRI, r0
 80079ac:	bc09      	pop	{r0, r3}
 80079ae:	6819      	ldr	r1, [r3, #0]
 80079b0:	6808      	ldr	r0, [r1, #0]
 80079b2:	e8b0 4ff0 	ldmia.w	r0!, {r4, r5, r6, r7, r8, r9, sl, fp, lr}
 80079b6:	f01e 0f10 	tst.w	lr, #16
 80079ba:	bf08      	it	eq
 80079bc:	ecb0 8a10 	vldmiaeq	r0!, {s16-s31}
 80079c0:	f380 8809 	msr	PSP, r0
 80079c4:	f3bf 8f6f 	isb	sy
 80079c8:	4770      	bx	lr
 80079ca:	bf00      	nop
 80079cc:	f3af 8000 	nop.w

080079d0 <pxCurrentTCBConst>:
 80079d0:	20000590 	.word	0x20000590
 80079d4:	bf00      	nop
 80079d6:	bf00      	nop

080079d8 <SysTick_Handler>:
 80079d8:	b580      	push	{r7, lr}
 80079da:	b082      	sub	sp, #8
 80079dc:	af00      	add	r7, sp, #0
 80079de:	f04f 0350 	mov.w	r3, #80	; 0x50
 80079e2:	f383 8811 	msr	BASEPRI, r3
 80079e6:	f3bf 8f6f 	isb	sy
 80079ea:	f3bf 8f4f 	dsb	sy
 80079ee:	607b      	str	r3, [r7, #4]
 80079f0:	bf00      	nop
 80079f2:	f7ff fbd7 	bl	80071a4 <xTaskIncrementTick>
 80079f6:	4603      	mov	r3, r0
 80079f8:	2b00      	cmp	r3, #0
 80079fa:	d003      	beq.n	8007a04 <SysTick_Handler+0x2c>
 80079fc:	4b06      	ldr	r3, [pc, #24]	; (8007a18 <SysTick_Handler+0x40>)
 80079fe:	f04f 5280 	mov.w	r2, #268435456	; 0x10000000
 8007a02:	601a      	str	r2, [r3, #0]
 8007a04:	2300      	movs	r3, #0
 8007a06:	603b      	str	r3, [r7, #0]
 8007a08:	683b      	ldr	r3, [r7, #0]
 8007a0a:	f383 8811 	msr	BASEPRI, r3
 8007a0e:	bf00      	nop
 8007a10:	bf00      	nop
 8007a12:	3708      	adds	r7, #8
 8007a14:	46bd      	mov	sp, r7
 8007a16:	bd80      	pop	{r7, pc}
 8007a18:	e000ed04 	.word	0xe000ed04

08007a1c <vPortSetupTimerInterrupt>:
 8007a1c:	b480      	push	{r7}
 8007a1e:	af00      	add	r7, sp, #0
 8007a20:	4b0b      	ldr	r3, [pc, #44]	; (8007a50 <vPortSetupTimerInterrupt+0x34>)
 8007a22:	2200      	movs	r2, #0
 8007a24:	601a      	str	r2, [r3, #0]
 8007a26:	4b0b      	ldr	r3, [pc, #44]	; (8007a54 <vPortSetupTimerInterrupt+0x38>)
 8007a28:	2200      	movs	r2, #0
 8007a2a:	601a      	str	r2, [r3, #0]
 8007a2c:	4b0a      	ldr	r3, [pc, #40]	; (8007a58 <vPortSetupTimerInterrupt+0x3c>)
 8007a2e:	681b      	ldr	r3, [r3, #0]
 8007a30:	4a0a      	ldr	r2, [pc, #40]	; (8007a5c <vPortSetupTimerInterrupt+0x40>)
 8007a32:	fba2 2303 	umull	r2, r3, r2, r3
 8007a36:	099b      	lsrs	r3, r3, #6
 8007a38:	4a09      	ldr	r2, [pc, #36]	; (8007a60 <vPortSetupTimerInterrupt+0x44>)
 8007a3a:	3b01      	subs	r3, #1
 8007a3c:	6013      	str	r3, [r2, #0]
 8007a3e:	4b04      	ldr	r3, [pc, #16]	; (8007a50 <vPortSetupTimerInterrupt+0x34>)
 8007a40:	2207      	movs	r2, #7
 8007a42:	601a      	str	r2, [r3, #0]
 8007a44:	bf00      	nop
 8007a46:	46bd      	mov	sp, r7
 8007a48:	f85d 7b04 	ldr.w	r7, [sp], #4
 8007a4c:	4770      	bx	lr
 8007a4e:	bf00      	nop
 8007a50:	e000e010 	.word	0xe000e010
 8007a54:	e000e018 	.word	0xe000e018
 8007a58:	2000001c 	.word	0x2000001c
 8007a5c:	10624dd3 	.word	0x10624dd3
 8007a60:	e000e014 	.word	0xe000e014

08007a64 <vPortEnableVFP>:
 8007a64:	f8df 000c 	ldr.w	r0, [pc, #12]	; 8007a74 <vPortEnableVFP+0x10>
 8007a68:	6801      	ldr	r1, [r0, #0]
 8007a6a:	f441 0170 	orr.w	r1, r1, #15728640	; 0xf00000
 8007a6e:	6001      	str	r1, [r0, #0]
 8007a70:	4770      	bx	lr
 8007a72:	bf00      	nop
 8007a74:	e000ed88 	.word	0xe000ed88

08007a78 <pvPortMalloc>:
 8007a78:	b580      	push	{r7, lr}
 8007a7a:	b08a      	sub	sp, #40	; 0x28
 8007a7c:	af00      	add	r7, sp, #0
 8007a7e:	6078      	str	r0, [r7, #4]
 8007a80:	2300      	movs	r3, #0
 8007a82:	61fb      	str	r3, [r7, #28]
 8007a84:	f7ff fae4 	bl	8007050 <vTaskSuspendAll>
 8007a88:	4b5b      	ldr	r3, [pc, #364]	; (8007bf8 <pvPortMalloc+0x180>)
 8007a8a:	681b      	ldr	r3, [r3, #0]
 8007a8c:	2b00      	cmp	r3, #0
 8007a8e:	d101      	bne.n	8007a94 <pvPortMalloc+0x1c>
 8007a90:	f000 f920 	bl	8007cd4 <prvHeapInit>
 8007a94:	4b59      	ldr	r3, [pc, #356]	; (8007bfc <pvPortMalloc+0x184>)
 8007a96:	681a      	ldr	r2, [r3, #0]
 8007a98:	687b      	ldr	r3, [r7, #4]
 8007a9a:	4013      	ands	r3, r2
 8007a9c:	2b00      	cmp	r3, #0
 8007a9e:	f040 8093 	bne.w	8007bc8 <pvPortMalloc+0x150>
 8007aa2:	687b      	ldr	r3, [r7, #4]
 8007aa4:	2b00      	cmp	r3, #0
 8007aa6:	d01d      	beq.n	8007ae4 <pvPortMalloc+0x6c>
 8007aa8:	2208      	movs	r2, #8
 8007aaa:	687b      	ldr	r3, [r7, #4]
 8007aac:	4413      	add	r3, r2
 8007aae:	607b      	str	r3, [r7, #4]
 8007ab0:	687b      	ldr	r3, [r7, #4]
 8007ab2:	f003 0307 	and.w	r3, r3, #7
 8007ab6:	2b00      	cmp	r3, #0
 8007ab8:	d014      	beq.n	8007ae4 <pvPortMalloc+0x6c>
 8007aba:	687b      	ldr	r3, [r7, #4]
 8007abc:	f023 0307 	bic.w	r3, r3, #7
 8007ac0:	3308      	adds	r3, #8
 8007ac2:	607b      	str	r3, [r7, #4]
 8007ac4:	687b      	ldr	r3, [r7, #4]
 8007ac6:	f003 0307 	and.w	r3, r3, #7
 8007aca:	2b00      	cmp	r3, #0
 8007acc:	d00a      	beq.n	8007ae4 <pvPortMalloc+0x6c>
 8007ace:	f04f 0350 	mov.w	r3, #80	; 0x50
 8007ad2:	f383 8811 	msr	BASEPRI, r3
 8007ad6:	f3bf 8f6f 	isb	sy
 8007ada:	f3bf 8f4f 	dsb	sy
 8007ade:	617b      	str	r3, [r7, #20]
 8007ae0:	bf00      	nop
 8007ae2:	e7fe      	b.n	8007ae2 <pvPortMalloc+0x6a>
 8007ae4:	687b      	ldr	r3, [r7, #4]
 8007ae6:	2b00      	cmp	r3, #0
 8007ae8:	d06e      	beq.n	8007bc8 <pvPortMalloc+0x150>
 8007aea:	4b45      	ldr	r3, [pc, #276]	; (8007c00 <pvPortMalloc+0x188>)
 8007aec:	681b      	ldr	r3, [r3, #0]
 8007aee:	687a      	ldr	r2, [r7, #4]
 8007af0:	429a      	cmp	r2, r3
 8007af2:	d869      	bhi.n	8007bc8 <pvPortMalloc+0x150>
 8007af4:	4b43      	ldr	r3, [pc, #268]	; (8007c04 <pvPortMalloc+0x18c>)
 8007af6:	623b      	str	r3, [r7, #32]
 8007af8:	4b42      	ldr	r3, [pc, #264]	; (8007c04 <pvPortMalloc+0x18c>)
 8007afa:	681b      	ldr	r3, [r3, #0]
 8007afc:	627b      	str	r3, [r7, #36]	; 0x24
 8007afe:	e004      	b.n	8007b0a <pvPortMalloc+0x92>
 8007b00:	6a7b      	ldr	r3, [r7, #36]	; 0x24
 8007b02:	623b      	str	r3, [r7, #32]
 8007b04:	6a7b      	ldr	r3, [r7, #36]	; 0x24
 8007b06:	681b      	ldr	r3, [r3, #0]
 8007b08:	627b      	str	r3, [r7, #36]	; 0x24
 8007b0a:	6a7b      	ldr	r3, [r7, #36]	; 0x24
 8007b0c:	685b      	ldr	r3, [r3, #4]
 8007b0e:	687a      	ldr	r2, [r7, #4]
 8007b10:	429a      	cmp	r2, r3
 8007b12:	d903      	bls.n	8007b1c <pvPortMalloc+0xa4>
 8007b14:	6a7b      	ldr	r3, [r7, #36]	; 0x24
 8007b16:	681b      	ldr	r3, [r3, #0]
 8007b18:	2b00      	cmp	r3, #0
 8007b1a:	d1f1      	bne.n	8007b00 <pvPortMalloc+0x88>
 8007b1c:	4b36      	ldr	r3, [pc, #216]	; (8007bf8 <pvPortMalloc+0x180>)
 8007b1e:	681b      	ldr	r3, [r3, #0]
 8007b20:	6a7a      	ldr	r2, [r7, #36]	; 0x24
 8007b22:	429a      	cmp	r2, r3
 8007b24:	d050      	beq.n	8007bc8 <pvPortMalloc+0x150>
 8007b26:	6a3b      	ldr	r3, [r7, #32]
 8007b28:	681b      	ldr	r3, [r3, #0]
 8007b2a:	2208      	movs	r2, #8
 8007b2c:	4413      	add	r3, r2
 8007b2e:	61fb      	str	r3, [r7, #28]
 8007b30:	6a7b      	ldr	r3, [r7, #36]	; 0x24
 8007b32:	681a      	ldr	r2, [r3, #0]
 8007b34:	6a3b      	ldr	r3, [r7, #32]
 8007b36:	601a      	str	r2, [r3, #0]
 8007b38:	6a7b      	ldr	r3, [r7, #36]	; 0x24
 8007b3a:	685a      	ldr	r2, [r3, #4]
 8007b3c:	687b      	ldr	r3, [r7, #4]
 8007b3e:	1ad2      	subs	r2, r2, r3
 8007b40:	2308      	movs	r3, #8
 8007b42:	005b      	lsls	r3, r3, #1
 8007b44:	429a      	cmp	r2, r3
 8007b46:	d91f      	bls.n	8007b88 <pvPortMalloc+0x110>
 8007b48:	6a7a      	ldr	r2, [r7, #36]	; 0x24
 8007b4a:	687b      	ldr	r3, [r7, #4]
 8007b4c:	4413      	add	r3, r2
 8007b4e:	61bb      	str	r3, [r7, #24]
 8007b50:	69bb      	ldr	r3, [r7, #24]
 8007b52:	f003 0307 	and.w	r3, r3, #7
 8007b56:	2b00      	cmp	r3, #0
 8007b58:	d00a      	beq.n	8007b70 <pvPortMalloc+0xf8>
 8007b5a:	f04f 0350 	mov.w	r3, #80	; 0x50
 8007b5e:	f383 8811 	msr	BASEPRI, r3
 8007b62:	f3bf 8f6f 	isb	sy
 8007b66:	f3bf 8f4f 	dsb	sy
 8007b6a:	613b      	str	r3, [r7, #16]
 8007b6c:	bf00      	nop
 8007b6e:	e7fe      	b.n	8007b6e <pvPortMalloc+0xf6>
 8007b70:	6a7b      	ldr	r3, [r7, #36]	; 0x24
 8007b72:	685a      	ldr	r2, [r3, #4]
 8007b74:	687b      	ldr	r3, [r7, #4]
 8007b76:	1ad2      	subs	r2, r2, r3
 8007b78:	69bb      	ldr	r3, [r7, #24]
 8007b7a:	605a      	str	r2, [r3, #4]
 8007b7c:	6a7b      	ldr	r3, [r7, #36]	; 0x24
 8007b7e:	687a      	ldr	r2, [r7, #4]
 8007b80:	605a      	str	r2, [r3, #4]
 8007b82:	69b8      	ldr	r0, [r7, #24]
 8007b84:	f000 f908 	bl	8007d98 <prvInsertBlockIntoFreeList>
 8007b88:	4b1d      	ldr	r3, [pc, #116]	; (8007c00 <pvPortMalloc+0x188>)
 8007b8a:	681a      	ldr	r2, [r3, #0]
 8007b8c:	6a7b      	ldr	r3, [r7, #36]	; 0x24
 8007b8e:	685b      	ldr	r3, [r3, #4]
 8007b90:	1ad3      	subs	r3, r2, r3
 8007b92:	4a1b      	ldr	r2, [pc, #108]	; (8007c00 <pvPortMalloc+0x188>)
 8007b94:	6013      	str	r3, [r2, #0]
 8007b96:	4b1a      	ldr	r3, [pc, #104]	; (8007c00 <pvPortMalloc+0x188>)
 8007b98:	681a      	ldr	r2, [r3, #0]
 8007b9a:	4b1b      	ldr	r3, [pc, #108]	; (8007c08 <pvPortMalloc+0x190>)
 8007b9c:	681b      	ldr	r3, [r3, #0]
 8007b9e:	429a      	cmp	r2, r3
 8007ba0:	d203      	bcs.n	8007baa <pvPortMalloc+0x132>
 8007ba2:	4b17      	ldr	r3, [pc, #92]	; (8007c00 <pvPortMalloc+0x188>)
 8007ba4:	681b      	ldr	r3, [r3, #0]
 8007ba6:	4a18      	ldr	r2, [pc, #96]	; (8007c08 <pvPortMalloc+0x190>)
 8007ba8:	6013      	str	r3, [r2, #0]
 8007baa:	6a7b      	ldr	r3, [r7, #36]	; 0x24
 8007bac:	685a      	ldr	r2, [r3, #4]
 8007bae:	4b13      	ldr	r3, [pc, #76]	; (8007bfc <pvPortMalloc+0x184>)
 8007bb0:	681b      	ldr	r3, [r3, #0]
 8007bb2:	431a      	orrs	r2, r3
 8007bb4:	6a7b      	ldr	r3, [r7, #36]	; 0x24
 8007bb6:	605a      	str	r2, [r3, #4]
 8007bb8:	6a7b      	ldr	r3, [r7, #36]	; 0x24
 8007bba:	2200      	movs	r2, #0
 8007bbc:	601a      	str	r2, [r3, #0]
 8007bbe:	4b13      	ldr	r3, [pc, #76]	; (8007c0c <pvPortMalloc+0x194>)
 8007bc0:	681b      	ldr	r3, [r3, #0]
 8007bc2:	3301      	adds	r3, #1
 8007bc4:	4a11      	ldr	r2, [pc, #68]	; (8007c0c <pvPortMalloc+0x194>)
 8007bc6:	6013      	str	r3, [r2, #0]
 8007bc8:	f7ff fa50 	bl	800706c <xTaskResumeAll>
 8007bcc:	69fb      	ldr	r3, [r7, #28]
 8007bce:	f003 0307 	and.w	r3, r3, #7
 8007bd2:	2b00      	cmp	r3, #0
 8007bd4:	d00a      	beq.n	8007bec <pvPortMalloc+0x174>
 8007bd6:	f04f 0350 	mov.w	r3, #80	; 0x50
 8007bda:	f383 8811 	msr	BASEPRI, r3
 8007bde:	f3bf 8f6f 	isb	sy
 8007be2:	f3bf 8f4f 	dsb	sy
 8007be6:	60fb      	str	r3, [r7, #12]
 8007be8:	bf00      	nop
 8007bea:	e7fe      	b.n	8007bea <pvPortMalloc+0x172>
 8007bec:	69fb      	ldr	r3, [r7, #28]
 8007bee:	4618      	mov	r0, r3
 8007bf0:	3728      	adds	r7, #40	; 0x28
 8007bf2:	46bd      	mov	sp, r7
 8007bf4:	bd80      	pop	{r7, pc}
 8007bf6:	bf00      	nop
 8007bf8:	200042cc 	.word	0x200042cc
 8007bfc:	200042e0 	.word	0x200042e0
 8007c00:	200042d0 	.word	0x200042d0
 8007c04:	200042c4 	.word	0x200042c4
 8007c08:	200042d4 	.word	0x200042d4
 8007c0c:	200042d8 	.word	0x200042d8

08007c10 <vPortFree>:
 8007c10:	b580      	push	{r7, lr}
 8007c12:	b086      	sub	sp, #24
 8007c14:	af00      	add	r7, sp, #0
 8007c16:	6078      	str	r0, [r7, #4]
 8007c18:	687b      	ldr	r3, [r7, #4]
 8007c1a:	617b      	str	r3, [r7, #20]
 8007c1c:	687b      	ldr	r3, [r7, #4]
 8007c1e:	2b00      	cmp	r3, #0
 8007c20:	d04d      	beq.n	8007cbe <vPortFree+0xae>
 8007c22:	2308      	movs	r3, #8
 8007c24:	425b      	negs	r3, r3
 8007c26:	697a      	ldr	r2, [r7, #20]
 8007c28:	4413      	add	r3, r2
 8007c2a:	617b      	str	r3, [r7, #20]
 8007c2c:	697b      	ldr	r3, [r7, #20]
 8007c2e:	613b      	str	r3, [r7, #16]
 8007c30:	693b      	ldr	r3, [r7, #16]
 8007c32:	685a      	ldr	r2, [r3, #4]
 8007c34:	4b24      	ldr	r3, [pc, #144]	; (8007cc8 <vPortFree+0xb8>)
 8007c36:	681b      	ldr	r3, [r3, #0]
 8007c38:	4013      	ands	r3, r2
 8007c3a:	2b00      	cmp	r3, #0
 8007c3c:	d10a      	bne.n	8007c54 <vPortFree+0x44>
 8007c3e:	f04f 0350 	mov.w	r3, #80	; 0x50
 8007c42:	f383 8811 	msr	BASEPRI, r3
 8007c46:	f3bf 8f6f 	isb	sy
 8007c4a:	f3bf 8f4f 	dsb	sy
 8007c4e:	60fb      	str	r3, [r7, #12]
 8007c50:	bf00      	nop
 8007c52:	e7fe      	b.n	8007c52 <vPortFree+0x42>
 8007c54:	693b      	ldr	r3, [r7, #16]
 8007c56:	681b      	ldr	r3, [r3, #0]
 8007c58:	2b00      	cmp	r3, #0
 8007c5a:	d00a      	beq.n	8007c72 <vPortFree+0x62>
 8007c5c:	f04f 0350 	mov.w	r3, #80	; 0x50
 8007c60:	f383 8811 	msr	BASEPRI, r3
 8007c64:	f3bf 8f6f 	isb	sy
 8007c68:	f3bf 8f4f 	dsb	sy
 8007c6c:	60bb      	str	r3, [r7, #8]
 8007c6e:	bf00      	nop
 8007c70:	e7fe      	b.n	8007c70 <vPortFree+0x60>
 8007c72:	693b      	ldr	r3, [r7, #16]
 8007c74:	685a      	ldr	r2, [r3, #4]
 8007c76:	4b14      	ldr	r3, [pc, #80]	; (8007cc8 <vPortFree+0xb8>)
 8007c78:	681b      	ldr	r3, [r3, #0]
 8007c7a:	4013      	ands	r3, r2
 8007c7c:	2b00      	cmp	r3, #0
 8007c7e:	d01e      	beq.n	8007cbe <vPortFree+0xae>
 8007c80:	693b      	ldr	r3, [r7, #16]
 8007c82:	681b      	ldr	r3, [r3, #0]
 8007c84:	2b00      	cmp	r3, #0
 8007c86:	d11a      	bne.n	8007cbe <vPortFree+0xae>
 8007c88:	693b      	ldr	r3, [r7, #16]
 8007c8a:	685a      	ldr	r2, [r3, #4]
 8007c8c:	4b0e      	ldr	r3, [pc, #56]	; (8007cc8 <vPortFree+0xb8>)
 8007c8e:	681b      	ldr	r3, [r3, #0]
 8007c90:	43db      	mvns	r3, r3
 8007c92:	401a      	ands	r2, r3
 8007c94:	693b      	ldr	r3, [r7, #16]
 8007c96:	605a      	str	r2, [r3, #4]
 8007c98:	f7ff f9da 	bl	8007050 <vTaskSuspendAll>
 8007c9c:	693b      	ldr	r3, [r7, #16]
 8007c9e:	685a      	ldr	r2, [r3, #4]
 8007ca0:	4b0a      	ldr	r3, [pc, #40]	; (8007ccc <vPortFree+0xbc>)
 8007ca2:	681b      	ldr	r3, [r3, #0]
 8007ca4:	4413      	add	r3, r2
 8007ca6:	4a09      	ldr	r2, [pc, #36]	; (8007ccc <vPortFree+0xbc>)
 8007ca8:	6013      	str	r3, [r2, #0]
 8007caa:	6938      	ldr	r0, [r7, #16]
 8007cac:	f000 f874 	bl	8007d98 <prvInsertBlockIntoFreeList>
 8007cb0:	4b07      	ldr	r3, [pc, #28]	; (8007cd0 <vPortFree+0xc0>)
 8007cb2:	681b      	ldr	r3, [r3, #0]
 8007cb4:	3301      	adds	r3, #1
 8007cb6:	4a06      	ldr	r2, [pc, #24]	; (8007cd0 <vPortFree+0xc0>)
 8007cb8:	6013      	str	r3, [r2, #0]
 8007cba:	f7ff f9d7 	bl	800706c <xTaskResumeAll>
 8007cbe:	bf00      	nop
 8007cc0:	3718      	adds	r7, #24
 8007cc2:	46bd      	mov	sp, r7
 8007cc4:	bd80      	pop	{r7, pc}
 8007cc6:	bf00      	nop
 8007cc8:	200042e0 	.word	0x200042e0
 8007ccc:	200042d0 	.word	0x200042d0
 8007cd0:	200042dc 	.word	0x200042dc

08007cd4 <prvHeapInit>:
 8007cd4:	b480      	push	{r7}
 8007cd6:	b085      	sub	sp, #20
 8007cd8:	af00      	add	r7, sp, #0
 8007cda:	f44f 5370 	mov.w	r3, #15360	; 0x3c00
 8007cde:	60bb      	str	r3, [r7, #8]
 8007ce0:	4b27      	ldr	r3, [pc, #156]	; (8007d80 <prvHeapInit+0xac>)
 8007ce2:	60fb      	str	r3, [r7, #12]
 8007ce4:	68fb      	ldr	r3, [r7, #12]
 8007ce6:	f003 0307 	and.w	r3, r3, #7
 8007cea:	2b00      	cmp	r3, #0
 8007cec:	d00c      	beq.n	8007d08 <prvHeapInit+0x34>
 8007cee:	68fb      	ldr	r3, [r7, #12]
 8007cf0:	3307      	adds	r3, #7
 8007cf2:	60fb      	str	r3, [r7, #12]
 8007cf4:	68fb      	ldr	r3, [r7, #12]
 8007cf6:	f023 0307 	bic.w	r3, r3, #7
 8007cfa:	60fb      	str	r3, [r7, #12]
 8007cfc:	68ba      	ldr	r2, [r7, #8]
 8007cfe:	68fb      	ldr	r3, [r7, #12]
 8007d00:	1ad3      	subs	r3, r2, r3
 8007d02:	4a1f      	ldr	r2, [pc, #124]	; (8007d80 <prvHeapInit+0xac>)
 8007d04:	4413      	add	r3, r2
 8007d06:	60bb      	str	r3, [r7, #8]
 8007d08:	68fb      	ldr	r3, [r7, #12]
 8007d0a:	607b      	str	r3, [r7, #4]
 8007d0c:	4a1d      	ldr	r2, [pc, #116]	; (8007d84 <prvHeapInit+0xb0>)
 8007d0e:	687b      	ldr	r3, [r7, #4]
 8007d10:	6013      	str	r3, [r2, #0]
 8007d12:	4b1c      	ldr	r3, [pc, #112]	; (8007d84 <prvHeapInit+0xb0>)
 8007d14:	2200      	movs	r2, #0
 8007d16:	605a      	str	r2, [r3, #4]
 8007d18:	687b      	ldr	r3, [r7, #4]
 8007d1a:	68ba      	ldr	r2, [r7, #8]
 8007d1c:	4413      	add	r3, r2
 8007d1e:	60fb      	str	r3, [r7, #12]
 8007d20:	2208      	movs	r2, #8
 8007d22:	68fb      	ldr	r3, [r7, #12]
 8007d24:	1a9b      	subs	r3, r3, r2
 8007d26:	60fb      	str	r3, [r7, #12]
 8007d28:	68fb      	ldr	r3, [r7, #12]
 8007d2a:	f023 0307 	bic.w	r3, r3, #7
 8007d2e:	60fb      	str	r3, [r7, #12]
 8007d30:	68fb      	ldr	r3, [r7, #12]
 8007d32:	4a15      	ldr	r2, [pc, #84]	; (8007d88 <prvHeapInit+0xb4>)
 8007d34:	6013      	str	r3, [r2, #0]
 8007d36:	4b14      	ldr	r3, [pc, #80]	; (8007d88 <prvHeapInit+0xb4>)
 8007d38:	681b      	ldr	r3, [r3, #0]
 8007d3a:	2200      	movs	r2, #0
 8007d3c:	605a      	str	r2, [r3, #4]
 8007d3e:	4b12      	ldr	r3, [pc, #72]	; (8007d88 <prvHeapInit+0xb4>)
 8007d40:	681b      	ldr	r3, [r3, #0]
 8007d42:	2200      	movs	r2, #0
 8007d44:	601a      	str	r2, [r3, #0]
 8007d46:	687b      	ldr	r3, [r7, #4]
 8007d48:	603b      	str	r3, [r7, #0]
 8007d4a:	683b      	ldr	r3, [r7, #0]
 8007d4c:	68fa      	ldr	r2, [r7, #12]
 8007d4e:	1ad2      	subs	r2, r2, r3
 8007d50:	683b      	ldr	r3, [r7, #0]
 8007d52:	605a      	str	r2, [r3, #4]
 8007d54:	4b0c      	ldr	r3, [pc, #48]	; (8007d88 <prvHeapInit+0xb4>)
 8007d56:	681a      	ldr	r2, [r3, #0]
 8007d58:	683b      	ldr	r3, [r7, #0]
 8007d5a:	601a      	str	r2, [r3, #0]
 8007d5c:	683b      	ldr	r3, [r7, #0]
 8007d5e:	685b      	ldr	r3, [r3, #4]
 8007d60:	4a0a      	ldr	r2, [pc, #40]	; (8007d8c <prvHeapInit+0xb8>)
 8007d62:	6013      	str	r3, [r2, #0]
 8007d64:	683b      	ldr	r3, [r7, #0]
 8007d66:	685b      	ldr	r3, [r3, #4]
 8007d68:	4a09      	ldr	r2, [pc, #36]	; (8007d90 <prvHeapInit+0xbc>)
 8007d6a:	6013      	str	r3, [r2, #0]
 8007d6c:	4b09      	ldr	r3, [pc, #36]	; (8007d94 <prvHeapInit+0xc0>)
 8007d6e:	f04f 4200 	mov.w	r2, #2147483648	; 0x80000000
 8007d72:	601a      	str	r2, [r3, #0]
 8007d74:	bf00      	nop
 8007d76:	3714      	adds	r7, #20
 8007d78:	46bd      	mov	sp, r7
 8007d7a:	f85d 7b04 	ldr.w	r7, [sp], #4
 8007d7e:	4770      	bx	lr
 8007d80:	200006c4 	.word	0x200006c4
 8007d84:	200042c4 	.word	0x200042c4
 8007d88:	200042cc 	.word	0x200042cc
 8007d8c:	200042d4 	.word	0x200042d4
 8007d90:	200042d0 	.word	0x200042d0
 8007d94:	200042e0 	.word	0x200042e0

08007d98 <prvInsertBlockIntoFreeList>:
 8007d98:	b480      	push	{r7}
 8007d9a:	b085      	sub	sp, #20
 8007d9c:	af00      	add	r7, sp, #0
 8007d9e:	6078      	str	r0, [r7, #4]
 8007da0:	4b28      	ldr	r3, [pc, #160]	; (8007e44 <prvInsertBlockIntoFreeList+0xac>)
 8007da2:	60fb      	str	r3, [r7, #12]
 8007da4:	e002      	b.n	8007dac <prvInsertBlockIntoFreeList+0x14>
 8007da6:	68fb      	ldr	r3, [r7, #12]
 8007da8:	681b      	ldr	r3, [r3, #0]
 8007daa:	60fb      	str	r3, [r7, #12]
 8007dac:	68fb      	ldr	r3, [r7, #12]
 8007dae:	681b      	ldr	r3, [r3, #0]
 8007db0:	687a      	ldr	r2, [r7, #4]
 8007db2:	429a      	cmp	r2, r3
 8007db4:	d8f7      	bhi.n	8007da6 <prvInsertBlockIntoFreeList+0xe>
 8007db6:	68fb      	ldr	r3, [r7, #12]
 8007db8:	60bb      	str	r3, [r7, #8]
 8007dba:	68fb      	ldr	r3, [r7, #12]
 8007dbc:	685b      	ldr	r3, [r3, #4]
 8007dbe:	68ba      	ldr	r2, [r7, #8]
 8007dc0:	4413      	add	r3, r2
 8007dc2:	687a      	ldr	r2, [r7, #4]
 8007dc4:	429a      	cmp	r2, r3
 8007dc6:	d108      	bne.n	8007dda <prvInsertBlockIntoFreeList+0x42>
 8007dc8:	68fb      	ldr	r3, [r7, #12]
 8007dca:	685a      	ldr	r2, [r3, #4]
 8007dcc:	687b      	ldr	r3, [r7, #4]
 8007dce:	685b      	ldr	r3, [r3, #4]
 8007dd0:	441a      	add	r2, r3
 8007dd2:	68fb      	ldr	r3, [r7, #12]
 8007dd4:	605a      	str	r2, [r3, #4]
 8007dd6:	68fb      	ldr	r3, [r7, #12]
 8007dd8:	607b      	str	r3, [r7, #4]
 8007dda:	687b      	ldr	r3, [r7, #4]
 8007ddc:	60bb      	str	r3, [r7, #8]
 8007dde:	687b      	ldr	r3, [r7, #4]
 8007de0:	685b      	ldr	r3, [r3, #4]
 8007de2:	68ba      	ldr	r2, [r7, #8]
 8007de4:	441a      	add	r2, r3
 8007de6:	68fb      	ldr	r3, [r7, #12]
 8007de8:	681b      	ldr	r3, [r3, #0]
 8007dea:	429a      	cmp	r2, r3
 8007dec:	d118      	bne.n	8007e20 <prvInsertBlockIntoFreeList+0x88>
 8007dee:	68fb      	ldr	r3, [r7, #12]
 8007df0:	681a      	ldr	r2, [r3, #0]
 8007df2:	4b15      	ldr	r3, [pc, #84]	; (8007e48 <prvInsertBlockIntoFreeList+0xb0>)
 8007df4:	681b      	ldr	r3, [r3, #0]
 8007df6:	429a      	cmp	r2, r3
 8007df8:	d00d      	beq.n	8007e16 <prvInsertBlockIntoFreeList+0x7e>
 8007dfa:	687b      	ldr	r3, [r7, #4]
 8007dfc:	685a      	ldr	r2, [r3, #4]
 8007dfe:	68fb      	ldr	r3, [r7, #12]
 8007e00:	681b      	ldr	r3, [r3, #0]
 8007e02:	685b      	ldr	r3, [r3, #4]
 8007e04:	441a      	add	r2, r3
 8007e06:	687b      	ldr	r3, [r7, #4]
 8007e08:	605a      	str	r2, [r3, #4]
 8007e0a:	68fb      	ldr	r3, [r7, #12]
 8007e0c:	681b      	ldr	r3, [r3, #0]
 8007e0e:	681a      	ldr	r2, [r3, #0]
 8007e10:	687b      	ldr	r3, [r7, #4]
 8007e12:	601a      	str	r2, [r3, #0]
 8007e14:	e008      	b.n	8007e28 <prvInsertBlockIntoFreeList+0x90>
 8007e16:	4b0c      	ldr	r3, [pc, #48]	; (8007e48 <prvInsertBlockIntoFreeList+0xb0>)
 8007e18:	681a      	ldr	r2, [r3, #0]
 8007e1a:	687b      	ldr	r3, [r7, #4]
 8007e1c:	601a      	str	r2, [r3, #0]
 8007e1e:	e003      	b.n	8007e28 <prvInsertBlockIntoFreeList+0x90>
 8007e20:	68fb      	ldr	r3, [r7, #12]
 8007e22:	681a      	ldr	r2, [r3, #0]
 8007e24:	687b      	ldr	r3, [r7, #4]
 8007e26:	601a      	str	r2, [r3, #0]
 8007e28:	68fa      	ldr	r2, [r7, #12]
 8007e2a:	687b      	ldr	r3, [r7, #4]
 8007e2c:	429a      	cmp	r2, r3
 8007e2e:	d002      	beq.n	8007e36 <prvInsertBlockIntoFreeList+0x9e>
 8007e30:	68fb      	ldr	r3, [r7, #12]
 8007e32:	687a      	ldr	r2, [r7, #4]
 8007e34:	601a      	str	r2, [r3, #0]
 8007e36:	bf00      	nop
 8007e38:	3714      	adds	r7, #20
 8007e3a:	46bd      	mov	sp, r7
 8007e3c:	f85d 7b04 	ldr.w	r7, [sp], #4
 8007e40:	4770      	bx	lr
 8007e42:	bf00      	nop
 8007e44:	200042c4 	.word	0x200042c4
 8007e48:	200042cc 	.word	0x200042cc

08007e4c <__libc_init_array>:
 8007e4c:	b570      	push	{r4, r5, r6, lr}
 8007e4e:	4d0d      	ldr	r5, [pc, #52]	; (8007e84 <__libc_init_array+0x38>)
 8007e50:	4c0d      	ldr	r4, [pc, #52]	; (8007e88 <__libc_init_array+0x3c>)
 8007e52:	1b64      	subs	r4, r4, r5
 8007e54:	10a4      	asrs	r4, r4, #2
 8007e56:	2600      	movs	r6, #0
 8007e58:	42a6      	cmp	r6, r4
 8007e5a:	d109      	bne.n	8007e70 <__libc_init_array+0x24>
 8007e5c:	4d0b      	ldr	r5, [pc, #44]	; (8007e8c <__libc_init_array+0x40>)
 8007e5e:	4c0c      	ldr	r4, [pc, #48]	; (8007e90 <__libc_init_array+0x44>)
 8007e60:	f000 f8e8 	bl	8008034 <_init>
 8007e64:	1b64      	subs	r4, r4, r5
 8007e66:	10a4      	asrs	r4, r4, #2
 8007e68:	2600      	movs	r6, #0
 8007e6a:	42a6      	cmp	r6, r4
 8007e6c:	d105      	bne.n	8007e7a <__libc_init_array+0x2e>
 8007e6e:	bd70      	pop	{r4, r5, r6, pc}
 8007e70:	f855 3b04 	ldr.w	r3, [r5], #4
 8007e74:	4798      	blx	r3
 8007e76:	3601      	adds	r6, #1
 8007e78:	e7ee      	b.n	8007e58 <__libc_init_array+0xc>
 8007e7a:	f855 3b04 	ldr.w	r3, [r5], #4
 8007e7e:	4798      	blx	r3
 8007e80:	3601      	adds	r6, #1
 8007e82:	e7f2      	b.n	8007e6a <__libc_init_array+0x1e>
 8007e84:	080089ac 	.word	0x080089ac
 8007e88:	080089ac 	.word	0x080089ac
 8007e8c:	080089ac 	.word	0x080089ac
 8007e90:	080089b0 	.word	0x080089b0

08007e94 <__retarget_lock_acquire_recursive>:
 8007e94:	4770      	bx	lr

08007e96 <__retarget_lock_release_recursive>:
 8007e96:	4770      	bx	lr

08007e98 <memset>:
 8007e98:	4402      	add	r2, r0
 8007e9a:	4603      	mov	r3, r0
 8007e9c:	4293      	cmp	r3, r2
 8007e9e:	d100      	bne.n	8007ea2 <memset+0xa>
 8007ea0:	4770      	bx	lr
 8007ea2:	f803 1b01 	strb.w	r1, [r3], #1
 8007ea6:	e7f9      	b.n	8007e9c <memset+0x4>

08007ea8 <cleanup_glue>:
 8007ea8:	b538      	push	{r3, r4, r5, lr}
 8007eaa:	460c      	mov	r4, r1
 8007eac:	6809      	ldr	r1, [r1, #0]
 8007eae:	4605      	mov	r5, r0
 8007eb0:	b109      	cbz	r1, 8007eb6 <cleanup_glue+0xe>
 8007eb2:	f7ff fff9 	bl	8007ea8 <cleanup_glue>
 8007eb6:	4621      	mov	r1, r4
 8007eb8:	4628      	mov	r0, r5
 8007eba:	e8bd 4038 	ldmia.w	sp!, {r3, r4, r5, lr}
 8007ebe:	f000 b869 	b.w	8007f94 <_free_r>
	...

08007ec4 <_reclaim_reent>:
 8007ec4:	4b2c      	ldr	r3, [pc, #176]	; (8007f78 <_reclaim_reent+0xb4>)
 8007ec6:	681b      	ldr	r3, [r3, #0]
 8007ec8:	4283      	cmp	r3, r0
 8007eca:	b570      	push	{r4, r5, r6, lr}
 8007ecc:	4604      	mov	r4, r0
 8007ece:	d051      	beq.n	8007f74 <_reclaim_reent+0xb0>
 8007ed0:	6a43      	ldr	r3, [r0, #36]	; 0x24
 8007ed2:	b143      	cbz	r3, 8007ee6 <_reclaim_reent+0x22>
 8007ed4:	68db      	ldr	r3, [r3, #12]
 8007ed6:	2b00      	cmp	r3, #0
 8007ed8:	d14a      	bne.n	8007f70 <_reclaim_reent+0xac>
 8007eda:	6a63      	ldr	r3, [r4, #36]	; 0x24
 8007edc:	6819      	ldr	r1, [r3, #0]
 8007ede:	b111      	cbz	r1, 8007ee6 <_reclaim_reent+0x22>
 8007ee0:	4620      	mov	r0, r4
 8007ee2:	f000 f857 	bl	8007f94 <_free_r>
 8007ee6:	6961      	ldr	r1, [r4, #20]
 8007ee8:	b111      	cbz	r1, 8007ef0 <_reclaim_reent+0x2c>
 8007eea:	4620      	mov	r0, r4
 8007eec:	f000 f852 	bl	8007f94 <_free_r>
 8007ef0:	6a61      	ldr	r1, [r4, #36]	; 0x24
 8007ef2:	b111      	cbz	r1, 8007efa <_reclaim_reent+0x36>
 8007ef4:	4620      	mov	r0, r4
 8007ef6:	f000 f84d 	bl	8007f94 <_free_r>
 8007efa:	6ba1      	ldr	r1, [r4, #56]	; 0x38
 8007efc:	b111      	cbz	r1, 8007f04 <_reclaim_reent+0x40>
 8007efe:	4620      	mov	r0, r4
 8007f00:	f000 f848 	bl	8007f94 <_free_r>
 8007f04:	6be1      	ldr	r1, [r4, #60]	; 0x3c
 8007f06:	b111      	cbz	r1, 8007f0e <_reclaim_reent+0x4a>
 8007f08:	4620      	mov	r0, r4
 8007f0a:	f000 f843 	bl	8007f94 <_free_r>
 8007f0e:	6c21      	ldr	r1, [r4, #64]	; 0x40
 8007f10:	b111      	cbz	r1, 8007f18 <_reclaim_reent+0x54>
 8007f12:	4620      	mov	r0, r4
 8007f14:	f000 f83e 	bl	8007f94 <_free_r>
 8007f18:	6de1      	ldr	r1, [r4, #92]	; 0x5c
 8007f1a:	b111      	cbz	r1, 8007f22 <_reclaim_reent+0x5e>
 8007f1c:	4620      	mov	r0, r4
 8007f1e:	f000 f839 	bl	8007f94 <_free_r>
 8007f22:	6da1      	ldr	r1, [r4, #88]	; 0x58
 8007f24:	b111      	cbz	r1, 8007f2c <_reclaim_reent+0x68>
 8007f26:	4620      	mov	r0, r4
 8007f28:	f000 f834 	bl	8007f94 <_free_r>
 8007f2c:	6b61      	ldr	r1, [r4, #52]	; 0x34
 8007f2e:	b111      	cbz	r1, 8007f36 <_reclaim_reent+0x72>
 8007f30:	4620      	mov	r0, r4
 8007f32:	f000 f82f 	bl	8007f94 <_free_r>
 8007f36:	69a3      	ldr	r3, [r4, #24]
 8007f38:	b1e3      	cbz	r3, 8007f74 <_reclaim_reent+0xb0>
 8007f3a:	6aa3      	ldr	r3, [r4, #40]	; 0x28
 8007f3c:	4620      	mov	r0, r4
 8007f3e:	4798      	blx	r3
 8007f40:	6ca1      	ldr	r1, [r4, #72]	; 0x48
 8007f42:	b1b9      	cbz	r1, 8007f74 <_reclaim_reent+0xb0>
 8007f44:	4620      	mov	r0, r4
 8007f46:	e8bd 4070 	ldmia.w	sp!, {r4, r5, r6, lr}
 8007f4a:	f7ff bfad 	b.w	8007ea8 <cleanup_glue>
 8007f4e:	5949      	ldr	r1, [r1, r5]
 8007f50:	b941      	cbnz	r1, 8007f64 <_reclaim_reent+0xa0>
 8007f52:	3504      	adds	r5, #4
 8007f54:	6a63      	ldr	r3, [r4, #36]	; 0x24
 8007f56:	2d80      	cmp	r5, #128	; 0x80
 8007f58:	68d9      	ldr	r1, [r3, #12]
 8007f5a:	d1f8      	bne.n	8007f4e <_reclaim_reent+0x8a>
 8007f5c:	4620      	mov	r0, r4
 8007f5e:	f000 f819 	bl	8007f94 <_free_r>
 8007f62:	e7ba      	b.n	8007eda <_reclaim_reent+0x16>
 8007f64:	680e      	ldr	r6, [r1, #0]
 8007f66:	4620      	mov	r0, r4
 8007f68:	f000 f814 	bl	8007f94 <_free_r>
 8007f6c:	4631      	mov	r1, r6
 8007f6e:	e7ef      	b.n	8007f50 <_reclaim_reent+0x8c>
 8007f70:	2500      	movs	r5, #0
 8007f72:	e7ef      	b.n	8007f54 <_reclaim_reent+0x90>
 8007f74:	bd70      	pop	{r4, r5, r6, pc}
 8007f76:	bf00      	nop
 8007f78:	2000002c 	.word	0x2000002c

08007f7c <__malloc_lock>:
 8007f7c:	4801      	ldr	r0, [pc, #4]	; (8007f84 <__malloc_lock+0x8>)
 8007f7e:	f7ff bf89 	b.w	8007e94 <__retarget_lock_acquire_recursive>
 8007f82:	bf00      	nop
 8007f84:	2000447c 	.word	0x2000447c

08007f88 <__malloc_unlock>:
 8007f88:	4801      	ldr	r0, [pc, #4]	; (8007f90 <__malloc_unlock+0x8>)
 8007f8a:	f7ff bf84 	b.w	8007e96 <__retarget_lock_release_recursive>
 8007f8e:	bf00      	nop
 8007f90:	2000447c 	.word	0x2000447c

08007f94 <_free_r>:
 8007f94:	b537      	push	{r0, r1, r2, r4, r5, lr}
 8007f96:	2900      	cmp	r1, #0
 8007f98:	d048      	beq.n	800802c <_free_r+0x98>
 8007f9a:	f851 3c04 	ldr.w	r3, [r1, #-4]
 8007f9e:	9001      	str	r0, [sp, #4]
 8007fa0:	2b00      	cmp	r3, #0
 8007fa2:	f1a1 0404 	sub.w	r4, r1, #4
 8007fa6:	bfb8      	it	lt
 8007fa8:	18e4      	addlt	r4, r4, r3
 8007faa:	f7ff ffe7 	bl	8007f7c <__malloc_lock>
 8007fae:	4a20      	ldr	r2, [pc, #128]	; (8008030 <_free_r+0x9c>)
 8007fb0:	9801      	ldr	r0, [sp, #4]
 8007fb2:	6813      	ldr	r3, [r2, #0]
 8007fb4:	4615      	mov	r5, r2
 8007fb6:	b933      	cbnz	r3, 8007fc6 <_free_r+0x32>
 8007fb8:	6063      	str	r3, [r4, #4]
 8007fba:	6014      	str	r4, [r2, #0]
 8007fbc:	b003      	add	sp, #12
 8007fbe:	e8bd 4030 	ldmia.w	sp!, {r4, r5, lr}
 8007fc2:	f7ff bfe1 	b.w	8007f88 <__malloc_unlock>
 8007fc6:	42a3      	cmp	r3, r4
 8007fc8:	d90b      	bls.n	8007fe2 <_free_r+0x4e>
 8007fca:	6821      	ldr	r1, [r4, #0]
 8007fcc:	1862      	adds	r2, r4, r1
 8007fce:	4293      	cmp	r3, r2
 8007fd0:	bf04      	itt	eq
 8007fd2:	681a      	ldreq	r2, [r3, #0]
 8007fd4:	685b      	ldreq	r3, [r3, #4]
 8007fd6:	6063      	str	r3, [r4, #4]
 8007fd8:	bf04      	itt	eq
 8007fda:	1852      	addeq	r2, r2, r1
 8007fdc:	6022      	streq	r2, [r4, #0]
 8007fde:	602c      	str	r4, [r5, #0]
 8007fe0:	e7ec      	b.n	8007fbc <_free_r+0x28>
 8007fe2:	461a      	mov	r2, r3
 8007fe4:	685b      	ldr	r3, [r3, #4]
 8007fe6:	b10b      	cbz	r3, 8007fec <_free_r+0x58>
 8007fe8:	42a3      	cmp	r3, r4
 8007fea:	d9fa      	bls.n	8007fe2 <_free_r+0x4e>
 8007fec:	6811      	ldr	r1, [r2, #0]
 8007fee:	1855      	adds	r5, r2, r1
 8007ff0:	42a5      	cmp	r5, r4
 8007ff2:	d10b      	bne.n	800800c <_free_r+0x78>
 8007ff4:	6824      	ldr	r4, [r4, #0]
 8007ff6:	4421      	add	r1, r4
 8007ff8:	1854      	adds	r4, r2, r1
 8007ffa:	42a3      	cmp	r3, r4
 8007ffc:	6011      	str	r1, [r2, #0]
 8007ffe:	d1dd      	bne.n	8007fbc <_free_r+0x28>
 8008000:	681c      	ldr	r4, [r3, #0]
 8008002:	685b      	ldr	r3, [r3, #4]
 8008004:	6053      	str	r3, [r2, #4]
 8008006:	4421      	add	r1, r4
 8008008:	6011      	str	r1, [r2, #0]
 800800a:	e7d7      	b.n	8007fbc <_free_r+0x28>
 800800c:	d902      	bls.n	8008014 <_free_r+0x80>
 800800e:	230c      	movs	r3, #12
 8008010:	6003      	str	r3, [r0, #0]
 8008012:	e7d3      	b.n	8007fbc <_free_r+0x28>
 8008014:	6825      	ldr	r5, [r4, #0]
 8008016:	1961      	adds	r1, r4, r5
 8008018:	428b      	cmp	r3, r1
 800801a:	bf04      	itt	eq
 800801c:	6819      	ldreq	r1, [r3, #0]
 800801e:	685b      	ldreq	r3, [r3, #4]
 8008020:	6063      	str	r3, [r4, #4]
 8008022:	bf04      	itt	eq
 8008024:	1949      	addeq	r1, r1, r5
 8008026:	6021      	streq	r1, [r4, #0]
 8008028:	6054      	str	r4, [r2, #4]
 800802a:	e7c7      	b.n	8007fbc <_free_r+0x28>
 800802c:	b003      	add	sp, #12
 800802e:	bd30      	pop	{r4, r5, pc}
 8008030:	200042e4 	.word	0x200042e4

08008034 <_init>:
 8008034:	b5f8      	push	{r3, r4, r5, r6, r7, lr}
 8008036:	bf00      	nop
 8008038:	bcf8      	pop	{r3, r4, r5, r6, r7}
 800803a:	bc08      	pop	{r3}
 800803c:	469e      	mov	lr, r3
 800803e:	4770      	bx	lr

08008040 <_fini>:
 8008040:	b5f8      	push	{r3, r4, r5, r6, r7, lr}
 8008042:	bf00      	nop
 8008044:	bcf8      	pop	{r3, r4, r5, r6, r7}
 8008046:	bc08      	pop	{r3}
 8008048:	469e      	mov	lr, r3
 800804a:	4770      	bx	lr
